

Microchip MPLAB XC8 Assembler V2.46 build 20240104201356 
                                                                                               Sat Jul 20 23:39:22 2024

Microchip MPLAB XC8 C Compiler v2.46 (Free license) build 20240104201356 Og1 
     1                           	processor	18F15Q41
     2                           	fnconf	rparam,??,?,0
     3                           	pagewidth 120
     4                           	opt	flic
     5                           	psect	idataBANK6,global,class=CODE,delta=1,noexec
     6                           	psect	mediumconst,global,reloc=2,class=MEDIUMCONST,delta=1,noexec
     7                           	psect	nvBANK5,global,class=BANK5,space=1,delta=1,lowdata,noexec
     8                           	psect	nvBANK6,global,class=BANK6,space=1,delta=1,lowdata,noexec
     9                           	psect	cinit,global,reloc=2,class=CODE,delta=1
    10                           	psect	bssCOMRAM,global,class=COMRAM,space=1,delta=1,lowdata,noexec
    11                           	psect	bssBANK5,global,class=BANK5,space=1,delta=1,lowdata,noexec
    12                           	psect	bssBANK6,global,class=BANK6,space=1,delta=1,lowdata,noexec
    13                           	psect	dataBANK6,global,class=BANK6,space=1,delta=1,lowdata,noexec
    14                           	psect	cstackBANK5,global,class=BANK5,space=1,delta=1,lowdata,noexec
    15                           	psect	cstackCOMRAM,global,class=COMRAM,space=1,delta=1,lowdata,noexec
    16                           	psect	text0,global,reloc=2,class=CODE,delta=1
    17                           	psect	text1,global,reloc=2,class=CODE,delta=1
    18                           	psect	text2,global,reloc=2,class=CODE,delta=1
    19                           	psect	text3,global,reloc=2,class=CODE,delta=1,group=3
    20                           	psect	text4,global,reloc=2,class=CODE,delta=1,group=3
    21                           	psect	text5,global,reloc=2,class=CODE,delta=1,group=3
    22                           	psect	text6,global,reloc=2,class=CODE,delta=1,group=3
    23                           	psect	text7,global,reloc=2,class=CODE,delta=1,group=2
    24                           	psect	text8,global,reloc=2,class=CODE,delta=1,group=2
    25                           	psect	text9,global,reloc=2,class=CODE,delta=1,group=2
    26                           	psect	text10,global,reloc=2,class=CODE,delta=1,group=2
    27                           	psect	text11,global,reloc=2,class=CODE,delta=1,group=3
    28                           	psect	text12,global,reloc=2,class=CODE,delta=1,group=2
    29                           	psect	text13,global,reloc=2,class=CODE,delta=1,group=2
    30                           	psect	text14,global,reloc=2,class=CODE,delta=1,group=2
    31                           	psect	text15,global,reloc=2,class=CODE,delta=1
    32                           	psect	text16,global,reloc=2,class=CODE,delta=1
    33                           	psect	text17,global,reloc=2,class=CODE,delta=1
    34                           	psect	text18,global,reloc=2,class=CODE,delta=1
    35                           	psect	text19,global,reloc=2,class=CODE,delta=1
    36                           	psect	text20,global,reloc=2,class=CODE,delta=1
    37                           	psect	text21,global,reloc=2,class=CODE,delta=1,group=3
    38                           	psect	text22,global,reloc=2,class=CODE,delta=1,group=3
    39                           	psect	text23,global,reloc=2,class=CODE,delta=1,group=1
    40                           	psect	text24,global,reloc=2,class=CODE,delta=1,group=1
    41                           	psect	text25,global,reloc=2,class=CODE,delta=1,group=3
    42                           	psect	text26,global,reloc=2,class=CODE,delta=1,group=3
    43                           	psect	text27,global,reloc=2,class=CODE,delta=1,group=3
    44                           	psect	text28,global,reloc=2,class=CODE,delta=1,group=2
    45                           	psect	text29,global,reloc=2,class=CODE,delta=1,group=2
    46                           	psect	text30,global,reloc=2,class=CODE,delta=1,group=3
    47                           	psect	text31,global,reloc=2,class=CODE,delta=1,group=3
    48                           	psect	text32,global,reloc=2,class=CODE,delta=1,group=3
    49                           	psect	text33,global,reloc=2,class=CODE,delta=1,group=3
    50                           	psect	text34,global,reloc=2,class=CODE,delta=1
    51                           	psect	text35,global,reloc=2,class=CODE,delta=1
    52                           	psect	text36,global,reloc=2,class=CODE,delta=1
    53                           	psect	text37,global,reloc=2,class=CODE,delta=1
    54                           	psect	text38,global,reloc=2,class=CODE,delta=1
    55                           	psect	text39,global,reloc=2,class=CODE,delta=1
    56                           	psect	text40,global,reloc=2,class=CODE,delta=1
    57                           	psect	text41,global,reloc=2,class=CODE,delta=1
    58                           	psect	text42,global,reloc=2,class=CODE,delta=1
    59                           	psect	text43,global,reloc=2,class=CODE,delta=1
    60                           	psect	text44,global,reloc=2,class=CODE,delta=1
    61                           	psect	text45,global,reloc=2,class=CODE,delta=1
    62                           	psect	text46,global,reloc=2,class=CODE,delta=1
    63                           	psect	text47,global,reloc=2,class=CODE,delta=1
    64                           	psect	text48,global,reloc=2,class=CODE,delta=1
    65                           	psect	text49,global,reloc=2,class=CODE,delta=1
    66                           	psect	text50,global,reloc=2,class=CODE,delta=1
    67                           	psect	intsave_regs,global,class=BIGRAM,space=1,delta=1,noexec
    68                           	psect	rparam,global,class=COMRAM,space=1,delta=1,noexec
    69                           	psect	config,global,abs,ovrld,class=CONFIG,space=4,delta=1,noexec
    70   000000                     
    71                           ; Generated 18/12/2023 GMT
    72                           ; 
    73                           ; Copyright © 2023, Microchip Technology Inc. and its subsidiaries ("Microchip")
    74                           ; All rights reserved.
    75                           ; 
    76                           ; This software is developed by Microchip Technology Inc. and its subsidiaries ("Microch
      +                          ip").
    77                           ; 
    78                           ; Redistribution and use in source and binary forms, with or without modification, are
    79                           ; permitted provided that the following conditions are met:
    80                           ; 
    81                           ;     1. Redistributions of source code must retain the above copyright notice, this lis
      +                          t of
    82                           ;        conditions and the following disclaimer.
    83                           ; 
    84                           ;     2. Redistributions in binary form must reproduce the above copyright notice, this 
      +                          list
    85                           ;        of conditions and the following disclaimer in the documentation and/or other
    86                           ;        materials provided with the distribution. Publication is not required when
    87                           ;        this file is used in an embedded application.
    88                           ; 
    89                           ;     3. Microchip's name may not be used to endorse or promote products derived from th
      +                          is
    90                           ;        software without specific prior written permission.
    91                           ; 
    92                           ; THIS SOFTWARE IS PROVIDED BY MICROCHIP "AS IS" AND ANY EXPRESS OR IMPLIED WARRANTIES,
    93                           ; INCLUDING, BUT NOT LIMITED TO, THE IMPLIED WARRANTIES OF MERCHANTABILITY AND FITNESS F
      +                          OR
    94                           ; PURPOSE ARE DISCLAIMED.  IN NO EVENT SHALL MICROCHIP BE LIABLE FOR ANY DIRECT, INDIREC
      +                          T,
    95                           ; INCIDENTAL, SPECIAL, EXEMPLARY, OR CONSEQUENTIAL DAMAGES (INCLUDING BUT NOT LIMITED TO
    96                           ; PROCUREMENT OF SUBSTITUTE GOODS OR SERVICES; LOSS OF USE, DATA OR PROFITS; OR BUSINESS
    97                           ; INTERRUPTION) HOWSOEVER CAUSED AND ON ANY THEORY OF LIABILITY, WHETHER IN CONTRACT, ST
      +                          RICT
    98                           ; LIABILITY, OR TORT (INCLUDING NEGLIGENCE OR OTHERWISE) ARISING IN ANY WAY OUT OF THE U
      +                          SE OF
    99                           ; THIS SOFTWARE, EVEN IF ADVISED OF THE POSSIBILITY OF SUCH DAMAGE.
   100                           ; 
   101                           ; 
   102                           ; Code-generator required, PIC18F15Q41 Definitions
   103                           ; 
   104                           ; SFR Addresses
   105   000000                     
   106 ;; Function _PWM1_16BIT_Slice1Output1_DefaultInterruptHandler is unused but had its address taken
   107   000000                     
   108 ;; Function _PWM1_16BIT_Slice1Output2_DefaultInterruptHandler is unused but had its address taken
   109   000000                     
   110 ;; Function _PWM1_16BIT_Period_DefaultInterruptHandler is unused but had its address taken
   111   000000                     
   112 ;; Function _PWM2_16BIT_Slice1Output1_DefaultInterruptHandler is unused but had its address taken
   113   000000                     
   114 ;; Function _PWM2_16BIT_Slice1Output2_DefaultInterruptHandler is unused but had its address taken
   115   000000                     
   116 ;; Function _PWM2_16BIT_Period_DefaultInterruptHandler is unused but had its address taken
   117   000000                     
   118 ;; Function _SPI1_Initialize is unused but had its address taken
   119   000000                     
   120 ;; Function _SPI1_Deinitialize is unused but had its address taken
   121   000000                     
   122 ;; Function _SPI1_Open is unused but had its address taken
   123   000000                     
   124 ;; Function _SPI1_Close is unused but had its address taken
   125   000000                     
   126 ;; Function _SPI1_BufferExchange is unused but had its address taken
   127   000000                     
   128 ;; Function _SPI1_BufferWrite is unused but had its address taken
   129   000000                     
   130 ;; Function _SPI1_BufferRead is unused but had its address taken
   131   000000                     
   132 ;; Function _SPI1_ByteExchange is unused but had its address taken
   133   000000                     
   134 ;; Function _SPI1_ByteWrite is unused but had its address taken
   135   000000                     
   136 ;; Function _SPI1_ByteRead is unused but had its address taken
   137   000000                     
   138 ;; Function _SPI1_IsTxReady is unused but had its address taken
   139   000000                     
   140 ;; Function _SPI1_IsRxReady is unused but had its address taken
   141   000000                     
   142 ;; Function _INT0_DefaultInterruptHandler is unused but had its address taken
   143   000000                     
   144 ;; Function _INT1_DefaultInterruptHandler is unused but had its address taken
   145   000000                     
   146 ;; Function _INT2_DefaultInterruptHandler is unused but had its address taken
   147   000000                     
   148                           	psect	idataBANK6
   149   005246                     __pidataBANK6:
   150                           	callstack 0
   151                           
   152                           ;initializer for main@F14137
   153   005246  00                 	db	0
   154   005247  02                 	db	2
   155   005248  01                 	db	1
   156   005249  01                 	db	1
   157                           
   158                           	psect	mediumconst
   159   007EC2                     __pmediumconst:
   160                           	callstack 0
   161   007EC2  00                 	db	0
   162   007EC3                     _SPI1_Host:
   163                           	callstack 0
   164   007EC3  00                 	db	0
   165   007EC4  00                 	db	0
   166   007EC5  00                 	db	0
   167   007EC6  00                 	db	0
   168   007EC7  00                 	db	0
   169   007EC8  00                 	db	0
   170   007EC9  00                 	db	0
   171   007ECA  00                 	db	0
   172   007ECB  00                 	db	0
   173   007ECC  00                 	db	0
   174   007ECD  00                 	db	0
   175   007ECE  00                 	db	0
   176   007ECF  00                 	db	0
   177   007ED0  00                 	db	0
   178   007ED1  00                 	db	0
   179   007ED2  00                 	db	0
   180   007ED3  00                 	db	0
   181   007ED4  00                 	db	0
   182   007ED5  00                 	db	0
   183   007ED6  00                 	db	0
   184   007ED7  00                 	db	0
   185   007ED8  00                 	db	0
   186   007ED9  00                 	db	0
   187   007EDA  00                 	db	0
   188   007EDB  00                 	db	0
   189   007EDC  00                 	db	0
   190   007EDD  00                 	db	0
   191   007EDE  00                 	db	0
   192   007EDF                     __end_of_SPI1_Host:
   193                           	callstack 0
   194   007EDF                     _spi1_configuration:
   195                           	callstack 0
   196   007EDF  02                 	db	2
   197   007EE0  00                 	db	0
   198   007EE1  00                 	db	0
   199   007EE2  FF                 	db	255
   200   007EE3  00                 	db	0
   201   007EE4  02                 	db	2
   202   007EE5  40                 	db	64
   203   007EE6  00                 	db	0
   204   007EE7  00                 	db	0
   205   007EE8  00                 	db	0
   206   007EE9                     __end_of_spi1_configuration:
   207                           	callstack 0
   208   007EE9  6C3C               	dw	27708
   209   007EEB  3636               	dw	13878
   210   007EED                     __end_of_S4:
   211                           	callstack 0
   212   007EED  07CF               	dw	1999
   213   007EEF  B950               	dw	47440
   214   007EF1                     __end_of_S3:
   215                           	callstack 0
   216   007EF1  8884               	dw	34948
   217   007EF3  3C08               	dw	15368
   218   007EF5                     __end_of_S2:
   219                           	callstack 0
   220   007EF5  AAAB               	dw	43691
   221   007EF7  BE2A               	dw	48682
   222   007EF9                     __end_of_S1:
   223                           	callstack 0
   224   007EF9  85A3               	dw	34211
   225   007EFB  3288               	dw	12936
   226   007EFD                     __end_of_pio2_1t:
   227                           	callstack 0
   228   007EFD  0FDA               	dw	4058
   229   007EFF  3FC9               	dw	16329
   230   007F01                     __end_of_pio2_1:
   231                           	callstack 0
   232   007F01  F983               	dw	63875
   233   007F03  3F22               	dw	16162
   234   007F05                     __end_of_invpio2:
   235                           	callstack 0
   236   007F05  0000               	dw	0
   237   007F07  3F00               	dw	16128
   238   007F09                     __end_of_half:
   239                           	callstack 0
   240   007F09  9A17               	dw	39447
   241   007F0B  37CC               	dw	14284
   242   007F0D                     __end_of_C3:
   243                           	callstack 0
   244   007F0D  043F               	dw	1087
   245   007F0F  BAB6               	dw	47798
   246   007F11                     __end_of_C2:
   247                           	callstack 0
   248   007F11  AA9F               	dw	43679
   249   007F13  3D2A               	dw	15658
   250   007F15                     __end_of_C1:
   251                           	callstack 0
   252   007F15  0000               	dw	0
   253   007F17  BF00               	dw	48896
   254   007F19                     __end_of_C0:
   255                           	callstack 0
   256   007F19  0FDB               	dw	4059
   257   007F1B  40C9               	dw	16585
   258   007F1D                     __end_of_s4pio2:
   259                           	callstack 0
   260   007F1D  CBE4               	dw	52196
   261   007F1F  4096               	dw	16534
   262   007F21                     __end_of_s3pio2:
   263                           	callstack 0
   264   007F21  0FDB               	dw	4059
   265   007F23  4049               	dw	16457
   266   007F25                     __end_of_s2pio2:
   267                           	callstack 0
   268   007F25  0FDB               	dw	4059
   269   007F27  3FC9               	dw	16329
   270   007F29                     __end_of_s1pio2:
   271                           	callstack 0
   272   007F29                     
   273                           ;main.c: 173: static void vGenerateSinus(uint8_t* const pu8OutputArray, uint32_t u32Samp
      +                          les, uint32_t u32Amplitude, uint32_t u32Offset);main.c: 174: {;main.c: 175:     static d
      +                          ouble const PI = 3.14159265;
   274   007F29  0FDB               	dw	4059
   275   007F2B  4049               	dw	16457
   276   007F2D                     __end_ofvGenerateSinus@PI:
   277                           	callstack 0
   278   000000                     _OSCTUNE	set	176
   279   000000                     _OSCFRQ	set	177
   280   000000                     _OSCEN	set	179
   281   000000                     _IOCBF	set	1039
   282   000000                     _IOCBN	set	1038
   283   000000                     _IOCBP	set	1037
   284   000000                     _IOCAF	set	1031
   285   000000                     _IOCAN	set	1030
   286   000000                     _IOCAP	set	1029
   287   000000                     _INLVLB	set	1036
   288   000000                     _INLVLA	set	1028
   289   000000                     _SLRCONB	set	1035
   290   000000                     _SLRCONA	set	1027
   291   000000                     _WPUC	set	1041
   292   000000                     _WPUB	set	1033
   293   000000                     _WPUA	set	1025
   294   000000                     _ANSELC	set	1040
   295   000000                     _ANSELB	set	1032
   296   000000                     _ODCONC	set	1042
   297   000000                     _ODCONB	set	1034
   298   000000                     _SPI1RXB	set	128
   299   000000                     _SPI1TXB	set	129
   300   000000                     _SPI1TCNTL	set	130
   301   000000                     _SPI1TCNTH	set	131
   302   000000                     _SPI1CON0	set	132
   303   000000                     _PWM2CON	set	1144
   304   000000                     _PWM2S1CFG	set	1145
   305   000000                     _PWM2GIE	set	1143
   306   000000                     _PWM2GIR	set	1142
   307   000000                     _PWM2PIPOS	set	1141
   308   000000                     _PWM2CPRE	set	1140
   309   000000                     _PWM2PRH	set	1139
   310   000000                     _PWM2PRL	set	1138
   311   000000                     _PWM2LDS	set	1137
   312   000000                     _PWM2CLK	set	1136
   313   000000                     _PWM2ERS	set	1135
   314   000000                     _PWM1CON	set	1129
   315   000000                     _PIE4bits	set	1196
   316   000000                     _PIR4bits	set	1207
   317   000000                     _PWM1S1P2H	set	1134
   318   000000                     _PWM1S1P2L	set	1133
   319   000000                     _PWM1S1P1H	set	1132
   320   000000                     _PWM1S1P1L	set	1131
   321   000000                     _PWM1S1CFG	set	1130
   322   000000                     _PWM1GIE	set	1128
   323   000000                     _PWM1GIR	set	1127
   324   000000                     _PWM1PIPOS	set	1126
   325   000000                     _PWM1CPRE	set	1125
   326   000000                     _PWM1PRH	set	1124
   327   000000                     _PWM1PRL	set	1123
   328   000000                     _PWM1LDS	set	1122
   329   000000                     _PWM1CLK	set	1121
   330   000000                     _PWM1ERS	set	1120
   331   007F2D                     STR_55:
   332   007F2D  41                 	db	65	;'A'
   333   007F2E  73                 	db	115	;'s'
   334   007F2F  73                 	db	115	;'s'
   335   007F30  65                 	db	101	;'e'
   336   007F31  72                 	db	114	;'r'
   337   007F32  74                 	db	116	;'t'
   338   007F33  69                 	db	105	;'i'
   339   007F34  6F                 	db	111	;'o'
   340   007F35  6E                 	db	110	;'n'
   341   007F36  20                 	db	32
   342   007F37  66                 	db	102	;'f'
   343   007F38  61                 	db	97	;'a'
   344   007F39  69                 	db	105	;'i'
   345   007F3A  6C                 	db	108	;'l'
   346   007F3B  65                 	db	101	;'e'
   347   007F3C  64                 	db	100	;'d'
   348   007F3D  3A                 	db	58	;':'
   349   007F3E  20                 	db	32
   350   007F3F  25                 	db	37
   351   007F40  73                 	db	115	;'s'
   352   007F41  20                 	db	32
   353   007F42  28                 	db	40
   354   007F43  25                 	db	37
   355   007F44  73                 	db	115	;'s'
   356   007F45  3A                 	db	58	;':'
   357   007F46  20                 	db	32
   358   007F47  25                 	db	37
   359   007F48  73                 	db	115	;'s'
   360   007F49  3A                 	db	58	;':'
   361   007F4A  20                 	db	32
   362   007F4B  25                 	db	37
   363   007F4C  64                 	db	100	;'d'
   364   007F4D  29                 	db	41
   365   007F4E  0A                 	db	10
   366   007F4F  00                 	db	0
   367   007F50                     STR_39:
   368   007F50  73                 	db	115	;'s'
   369   007F51  38                 	db	56	;'8'
   370   007F52  53                 	db	83	;'S'
   371   007F53  50                 	db	80	;'P'
   372   007F54  49                 	db	73	;'I'
   373   007F55  5F                 	db	95	;'_'
   374   007F56  4D                 	db	77	;'M'
   375   007F57  61                 	db	97	;'a'
   376   007F58  73                 	db	115	;'s'
   377   007F59  74                 	db	116	;'t'
   378   007F5A  65                 	db	101	;'e'
   379   007F5B  72                 	db	114	;'r'
   380   007F5C  5F                 	db	95	;'_'
   381   007F5D  54                 	db	84	;'T'
   382   007F5E  72                 	db	114	;'r'
   383   007F5F  61                 	db	97	;'a'
   384   007F60  6E                 	db	110	;'n'
   385   007F61  73                 	db	115	;'s'
   386   007F62  6D                 	db	109	;'m'
   387   007F63  69                 	db	105	;'i'
   388   007F64  74                 	db	116	;'t'
   389   007F65  52                 	db	82	;'R'
   390   007F66  65                 	db	101	;'e'
   391   007F67  63                 	db	99	;'c'
   392   007F68  65                 	db	101	;'e'
   393   007F69  69                 	db	105	;'i'
   394   007F6A  76                 	db	118	;'v'
   395   007F6B  65                 	db	101	;'e'
   396   007F6C  44                 	db	68	;'D'
   397   007F6D  61                 	db	97	;'a'
   398   007F6E  74                 	db	116	;'t'
   399   007F6F  61                 	db	97	;'a'
   400   007F70  00                 	db	0
   401   007F71                     STR_15:
   402   007F71  73                 	db	115	;'s'
   403   007F72  38                 	db	56	;'8'
   404   007F73  53                 	db	83	;'S'
   405   007F74  50                 	db	80	;'P'
   406   007F75  49                 	db	73	;'I'
   407   007F76  5F                 	db	95	;'_'
   408   007F77  4D                 	db	77	;'M'
   409   007F78  61                 	db	97	;'a'
   410   007F79  73                 	db	115	;'s'
   411   007F7A  74                 	db	116	;'t'
   412   007F7B  65                 	db	101	;'e'
   413   007F7C  72                 	db	114	;'r'
   414   007F7D  5F                 	db	95	;'_'
   415   007F7E  54                 	db	84	;'T'
   416   007F7F  72                 	db	114	;'r'
   417   007F80  61                 	db	97	;'a'
   418   007F81  6E                 	db	110	;'n'
   419   007F82  73                 	db	115	;'s'
   420   007F83  6D                 	db	109	;'m'
   421   007F84  69                 	db	105	;'i'
   422   007F85  74                 	db	116	;'t'
   423   007F86  44                 	db	68	;'D'
   424   007F87  61                 	db	97	;'a'
   425   007F88  74                 	db	116	;'t'
   426   007F89  61                 	db	97	;'a'
   427   007F8A  00                 	db	0
   428   007F8B                     STR_27:
   429   007F8B  73                 	db	115	;'s'
   430   007F8C  38                 	db	56	;'8'
   431   007F8D  53                 	db	83	;'S'
   432   007F8E  50                 	db	80	;'P'
   433   007F8F  49                 	db	73	;'I'
   434   007F90  5F                 	db	95	;'_'
   435   007F91  4D                 	db	77	;'M'
   436   007F92  61                 	db	97	;'a'
   437   007F93  73                 	db	115	;'s'
   438   007F94  74                 	db	116	;'t'
   439   007F95  65                 	db	101	;'e'
   440   007F96  72                 	db	114	;'r'
   441   007F97  5F                 	db	95	;'_'
   442   007F98  52                 	db	82	;'R'
   443   007F99  65                 	db	101	;'e'
   444   007F9A  63                 	db	99	;'c'
   445   007F9B  65                 	db	101	;'e'
   446   007F9C  69                 	db	105	;'i'
   447   007F9D  76                 	db	118	;'v'
   448   007F9E  65                 	db	101	;'e'
   449   007F9F  44                 	db	68	;'D'
   450   007FA0  61                 	db	97	;'a'
   451   007FA1  74                 	db	116	;'t'
   452   007FA2  61                 	db	97	;'a'
   453   007FA3  00                 	db	0
   454   007FA4                     STR_3:
   455   007FA4  73                 	db	115	;'s'
   456   007FA5  38                 	db	56	;'8'
   457   007FA6  53                 	db	83	;'S'
   458   007FA7  50                 	db	80	;'P'
   459   007FA8  49                 	db	73	;'I'
   460   007FA9  5F                 	db	95	;'_'
   461   007FAA  4D                 	db	77	;'M'
   462   007FAB  61                 	db	97	;'a'
   463   007FAC  73                 	db	115	;'s'
   464   007FAD  74                 	db	116	;'t'
   465   007FAE  65                 	db	101	;'e'
   466   007FAF  72                 	db	114	;'r'
   467   007FB0  5F                 	db	95	;'_'
   468   007FB1  49                 	db	73	;'I'
   469   007FB2  6E                 	db	110	;'n'
   470   007FB3  69                 	db	105	;'i'
   471   007FB4  74                 	db	116	;'t'
   472   007FB5  00                 	db	0
   473   007FB6                     STR_2:
   474   007FB6  53                 	db	83	;'S'
   475   007FB7  50                 	db	80	;'P'
   476   007FB8  49                 	db	73	;'I'
   477   007FB9  2F                 	db	47
   478   007FBA  53                 	db	83	;'S'
   479   007FBB  50                 	db	80	;'P'
   480   007FBC  49                 	db	73	;'I'
   481   007FBD  5F                 	db	95	;'_'
   482   007FBE  4D                 	db	77	;'M'
   483   007FBF  61                 	db	97	;'a'
   484   007FC0  73                 	db	115	;'s'
   485   007FC1  74                 	db	116	;'t'
   486   007FC2  65                 	db	101	;'e'
   487   007FC3  72                 	db	114	;'r'
   488   007FC4  2E                 	db	46
   489   007FC5  63                 	db	99	;'c'
   490   007FC6  00                 	db	0
   491   007FC7                     STR_1:
   492   007FC7  70                 	db	112	;'p'
   493   007FC8  73                 	db	115	;'s'
   494   007FC9  53                 	db	83	;'S'
   495   007FCA  50                 	db	80	;'P'
   496   007FCB  49                 	db	73	;'I'
   497   007FCC  5F                 	db	95	;'_'
   498   007FCD  48                 	db	72	;'H'
   499   007FCE  61                 	db	97	;'a'
   500   007FCF  6E                 	db	110	;'n'
   501   007FD0  64                 	db	100	;'d'
   502   007FD1  6C                 	db	108	;'l'
   503   007FD2  65                 	db	101	;'e'
   504   007FD3  72                 	db	114	;'r'
   505   007FD4  00                 	db	0
   506   007FD5                     STR_49:
   507   007FD5  70                 	db	112	;'p'
   508   007FD6  75                 	db	117	;'u'
   509   007FD7  38                 	db	56	;'8'
   510   007FD8  52                 	db	82	;'R'
   511   007FD9  78                 	db	120	;'x'
   512   007FDA  44                 	db	68	;'D'
   513   007FDB  61                 	db	97	;'a'
   514   007FDC  74                 	db	116	;'t'
   515   007FDD  61                 	db	97	;'a'
   516   007FDE  00                 	db	0
   517   007FDF                     STR_43:
   518   007FDF  70                 	db	112	;'p'
   519   007FE0  75                 	db	117	;'u'
   520   007FE1  38                 	db	56	;'8'
   521   007FE2  54                 	db	84	;'T'
   522   007FE3  78                 	db	120	;'x'
   523   007FE4  44                 	db	68	;'D'
   524   007FE5  61                 	db	97	;'a'
   525   007FE6  74                 	db	116	;'t'
   526   007FE7  61                 	db	97	;'a'
   527   007FE8  00                 	db	0
   528   007FE9                     STR_7:
   529   007FE9  70                 	db	112	;'p'
   530   007FEA  73                 	db	115	;'s'
   531   007FEB  43                 	db	67	;'C'
   532   007FEC  6F                 	db	111	;'o'
   533   007FED  6E                 	db	110	;'n'
   534   007FEE  66                 	db	102	;'f'
   535   007FEF  69                 	db	105	;'i'
   536   007FF0  67                 	db	103	;'g'
   537   007FF1  00                 	db	0
   538   007FF2                     STR_19:
   539   007FF2  70                 	db	112	;'p'
   540   007FF3  75                 	db	117	;'u'
   541   007FF4  38                 	db	56	;'8'
   542   007FF5  44                 	db	68	;'D'
   543   007FF6  61                 	db	97	;'a'
   544   007FF7  74                 	db	116	;'t'
   545   007FF8  61                 	db	97	;'a'
   546   007FF9  00                 	db	0
   547   007FFA  00                 	db	0	; dummy byte at the end
   548   000000                     
   549                           	psect	nvBANK5
   550   0005F7                     __pnvBANK5:
   551                           	callstack 0
   552   0005F7                     _PWM2_16BIT_Slice1Output1_InterruptHandler:
   553                           	callstack 0
   554   0005F7                     	ds	2
   555   0005F9                     _PWM1_16BIT_Period_InterruptHandler:
   556                           	callstack 0
   557   0005F9                     	ds	2
   558   0005FB                     _PWM1_16BIT_Slice1Output2_InterruptHandler:
   559                           	callstack 0
   560   0005FB                     	ds	2
   561   0005FD                     _PWM1_16BIT_Slice1Output1_InterruptHandler:
   562                           	callstack 0
   563   0005FD                     	ds	2
   564                           
   565                           	psect	nvBANK6
   566   00068A                     __pnvBANK6:
   567                           	callstack 0
   568   00068A                     _INT2_InterruptHandler:
   569                           	callstack 0
   570   00068A                     	ds	2
   571   00068C                     _INT1_InterruptHandler:
   572                           	callstack 0
   573   00068C                     	ds	2
   574   00068E                     _INT0_InterruptHandler:
   575                           	callstack 0
   576   00068E                     	ds	2
   577   000690                     _PWM2_16BIT_Period_InterruptHandler:
   578                           	callstack 0
   579   000690                     	ds	2
   580   000692                     _PWM2_16BIT_Slice1Output2_InterruptHandler:
   581                           	callstack 0
   582   000692                     	ds	2
   583   000000                     _SPI1CON0bits	set	132
   584   000000                     _TRISB	set	1223
   585   000000                     _PWM2GIEbits	set	1143
   586   000000                     _PWM2CONbits	set	1144
   587   000000                     _PWM2GIRbits	set	1142
   588   000000                     _PWM1GIEbits	set	1128
   589   000000                     _PWM1CONbits	set	1129
   590   000000                     _PWM1GIRbits	set	1127
   591   000000                     _DAC1DATL	set	125
   592   000000                     _DAC1CON	set	127
   593   000000                     _PIR10bits	set	1213
   594   000000                     _PIR6bits	set	1209
   595   000000                     _TRISBbits	set	1223
   596   000000                     _PIR5bits	set	1208
   597   000000                     _PIR1bits	set	1204
   598   000000                     _PIR3bits	set	1206
   599   000000                     _PIE5bits	set	1197
   600   000000                     _PIE3bits	set	1195
   601   000000                     _PWM2S1P2H	set	1149
   602   000000                     _PWM2S1P2L	set	1148
   603   000000                     _PWM2S1P1H	set	1147
   604   000000                     _PWM2S1P1L	set	1146
   605   000000                     _SPI1BAUD	set	137
   606   000000                     _SPI1CON2	set	134
   607   000000                     _SPI1CON1	set	133
   608   000000                     _SPI1INTFbits	set	138
   609   000000                     _SPI1CLK	set	140
   610   000000                     _ACTCON	set	172
   611   000000                     _OSCCON1	set	173
   612   000000                     _RA4PPS	set	517
   613   000000                     _RB4PPS	set	525
   614   000000                     _SPI1SDIPPS	set	619
   615   000000                     _RB6I2C	set	646
   616   000000                     _RB4I2C	set	647
   617   000000                     _ANSELA	set	1024
   618   000000                     _ODCONA	set	1026
   619   000000                     _TRISC	set	1224
   620   000000                     _INTCON0bits	set	1238
   621   000000                     _PORTB	set	1231
   622   000000                     _TRISA	set	1222
   623   000000                     _LATC	set	1216
   624   000000                     _LATB	set	1215
   625   000000                     _LATA	set	1214
   626   000000                     _IOCCF	set	1047
   627   000000                     _IOCCN	set	1046
   628   000000                     _IOCCP	set	1045
   629   000000                     _INLVLC	set	1044
   630   000000                     _SLRCONC	set	1043
   631   000000                     _RB5PPS	set	526
   632   000000                     _RC5PPS	set	534
   633   000000                     _RA5PPS	set	518
   634   000000                     _SPI1SCKPPS	set	618
   635   000000                     _OSCCON3	set	175
   636                           
   637                           ; #config settings
   638                           
   639                           	psect	cinit
   640   00553C                     __pcinit:
   641                           	callstack 0
   642   00553C                     start_initialization:
   643                           	callstack 0
   644   00553C                     __initialization:
   645                           	callstack 0
   646                           
   647                           ; Initialize objects allocated to BANK6 (4 bytes)
   648                           ; load TBLPTR registers with __pidataBANK6
   649   00553C  0E46               	movlw	low __pidataBANK6
   650   00553E  6EF6               	movwf	tblptrl,c
   651   005540  0E52               	movlw	high __pidataBANK6
   652   005542  6EF7               	movwf	tblptrh,c
   653   005544  0E00               	movlw	low (__pidataBANK6 shr (0+16))
   654   005546  6EF8               	movwf	tblptru,c
   655   005548  EE01  F294         	lfsr	0,__pdataBANK6
   656   00554C  EE10 F004          	lfsr	1,4
   657   005550                     copy_data0:
   658   005550  0009               	tblrd		*+
   659   005552  C4F5 F4EE          	movff	tablat,postinc0
   660   005556  50E5               	movf	postdec1,w,c
   661   005558  50E1               	movf	fsr1l,w,c
   662   00555A  E1FA               	bnz	copy_data0
   663                           
   664                           ; Clear objects allocated to BANK6 (138 bytes)
   665   00555C  EE01  F200         	lfsr	0,__pbssBANK6
   666   005560  0E8A               	movlw	138
   667   005562                     clear_0:
   668   005562  6AEE               	clrf	postinc0,c
   669   005564  06E8               	decf	wreg,f,c
   670   005566  E1FD               	bnz	clear_0
   671                           
   672                           ; Clear objects allocated to BANK5 (12 bytes)
   673   005568  EE01  F1EB         	lfsr	0,__pbssBANK5
   674   00556C  0E0C               	movlw	12
   675   00556E                     clear_1:
   676   00556E  6AEE               	clrf	postinc0,c
   677   005570  06E8               	decf	wreg,f,c
   678   005572  E1FD               	bnz	clear_1
   679                           
   680                           ; Clear objects allocated to COMRAM (2 bytes)
   681   005574  6A5E               	clrf	(__pbssCOMRAM+1)& (0+255),c
   682   005576  6A5D               	clrf	__pbssCOMRAM& (0+255),c
   683   005578                     end_of_initialization:
   684                           	callstack 0
   685   005578                     __end_of__initialization:
   686                           	callstack 0
   687   005578  0E00               	movlw	low (__Lmediumconst shr (0+16))
   688   00557A  6EF8               	movwf	tblptru,c
   689   00557C  0100               	movlb	0
   690   00557E  EFC7  F030         	goto	_main	;jump to C main() function
   691                           
   692                           	psect	bssCOMRAM
   693   00055D                     __pbssCOMRAM:
   694                           	callstack 0
   695   00055D                     _flags:
   696                           	callstack 0
   697   00055D                     	ds	1
   698   00055E                     _count:
   699                           	callstack 0
   700   00055E                     	ds	1
   701                           
   702                           	psect	bssBANK5
   703   0005EB                     __pbssBANK5:
   704                           	callstack 0
   705   0005EB                     fabsf@F465:
   706                           	callstack 0
   707   0005EB                     	ds	4
   708   0005EF                     ___rem_pio2f@F526:
   709                           	callstack 0
   710   0005EF                     	ds	4
   711   0005F3                     _width:
   712                           	callstack 0
   713   0005F3                     	ds	2
   714   0005F5                     _prec:
   715                           	callstack 0
   716   0005F5                     	ds	2
   717                           
   718                           	psect	bssBANK6
   719   000600                     __pbssBANK6:
   720                           	callstack 0
   721   000600                     _dbuf:
   722                           	callstack 0
   723   000600                     	ds	32
   724   000620                     _funcs:
   725                           	callstack 0
   726   000620                     	ds	6
   727   000626                     main@au8SinusWave:
   728                           	callstack 0
   729   000626                     	ds	100
   730                           
   731                           	psect	dataBANK6
   732   000694                     __pdataBANK6:
   733                           	callstack 0
   734   000694                     main@F14137:
   735                           	callstack 0
   736   000694                     	ds	4
   737                           
   738                           	psect	cstackBANK5
   739   000560                     __pcstackBANK5:
   740                           	callstack 0
   741   000560                     ___cosdf@r:
   742                           	callstack 0
   743   000560                     ___sindf@r:
   744                           	callstack 0
   745                           
   746                           ; 4 bytes @ 0x0
   747   000560                     	ds	4
   748   000564                     ___sindf@w:
   749                           	callstack 0
   750   000564                     ___cosdf$2378:
   751                           	callstack 0
   752                           
   753                           ; 4 bytes @ 0x4
   754   000564                     	ds	4
   755   000568                     ___cosdf$2379:
   756                           	callstack 0
   757   000568                     ___sindf$2382:
   758                           	callstack 0
   759                           
   760                           ; 4 bytes @ 0x8
   761   000568                     	ds	4
   762   00056C                     ___cosdf$2380:
   763                           	callstack 0
   764   00056C                     ___sindf$2383:
   765                           	callstack 0
   766                           
   767                           ; 4 bytes @ 0xC
   768   00056C                     	ds	4
   769   000570                     ___cosdf@w:
   770                           	callstack 0
   771   000570                     ___sindf$2384:
   772                           	callstack 0
   773                           
   774                           ; 4 bytes @ 0x10
   775   000570                     	ds	4
   776   000574                     ___cosdf@z:
   777                           	callstack 0
   778   000574                     ___sindf@s:
   779                           	callstack 0
   780                           
   781                           ; 4 bytes @ 0x14
   782   000574                     	ds	4
   783   000578                     ?___flneg:
   784                           	callstack 0
   785   000578                     ___flneg@f1:
   786                           	callstack 0
   787   000578                     ___sindf@z:
   788                           	callstack 0
   789                           
   790                           ; 4 bytes @ 0x18
   791   000578                     	ds	4
   792   00057C                     ?___rem_pio2f:
   793                           	callstack 0
   794   00057C                     ___rem_pio2f@x:
   795                           	callstack 0
   796                           
   797                           ; 4 bytes @ 0x1C
   798   00057C                     	ds	4
   799   000580                     ___rem_pio2f@y:
   800                           	callstack 0
   801                           
   802                           ; 2 bytes @ 0x20
   803   000580                     	ds	2
   804   000582                     ___rem_pio2f@ty:
   805                           	callstack 0
   806                           
   807                           ; 4 bytes @ 0x22
   808   000582                     	ds	4
   809   000586                     ___rem_pio2f$2381:
   810                           	callstack 0
   811                           
   812                           ; 4 bytes @ 0x26
   813   000586                     	ds	4
   814   00058A                     ___rem_pio2f@sign:
   815                           	callstack 0
   816                           
   817                           ; 1 bytes @ 0x2A
   818   00058A                     	ds	1
   819   00058B                     ___rem_pio2f@ux:
   820                           	callstack 0
   821                           
   822                           ; 4 bytes @ 0x2B
   823   00058B                     	ds	4
   824   00058F                     ___rem_pio2f@fn:
   825                           	callstack 0
   826                           
   827                           ; 4 bytes @ 0x2F
   828   00058F                     	ds	4
   829   000593                     ___rem_pio2f@t:
   830                           	callstack 0
   831                           
   832                           ; 4 bytes @ 0x33
   833   000593                     	ds	4
   834   000597                     ___rem_pio2f@n:
   835                           	callstack 0
   836                           
   837                           ; 4 bytes @ 0x37
   838   000597                     	ds	4
   839   00059B                     ?_sinf:
   840                           	callstack 0
   841   00059B                     sinf@x:
   842                           	callstack 0
   843                           
   844                           ; 4 bytes @ 0x3B
   845   00059B                     	ds	4
   846   00059F                     _sinf$2045:
   847                           	callstack 0
   848                           
   849                           ; 4 bytes @ 0x3F
   850   00059F                     	ds	4
   851   0005A3                     _sinf$2046:
   852                           	callstack 0
   853                           
   854                           ; 4 bytes @ 0x43
   855   0005A3                     	ds	4
   856   0005A7                     sinf@n:
   857                           	callstack 0
   858                           
   859                           ; 1 bytes @ 0x47
   860   0005A7                     	ds	1
   861   0005A8                     sinf@sign:
   862                           	callstack 0
   863                           
   864                           ; 1 bytes @ 0x48
   865   0005A8                     	ds	1
   866   0005A9                     _sinf$2377:
   867                           	callstack 0
   868                           
   869                           ; 4 bytes @ 0x49
   870   0005A9                     	ds	4
   871   0005AD                     sinf@y:
   872                           	callstack 0
   873                           
   874                           ; 4 bytes @ 0x4D
   875   0005AD                     	ds	4
   876   0005B1                     sinf@ux:
   877                           	callstack 0
   878                           
   879                           ; 4 bytes @ 0x51
   880   0005B1                     	ds	4
   881   0005B5                     vGenerateSinus@pu8OutputArray:
   882                           	callstack 0
   883                           
   884                           ; 2 bytes @ 0x55
   885   0005B5                     	ds	2
   886   0005B7                     vGenerateSinus@u32Samples:
   887                           	callstack 0
   888                           
   889                           ; 4 bytes @ 0x57
   890   0005B7                     	ds	4
   891   0005BB                     vGenerateSinus@u32Amplitude:
   892                           	callstack 0
   893                           
   894                           ; 4 bytes @ 0x5B
   895   0005BB                     	ds	4
   896   0005BF                     vGenerateSinus@u32Offset:
   897                           	callstack 0
   898                           
   899                           ; 4 bytes @ 0x5F
   900   0005BF                     	ds	4
   901   0005C3                     ??_vGenerateSinus:
   902                           
   903                           ; 1 bytes @ 0x63
   904   0005C3                     	ds	4
   905   0005C7                     _vGenerateSinus$2374:
   906                           	callstack 0
   907                           
   908                           ; 4 bytes @ 0x67
   909   0005C7                     	ds	4
   910   0005CB                     _vGenerateSinus$2375:
   911                           	callstack 0
   912                           
   913                           ; 4 bytes @ 0x6B
   914   0005CB                     	ds	4
   915   0005CF                     _vGenerateSinus$2376:
   916                           	callstack 0
   917                           
   918                           ; 4 bytes @ 0x6F
   919   0005CF                     	ds	4
   920   0005D3                     vGenerateSinus@i:
   921                           	callstack 0
   922                           
   923                           ; 2 bytes @ 0x73
   924   0005D3                     	ds	2
   925   0005D5                     ??_main:
   926                           
   927                           ; 1 bytes @ 0x75
   928   0005D5                     	ds	4
   929   0005D9                     main@u32CounterB:
   930                           	callstack 0
   931                           
   932                           ; 4 bytes @ 0x79
   933   0005D9                     	ds	4
   934   0005DD                     main@sConfig:
   935                           	callstack 0
   936                           
   937                           ; 4 bytes @ 0x7D
   938   0005DD                     	ds	4
   939   0005E1                     main@u32CurrentSample:
   940                           	callstack 0
   941                           
   942                           ; 4 bytes @ 0x81
   943   0005E1                     	ds	4
   944   0005E5                     main@u32CounterA:
   945                           	callstack 0
   946                           
   947                           ; 4 bytes @ 0x85
   948   0005E5                     	ds	4
   949   0005E9                     main@u8Light:
   950                           	callstack 0
   951                           
   952                           ; 1 bytes @ 0x89
   953   0005E9                     	ds	1
   954   0005EA                     main@u8Direction:
   955                           	callstack 0
   956                           
   957                           ; 1 bytes @ 0x8A
   958   0005EA                     	ds	1
   959                           
   960                           	psect	cstackCOMRAM
   961   000501                     __pcstackCOMRAM:
   962                           	callstack 0
   963   000501                     ?___awdiv:
   964                           	callstack 0
   965   000501                     ?___awmod:
   966                           	callstack 0
   967   000501                     ?_fabsf:
   968                           	callstack 0
   969   000501                     ?___xxtofl:
   970                           	callstack 0
   971   000501                     DAC1_SetOutput@inputData:
   972                           	callstack 0
   973   000501                     PWM1_16BIT_Slice1Output1_SetInterruptHandler@InterruptHandler:
   974                           	callstack 0
   975   000501                     PWM1_16BIT_Slice1Output2_SetInterruptHandler@InterruptHandler:
   976                           	callstack 0
   977   000501                     PWM1_16BIT_Period_SetInterruptHandler@InterruptHandler:
   978                           	callstack 0
   979   000501                     PWM2_16BIT_Slice1Output1_SetInterruptHandler@InterruptHandler:
   980                           	callstack 0
   981   000501                     PWM2_16BIT_Slice1Output2_SetInterruptHandler@InterruptHandler:
   982                           	callstack 0
   983   000501                     PWM2_16BIT_Period_SetInterruptHandler@InterruptHandler:
   984                           	callstack 0
   985   000501                     INT0_SetInterruptHandler@InterruptHandler:
   986                           	callstack 0
   987   000501                     INT1_SetInterruptHandler@InterruptHandler:
   988                           	callstack 0
   989   000501                     INT2_SetInterruptHandler@InterruptHandler:
   990                           	callstack 0
   991   000501                     vGPIO_Set@pu8GPIO_Port:
   992                           	callstack 0
   993   000501                     vGPIO_Reset@pu8GPIO_Port:
   994                           	callstack 0
   995   000501                     vSPI_Enable@psSPI_Handler:
   996                           	callstack 0
   997   000501                     vSPI_Disable@psSPI_Handler:
   998                           	callstack 0
   999   000501                     vSPI_ClearFIFOs@psSPI_Handler:
  1000                           	callstack 0
  1001   000501                     ___awdiv@dividend:
  1002                           	callstack 0
  1003   000501                     ___awmod@dividend:
  1004                           	callstack 0
  1005   000501                     __Exit@ec:
  1006                           	callstack 0
  1007   000501                     fputc@c:
  1008                           	callstack 0
  1009   000501                     ___xxtofl@val:
  1010                           	callstack 0
  1011   000501                     fabsf@x:
  1012                           	callstack 0
  1013                           
  1014                           ; 4 bytes @ 0x0
  1015   000501                     	ds	2
  1016   000503                     vGPIO_Set@u8GPIO_Pin:
  1017                           	callstack 0
  1018   000503                     vGPIO_Reset@u8GPIO_Pin:
  1019                           	callstack 0
  1020   000503                     ___awdiv@divisor:
  1021                           	callstack 0
  1022   000503                     ___awmod@divisor:
  1023                           	callstack 0
  1024   000503                     exit@code:
  1025                           	callstack 0
  1026   000503                     fputc@fp:
  1027                           	callstack 0
  1028                           
  1029                           ; 2 bytes @ 0x2
  1030   000503                     	ds	1
  1031   000504                     ??_vGPIO_Set:
  1032   000504                     ??_vGPIO_Reset:
  1033                           
  1034                           ; 1 bytes @ 0x3
  1035   000504                     	ds	1
  1036   000505                     ??_fputc:
  1037   000505                     ??___xxtofl:
  1038   000505                     ___awdiv@counter:
  1039                           	callstack 0
  1040   000505                     ___awmod@counter:
  1041                           	callstack 0
  1042   000505                     fabsf@u:
  1043                           	callstack 0
  1044                           
  1045                           ; 4 bytes @ 0x4
  1046   000505                     	ds	1
  1047   000506                     ___awdiv@sign:
  1048                           	callstack 0
  1049   000506                     ___awmod@sign:
  1050                           	callstack 0
  1051                           
  1052                           ; 1 bytes @ 0x5
  1053   000506                     	ds	1
  1054   000507                     ?_abs:
  1055                           	callstack 0
  1056   000507                     ___awdiv@quotient:
  1057                           	callstack 0
  1058   000507                     abs@a:
  1059                           	callstack 0
  1060                           
  1061                           ; 2 bytes @ 0x6
  1062   000507                     	ds	2
  1063   000509                     ??_abs:
  1064   000509                     ___xxtofl@sign:
  1065                           	callstack 0
  1066                           
  1067                           ; 1 bytes @ 0x8
  1068   000509                     	ds	1
  1069   00050A                     ___xxtofl@exp:
  1070                           	callstack 0
  1071                           
  1072                           ; 1 bytes @ 0x9
  1073   00050A                     	ds	1
  1074   00050B                     vfpfcnvrt@fp:
  1075                           	callstack 0
  1076   00050B                     ___xxtofl@arg:
  1077                           	callstack 0
  1078                           
  1079                           ; 4 bytes @ 0xA
  1080   00050B                     	ds	2
  1081   00050D                     vfpfcnvrt@fmt:
  1082                           	callstack 0
  1083                           
  1084                           ; 2 bytes @ 0xC
  1085   00050D                     	ds	2
  1086   00050F                     ?___flmul:
  1087                           	callstack 0
  1088   00050F                     vfpfcnvrt@ap:
  1089                           	callstack 0
  1090   00050F                     ___flmul@b:
  1091                           	callstack 0
  1092                           
  1093                           ; 4 bytes @ 0xE
  1094   00050F                     	ds	2
  1095   000511                     ??_vfpfcnvrt:
  1096                           
  1097                           ; 1 bytes @ 0x10
  1098   000511                     	ds	2
  1099   000513                     vfpfcnvrt@cp_1964:
  1100                           	callstack 0
  1101   000513                     ___flmul@a:
  1102                           	callstack 0
  1103                           
  1104                           ; 4 bytes @ 0x12
  1105   000513                     	ds	2
  1106   000515                     vfpfcnvrt@cp:
  1107                           	callstack 0
  1108                           
  1109                           ; 2 bytes @ 0x14
  1110   000515                     	ds	2
  1111   000517                     ??___flmul:
  1112   000517                     vfpfcnvrt@done:
  1113                           	callstack 0
  1114                           
  1115                           ; 1 bytes @ 0x16
  1116   000517                     	ds	1
  1117   000518                     vfpfcnvrt@convarg:
  1118                           	callstack 0
  1119                           
  1120                           ; 4 bytes @ 0x17
  1121   000518                     	ds	3
  1122   00051B                     ___flmul@sign:
  1123                           	callstack 0
  1124                           
  1125                           ; 1 bytes @ 0x1A
  1126   00051B                     	ds	1
  1127   00051C                     vfpfcnvrt@c:
  1128                           	callstack 0
  1129   00051C                     ___flmul@grs:
  1130                           	callstack 0
  1131                           
  1132                           ; 4 bytes @ 0x1B
  1133   00051C                     	ds	1
  1134   00051D                     ?_vfprintf:
  1135                           	callstack 0
  1136   00051D                     vfprintf@fp:
  1137                           	callstack 0
  1138                           
  1139                           ; 2 bytes @ 0x1C
  1140   00051D                     	ds	2
  1141   00051F                     vfprintf@fmt:
  1142                           	callstack 0
  1143                           
  1144                           ; 2 bytes @ 0x1E
  1145   00051F                     	ds	1
  1146   000520                     ___flmul@aexp:
  1147                           	callstack 0
  1148                           
  1149                           ; 1 bytes @ 0x1F
  1150   000520                     	ds	1
  1151   000521                     ___flmul@bexp:
  1152                           	callstack 0
  1153   000521                     vfprintf@ap:
  1154                           	callstack 0
  1155                           
  1156                           ; 2 bytes @ 0x20
  1157   000521                     	ds	1
  1158   000522                     ___flmul@prod:
  1159                           	callstack 0
  1160                           
  1161                           ; 4 bytes @ 0x21
  1162   000522                     	ds	1
  1163   000523                     vfprintf@cfmt:
  1164                           	callstack 0
  1165                           
  1166                           ; 2 bytes @ 0x22
  1167   000523                     	ds	2
  1168   000525                     ?_printf:
  1169                           	callstack 0
  1170   000525                     printf@fmt:
  1171                           	callstack 0
  1172                           
  1173                           ; 2 bytes @ 0x24
  1174   000525                     	ds	1
  1175   000526                     ___flmul@temp:
  1176                           	callstack 0
  1177                           
  1178                           ; 2 bytes @ 0x25
  1179   000526                     	ds	2
  1180   000528                     ?___fldiv:
  1181                           	callstack 0
  1182   000528                     ___fldiv@b:
  1183                           	callstack 0
  1184                           
  1185                           ; 4 bytes @ 0x27
  1186   000528                     	ds	4
  1187   00052C                     ___fldiv@a:
  1188                           	callstack 0
  1189                           
  1190                           ; 4 bytes @ 0x2B
  1191   00052C                     	ds	3
  1192   00052F                     printf@ap:
  1193                           	callstack 0
  1194                           
  1195                           ; 2 bytes @ 0x2E
  1196   00052F                     	ds	1
  1197   000530                     ??___fldiv:
  1198                           
  1199                           ; 1 bytes @ 0x2F
  1200   000530                     	ds	1
  1201   000531                     ___assert_fail@expr:
  1202                           	callstack 0
  1203                           
  1204                           ; 2 bytes @ 0x30
  1205   000531                     	ds	2
  1206   000533                     ___assert_fail@file:
  1207                           	callstack 0
  1208                           
  1209                           ; 2 bytes @ 0x32
  1210   000533                     	ds	1
  1211   000534                     ___fldiv@rem:
  1212                           	callstack 0
  1213                           
  1214                           ; 4 bytes @ 0x33
  1215   000534                     	ds	1
  1216   000535                     ___assert_fail@line:
  1217                           	callstack 0
  1218                           
  1219                           ; 2 bytes @ 0x34
  1220   000535                     	ds	2
  1221   000537                     ___assert_fail@func:
  1222                           	callstack 0
  1223                           
  1224                           ; 2 bytes @ 0x36
  1225   000537                     	ds	1
  1226   000538                     ___fldiv@sign:
  1227                           	callstack 0
  1228                           
  1229                           ; 1 bytes @ 0x37
  1230   000538                     	ds	1
  1231   000539                     s8SPI_Master_Init@psSPI_Handler:
  1232                           	callstack 0
  1233   000539                     ___fldiv@new_exp:
  1234                           	callstack 0
  1235                           
  1236                           ; 2 bytes @ 0x38
  1237   000539                     	ds	2
  1238   00053B                     s8SPI_Master_Init@psConfig:
  1239                           	callstack 0
  1240   00053B                     ___fldiv@grs:
  1241                           	callstack 0
  1242                           
  1243                           ; 4 bytes @ 0x3A
  1244   00053B                     	ds	2
  1245   00053D                     ??_s8SPI_Master_Init:
  1246                           
  1247                           ; 1 bytes @ 0x3C
  1248   00053D                     	ds	2
  1249   00053F                     ___fldiv@bexp:
  1250                           	callstack 0
  1251                           
  1252                           ; 1 bytes @ 0x3E
  1253   00053F                     	ds	1
  1254   000540                     ___fldiv@aexp:
  1255                           	callstack 0
  1256                           
  1257                           ; 1 bytes @ 0x3F
  1258   000540                     	ds	1
  1259   000541                     ?___fladd:
  1260                           	callstack 0
  1261   000541                     ___fladd@b:
  1262                           	callstack 0
  1263                           
  1264                           ; 4 bytes @ 0x40
  1265   000541                     	ds	4
  1266   000545                     ___fladd@a:
  1267                           	callstack 0
  1268                           
  1269                           ; 4 bytes @ 0x44
  1270   000545                     	ds	4
  1271   000549                     ??___fladd:
  1272                           
  1273                           ; 1 bytes @ 0x48
  1274   000549                     	ds	4
  1275   00054D                     ___fladd@signs:
  1276                           	callstack 0
  1277                           
  1278                           ; 1 bytes @ 0x4C
  1279   00054D                     	ds	1
  1280   00054E                     ___fladd@aexp:
  1281                           	callstack 0
  1282                           
  1283                           ; 1 bytes @ 0x4D
  1284   00054E                     	ds	1
  1285   00054F                     ___fladd@bexp:
  1286                           	callstack 0
  1287                           
  1288                           ; 1 bytes @ 0x4E
  1289   00054F                     	ds	1
  1290   000550                     ___fladd@grs:
  1291                           	callstack 0
  1292                           
  1293                           ; 1 bytes @ 0x4F
  1294   000550                     	ds	1
  1295   000551                     ?___flsub:
  1296                           	callstack 0
  1297   000551                     ?___sindf:
  1298                           	callstack 0
  1299   000551                     ?___cosdf:
  1300                           	callstack 0
  1301   000551                     ?___fltol:
  1302                           	callstack 0
  1303   000551                     ___fltol@f1:
  1304                           	callstack 0
  1305   000551                     ___flsub@b:
  1306                           	callstack 0
  1307   000551                     ___cosdf@x:
  1308                           	callstack 0
  1309   000551                     ___sindf@x:
  1310                           	callstack 0
  1311                           
  1312                           ; 4 bytes @ 0x50
  1313   000551                     	ds	4
  1314   000555                     ??___fltol:
  1315   000555                     ___flsub@a:
  1316                           	callstack 0
  1317                           
  1318                           ; 4 bytes @ 0x54
  1319   000555                     	ds	4
  1320   000559                     ___fltol@sign1:
  1321                           	callstack 0
  1322                           
  1323                           ; 1 bytes @ 0x58
  1324   000559                     	ds	1
  1325   00055A                     ___fltol@exp1:
  1326                           	callstack 0
  1327                           
  1328                           ; 1 bytes @ 0x59
  1329   00055A                     	ds	1
  1330   00055B                     ??___rem_pio2f:
  1331                           
  1332                           ; 1 bytes @ 0x5A
  1333   00055B                     	ds	2
  1334   00055D                     
  1335                           ; 1 bytes @ 0x5C
  1336 ;;
  1337 ;;Main: autosize = 0, tempsize = 4, incstack = 0, save=0
  1338 ;;
  1339 ;; *************** function _main *****************
  1340 ;; Defined at:
  1341 ;;		line 61 in file "main.c"
  1342 ;; Parameters:    Size  Location     Type
  1343 ;;		None
  1344 ;; Auto vars:     Size  Location     Type
  1345 ;;  u32CounterA     4  133[BANK5 ] unsigned long 
  1346 ;;  u32CurrentSa    4  129[BANK5 ] unsigned long 
  1347 ;;  sConfig         4  125[BANK5 ] const struct .
  1348 ;;  u32CounterB     4  121[BANK5 ] unsigned long 
  1349 ;;  u8Direction     1  138[BANK5 ] unsigned char 
  1350 ;;  u8Light         1  137[BANK5 ] unsigned char 
  1351 ;; Return value:  Size  Location     Type
  1352 ;;                  2  587[None  ] int 
  1353 ;; Registers used:
  1354 ;;		wreg, fsr0l, fsr0h, fsr1l, fsr1h, fsr2l, fsr2h, status,2, status,0, tblptrl, tblptrh, tblptru, prodl, prodh, cstack
  1355 ;; Tracked objects:
  1356 ;;		On entry : 0/0
  1357 ;;		On exit  : 0/0
  1358 ;;		Unchanged: 0/0
  1359 ;; Data sizes:     COMRAM   BANK5   BANK6   BANK7   BANK8   BANK9  BANK10  BANK11  BANK12
  1360 ;;      Params:         0       0       0       0       0       0       0       0       0
  1361 ;;      Locals:         0      18       0       0       0       0       0       0       0
  1362 ;;      Temps:          0       4       0       0       0       0       0       0       0
  1363 ;;      Totals:         0      22       0       0       0       0       0       0       0
  1364 ;;Total ram usage:       22 bytes
  1365 ;; Hardware stack levels required when called: 7
  1366 ;; This function calls:
  1367 ;;		_DAC1_Initialize
  1368 ;;		_DAC1_SetOutput
  1369 ;;		_SYSTEM_Initialize
  1370 ;;		_s8SPI_Master_Init
  1371 ;;		_vGPIO_Reset
  1372 ;;		_vGPIO_Set
  1373 ;;		_vGenerateSinus
  1374 ;;		_vRGB_GPIO_Init
  1375 ;; This function is called by:
  1376 ;;		Startup code after reset
  1377 ;; This function uses a non-reentrant model
  1378 ;;
  1379                           
  1380                           	psect	text0
  1381   00618E                     __ptext0:
  1382                           	callstack 0
  1383   00618E                     _main:
  1384                           	callstack 120
  1385   00618E                     
  1386                           ;main.c: 63:     SYSTEM_Initialize();
  1387   00618E  EC92  F029         	call	_SYSTEM_Initialize	;wreg free
  1388   006192                     
  1389                           ;main.c: 65:     static uint8_t au8SinusWave[100];;main.c: 66:     vGenerateSinus((uint8
      +                          _t*)au8SinusWave, 100, 2047, 2048);
  1390   006192  0E26               	movlw	low main@au8SinusWave
  1391   006194  0105               	movlb	5	; () banked
  1392   006196  6FB5               	movwf	vGenerateSinus@pu8OutputArray& (0+255),b
  1393   006198  0E06               	movlw	high main@au8SinusWave
  1394   00619A  6FB6               	movwf	(vGenerateSinus@pu8OutputArray+1)& (0+255),b
  1395   00619C  0E64               	movlw	100
  1396   00619E  6FB7               	movwf	vGenerateSinus@u32Samples& (0+255),b
  1397   0061A0  0E00               	movlw	0
  1398   0061A2  6FB8               	movwf	(vGenerateSinus@u32Samples+1)& (0+255),b
  1399   0061A4  0E00               	movlw	0
  1400   0061A6  6FB9               	movwf	(vGenerateSinus@u32Samples+2)& (0+255),b
  1401   0061A8  0E00               	movlw	0
  1402   0061AA  6FBA               	movwf	(vGenerateSinus@u32Samples+3)& (0+255),b
  1403   0061AC  0EFF               	movlw	255
  1404   0061AE  6FBB               	movwf	vGenerateSinus@u32Amplitude& (0+255),b
  1405   0061B0  0E07               	movlw	7
  1406   0061B2  6FBC               	movwf	(vGenerateSinus@u32Amplitude+1)& (0+255),b
  1407   0061B4  0E00               	movlw	0
  1408   0061B6  6FBD               	movwf	(vGenerateSinus@u32Amplitude+2)& (0+255),b
  1409   0061B8  0E00               	movlw	0
  1410   0061BA  6FBE               	movwf	(vGenerateSinus@u32Amplitude+3)& (0+255),b
  1411   0061BC  0E00               	movlw	0
  1412   0061BE  6FBF               	movwf	vGenerateSinus@u32Offset& (0+255),b
  1413   0061C0  0E08               	movlw	8
  1414   0061C2  6FC0               	movwf	(vGenerateSinus@u32Offset+1)& (0+255),b
  1415   0061C4  0E00               	movlw	0
  1416   0061C6  6FC1               	movwf	(vGenerateSinus@u32Offset+2)& (0+255),b
  1417   0061C8  0E00               	movlw	0
  1418   0061CA  6FC2               	movwf	(vGenerateSinus@u32Offset+3)& (0+255),b
  1419   0061CC  ECE9  F02E         	call	_vGenerateSinus	;wreg free
  1420   0061D0                     
  1421                           ;main.c: 67:     DAC1_Initialize();
  1422   0061D0  EC59  F029         	call	_DAC1_Initialize	;wreg free
  1423   0061D4                     
  1424                           ;main.c: 69:     vRGB_GPIO_Init();
  1425   0061D4  EC89  F029         	call	_vRGB_GPIO_Init	;wreg free
  1426   0061D8                     
  1427                           ;main.c: 71:     sSPI_Config const sConfig = {
  1428   0061D8  C694  F5DD         	movff	main@F14137,main@sConfig
  1429   0061DC  C695  F5DE         	movff	main@F14137+1,main@sConfig+1
  1430   0061E0  C696  F5DF         	movff	main@F14137+2,main@sConfig+2
  1431   0061E4  C697  F5E0         	movff	main@F14137+3,main@sConfig+3
  1432   0061E8                     
  1433                           ;main.c: 78:     s8SPI_Master_Init(((sSPI_Handler_t* const) (0x00000080)), &sConfig);
  1434   0061E8  0E80               	movlw	128
  1435   0061EA  6E39               	movwf	s8SPI_Master_Init@psSPI_Handler^(0+1280),c
  1436   0061EC  0E00               	movlw	0
  1437   0061EE  6E3A               	movwf	(s8SPI_Master_Init@psSPI_Handler+1)^(0+1280),c
  1438   0061F0  0EDD               	movlw	low main@sConfig
  1439   0061F2  6E3B               	movwf	s8SPI_Master_Init@psConfig^(0+1280),c
  1440   0061F4  0E05               	movlw	high main@sConfig
  1441   0061F6  6E3C               	movwf	(s8SPI_Master_Init@psConfig+1)^(0+1280),c
  1442   0061F8  EC46  F02D         	call	_s8SPI_Master_Init	;wreg free
  1443   0061FC                     
  1444                           ;main.c: 90:     uint32_t u32CurrentSample = 0;
  1445   0061FC  0E00               	movlw	0
  1446   0061FE  0105               	movlb	5	; () banked
  1447   006200  6FE1               	movwf	main@u32CurrentSample& (0+255),b
  1448   006202  0E00               	movlw	0
  1449   006204  6FE2               	movwf	(main@u32CurrentSample+1)& (0+255),b
  1450   006206  0E00               	movlw	0
  1451   006208  6FE3               	movwf	(main@u32CurrentSample+2)& (0+255),b
  1452   00620A  0E00               	movlw	0
  1453   00620C  6FE4               	movwf	(main@u32CurrentSample+3)& (0+255),b
  1454   00620E                     
  1455                           ; BSR set to: 5
  1456                           ;main.c: 92:     uint8_t u8Light = 0;
  1457   00620E  0E00               	movlw	0
  1458   006210  6FE9               	movwf	main@u8Light& (0+255),b
  1459   006212                     
  1460                           ; BSR set to: 5
  1461                           ;main.c: 93:     uint8_t u8Direction = 0;
  1462   006212  0E00               	movlw	0
  1463   006214  6FEA               	movwf	main@u8Direction& (0+255),b
  1464   006216                     
  1465                           ; BSR set to: 5
  1466                           ;main.c: 94:     uint32_t u32CounterA = 0;
  1467   006216  0E00               	movlw	0
  1468   006218  6FE5               	movwf	main@u32CounterA& (0+255),b
  1469   00621A  0E00               	movlw	0
  1470   00621C  6FE6               	movwf	(main@u32CounterA+1)& (0+255),b
  1471   00621E  0E00               	movlw	0
  1472   006220  6FE7               	movwf	(main@u32CounterA+2)& (0+255),b
  1473   006222  0E00               	movlw	0
  1474   006224  6FE8               	movwf	(main@u32CounterA+3)& (0+255),b
  1475   006226                     
  1476                           ; BSR set to: 5
  1477                           ;main.c: 95:     uint32_t u32CounterB = 0;
  1478   006226  0E00               	movlw	0
  1479   006228  6FD9               	movwf	main@u32CounterB& (0+255),b
  1480   00622A  0E00               	movlw	0
  1481   00622C  6FDA               	movwf	(main@u32CounterB+1)& (0+255),b
  1482   00622E  0E00               	movlw	0
  1483   006230  6FDB               	movwf	(main@u32CounterB+2)& (0+255),b
  1484   006232  0E00               	movlw	0
  1485   006234  6FDC               	movwf	(main@u32CounterB+3)& (0+255),b
  1486   006236                     l4243:
  1487                           
  1488                           ; BSR set to: 5
  1489                           ;main.c: 97:     {;main.c: 99:         if(u32CounterA < u8Light)
  1490   006236  C5E9  F5D5         	movff	main@u8Light,??_main
  1491   00623A  6BD6               	clrf	(??_main+1)& (0+255),b
  1492   00623C  6BD7               	clrf	(??_main+2)& (0+255),b
  1493   00623E  6BD8               	clrf	(??_main+3)& (0+255),b
  1494   006240  51D5               	movf	??_main& (0+255),w,b
  1495   006242  5DE5               	subwf	main@u32CounterA& (0+255),w,b
  1496   006244  51D6               	movf	(??_main+1)& (0+255),w,b
  1497   006246  59E6               	subwfb	(main@u32CounterA+1)& (0+255),w,b
  1498   006248  51D7               	movf	(??_main+2)& (0+255),w,b
  1499   00624A  59E7               	subwfb	(main@u32CounterA+2)& (0+255),w,b
  1500   00624C  51D8               	movf	(??_main+3)& (0+255),w,b
  1501   00624E  59E8               	subwfb	(main@u32CounterA+3)& (0+255),w,b
  1502   006250  B0D8               	btfsc	status,0,c
  1503   006252  EF2D  F031         	goto	u4151
  1504   006256  EF2F  F031         	goto	u4150
  1505   00625A                     u4151:
  1506   00625A  EF41  F031         	goto	l4247
  1507   00625E                     u4150:
  1508   00625E                     
  1509                           ; BSR set to: 5
  1510                           ;main.c: 100:         {;main.c: 101:             vGPIO_Set(&PORTB, 7U);
  1511   00625E  0ECF               	movlw	207
  1512   006260  6E01               	movwf	vGPIO_Set@pu8GPIO_Port^(0+1280),c
  1513   006262  0E04               	movlw	4
  1514   006264  6E02               	movwf	(vGPIO_Set@pu8GPIO_Port+1)^(0+1280),c
  1515   006266  0E07               	movlw	7
  1516   006268  6E03               	movwf	vGPIO_Set@u8GPIO_Pin^(0+1280),c
  1517   00626A  ECCE  F029         	call	_vGPIO_Set	;wreg free
  1518                           
  1519                           ;main.c: 102:             vGPIO_Reset(&PORTB, 6U);
  1520   00626E  0ECF               	movlw	207
  1521   006270  6E01               	movwf	vGPIO_Reset@pu8GPIO_Port^(0+1280),c
  1522   006272  0E04               	movlw	4
  1523   006274  6E02               	movwf	(vGPIO_Reset@pu8GPIO_Port+1)^(0+1280),c
  1524   006276  0E06               	movlw	6
  1525   006278  6E03               	movwf	vGPIO_Reset@u8GPIO_Pin^(0+1280),c
  1526   00627A  ECE1  F029         	call	_vGPIO_Reset	;wreg free
  1527                           
  1528                           ;main.c: 103:         }
  1529   00627E  EF51  F031         	goto	l4249
  1530   006282                     l4247:
  1531                           
  1532                           ; BSR set to: 5
  1533                           ;main.c: 105:         {;main.c: 106:             vGPIO_Reset(&PORTB, 7U);
  1534   006282  0ECF               	movlw	207
  1535   006284  6E01               	movwf	vGPIO_Reset@pu8GPIO_Port^(0+1280),c
  1536   006286  0E04               	movlw	4
  1537   006288  6E02               	movwf	(vGPIO_Reset@pu8GPIO_Port+1)^(0+1280),c
  1538   00628A  0E07               	movlw	7
  1539   00628C  6E03               	movwf	vGPIO_Reset@u8GPIO_Pin^(0+1280),c
  1540   00628E  ECE1  F029         	call	_vGPIO_Reset	;wreg free
  1541                           
  1542                           ;main.c: 107:             vGPIO_Set(&PORTB, 6U);
  1543   006292  0ECF               	movlw	207
  1544   006294  6E01               	movwf	vGPIO_Set@pu8GPIO_Port^(0+1280),c
  1545   006296  0E04               	movlw	4
  1546   006298  6E02               	movwf	(vGPIO_Set@pu8GPIO_Port+1)^(0+1280),c
  1547   00629A  0E06               	movlw	6
  1548   00629C  6E03               	movwf	vGPIO_Set@u8GPIO_Pin^(0+1280),c
  1549   00629E  ECCE  F029         	call	_vGPIO_Set	;wreg free
  1550   0062A2                     l4249:
  1551                           
  1552                           ;main.c: 111:         if(++u32CounterA > 10)
  1553   0062A2  0E01               	movlw	1
  1554   0062A4  0105               	movlb	5	; () banked
  1555   0062A6  27E5               	addwf	main@u32CounterA& (0+255),f,b
  1556   0062A8  0E00               	movlw	0
  1557   0062AA  23E6               	addwfc	(main@u32CounterA+1)& (0+255),f,b
  1558   0062AC  23E7               	addwfc	(main@u32CounterA+2)& (0+255),f,b
  1559   0062AE  23E8               	addwfc	(main@u32CounterA+3)& (0+255),f,b
  1560   0062B0  51E8               	movf	(main@u32CounterA+3)& (0+255),w,b
  1561   0062B2  11E7               	iorwf	(main@u32CounterA+2)& (0+255),w,b
  1562   0062B4  11E6               	iorwf	(main@u32CounterA+1)& (0+255),w,b
  1563   0062B6  E109               	bnz	u4160
  1564   0062B8  0E0B               	movlw	11
  1565   0062BA  5DE5               	subwf	main@u32CounterA& (0+255),w,b
  1566   0062BC  A0D8               	btfss	status,0,c
  1567   0062BE  EF63  F031         	goto	u4161
  1568   0062C2  EF65  F031         	goto	u4160
  1569   0062C6                     u4161:
  1570   0062C6  EFAB  F031         	goto	l4263
  1571   0062CA                     u4160:
  1572   0062CA                     
  1573                           ; BSR set to: 5
  1574                           ;main.c: 112:         {;main.c: 113:             u32CounterA = 0;
  1575   0062CA  0E00               	movlw	0
  1576   0062CC  6FE5               	movwf	main@u32CounterA& (0+255),b
  1577   0062CE  0E00               	movlw	0
  1578   0062D0  6FE6               	movwf	(main@u32CounterA+1)& (0+255),b
  1579   0062D2  0E00               	movlw	0
  1580   0062D4  6FE7               	movwf	(main@u32CounterA+2)& (0+255),b
  1581   0062D6  0E00               	movlw	0
  1582   0062D8  6FE8               	movwf	(main@u32CounterA+3)& (0+255),b
  1583   0062DA                     
  1584                           ; BSR set to: 5
  1585                           ;main.c: 114:             if(++u32CounterB > 0x2000)
  1586   0062DA  0E01               	movlw	1
  1587   0062DC  27D9               	addwf	main@u32CounterB& (0+255),f,b
  1588   0062DE  0E00               	movlw	0
  1589   0062E0  23DA               	addwfc	(main@u32CounterB+1)& (0+255),f,b
  1590   0062E2  23DB               	addwfc	(main@u32CounterB+2)& (0+255),f,b
  1591   0062E4  23DC               	addwfc	(main@u32CounterB+3)& (0+255),f,b
  1592   0062E6  51DC               	movf	(main@u32CounterB+3)& (0+255),w,b
  1593   0062E8  11DB               	iorwf	(main@u32CounterB+2)& (0+255),w,b
  1594   0062EA  E10A               	bnz	u4170
  1595   0062EC  05D9               	decf	main@u32CounterB& (0+255),w,b
  1596   0062EE  0E20               	movlw	32
  1597   0062F0  59DA               	subwfb	(main@u32CounterB+1)& (0+255),w,b
  1598   0062F2  A0D8               	btfss	status,0,c
  1599   0062F4  EF7E  F031         	goto	u4171
  1600   0062F8  EF80  F031         	goto	u4170
  1601   0062FC                     u4171:
  1602   0062FC  EFAB  F031         	goto	l4263
  1603   006300                     u4170:
  1604   006300                     
  1605                           ; BSR set to: 5
  1606                           ;main.c: 115:             {;main.c: 116:                 u32CounterB = 0;
  1607   006300  0E00               	movlw	0
  1608   006302  6FD9               	movwf	main@u32CounterB& (0+255),b
  1609   006304  0E00               	movlw	0
  1610   006306  6FDA               	movwf	(main@u32CounterB+1)& (0+255),b
  1611   006308  0E00               	movlw	0
  1612   00630A  6FDB               	movwf	(main@u32CounterB+2)& (0+255),b
  1613   00630C  0E00               	movlw	0
  1614   00630E  6FDC               	movwf	(main@u32CounterB+3)& (0+255),b
  1615                           
  1616                           ;main.c: 117:                 if(u8Direction == 0)
  1617   006310  51EA               	movf	main@u8Direction& (0+255),w,b
  1618   006312  A4D8               	btfss	status,2,c
  1619   006314  EF8E  F031         	goto	u4181
  1620   006318  EF90  F031         	goto	u4180
  1621   00631C                     u4181:
  1622   00631C  EFA6  F031         	goto	l597
  1623   006320                     u4180:
  1624   006320                     
  1625                           ; BSR set to: 5
  1626                           ;main.c: 118:                 {;main.c: 119:                     if(++u8Light > 10)
  1627   006320  2BE9               	incf	main@u8Light& (0+255),f,b
  1628   006322  0E0A               	movlw	10
  1629   006324  65E9               	cpfsgt	main@u8Light& (0+255),b
  1630   006326  EF97  F031         	goto	u4191
  1631   00632A  EF99  F031         	goto	u4190
  1632   00632E                     u4191:
  1633   00632E  EFAB  F031         	goto	l596
  1634   006332                     u4190:
  1635   006332                     l4259:
  1636                           
  1637                           ; BSR set to: 5
  1638                           ;main.c: 120:                     {;main.c: 121:                         u8Direction = !
      +                          u8Direction;
  1639   006332  51EA               	movf	main@u8Direction& (0+255),w,b
  1640   006334  B4D8               	btfsc	status,2,c
  1641   006336  EF9F  F031         	goto	u4201
  1642   00633A  EFA2  F031         	goto	u4200
  1643   00633E                     u4201:
  1644   00633E  0E01               	movlw	1
  1645   006340  EFA3  F031         	goto	u4210
  1646   006344                     u4200:
  1647   006344  0E00               	movlw	0
  1648   006346                     u4210:
  1649   006346  6FEA               	movwf	main@u8Direction& (0+255),b
  1650   006348  EFAB  F031         	goto	l4263
  1651   00634C                     l597:
  1652                           
  1653                           ; BSR set to: 5
  1654                           ;main.c: 125:                 {;main.c: 126:                     if(--u8Light == 0)
  1655   00634C  2FE9               	decfsz	main@u8Light& (0+255),f,b
  1656   00634E  EFAB  F031         	goto	l596
  1657   006352  EF99  F031         	goto	l4259
  1658   006356                     l596:
  1659   006356                     l4263:
  1660                           
  1661                           ; BSR set to: 5
  1662                           ;main.c: 135:         DAC1_SetOutput(au8SinusWave[u32CurrentSample]);
  1663   006356  0E26               	movlw	low main@au8SinusWave
  1664   006358  25E1               	addwf	main@u32CurrentSample& (0+255),w,b
  1665   00635A  6ED9               	movwf	fsr2l,c
  1666   00635C  0E06               	movlw	high main@au8SinusWave
  1667   00635E  21E2               	addwfc	(main@u32CurrentSample+1)& (0+255),w,b
  1668   006360  6EDA               	movwf	fsr2h,c
  1669   006362  50DF               	movf	indf2,w,c
  1670   006364  EC28  F029         	call	_DAC1_SetOutput
  1671   006368                     
  1672                           ;main.c: 136:         if(++u32CurrentSample > 100)
  1673   006368  0E01               	movlw	1
  1674   00636A  0105               	movlb	5	; () banked
  1675   00636C  27E1               	addwf	main@u32CurrentSample& (0+255),f,b
  1676   00636E  0E00               	movlw	0
  1677   006370  23E2               	addwfc	(main@u32CurrentSample+1)& (0+255),f,b
  1678   006372  23E3               	addwfc	(main@u32CurrentSample+2)& (0+255),f,b
  1679   006374  23E4               	addwfc	(main@u32CurrentSample+3)& (0+255),f,b
  1680   006376  51E4               	movf	(main@u32CurrentSample+3)& (0+255),w,b
  1681   006378  11E3               	iorwf	(main@u32CurrentSample+2)& (0+255),w,b
  1682   00637A  11E2               	iorwf	(main@u32CurrentSample+1)& (0+255),w,b
  1683   00637C  E109               	bnz	u4220
  1684   00637E  0E65               	movlw	101
  1685   006380  5DE1               	subwf	main@u32CurrentSample& (0+255),w,b
  1686   006382  A0D8               	btfss	status,0,c
  1687   006384  EFC6  F031         	goto	u4221
  1688   006388  EFC8  F031         	goto	u4220
  1689   00638C                     u4221:
  1690   00638C  EF1B  F031         	goto	l4243
  1691   006390                     u4220:
  1692   006390                     
  1693                           ; BSR set to: 5
  1694                           ;main.c: 137:         {;main.c: 138:             u32CurrentSample = 0;
  1695   006390  0E00               	movlw	0
  1696   006392  6FE1               	movwf	main@u32CurrentSample& (0+255),b
  1697   006394  0E00               	movlw	0
  1698   006396  6FE2               	movwf	(main@u32CurrentSample+1)& (0+255),b
  1699   006398  0E00               	movlw	0
  1700   00639A  6FE3               	movwf	(main@u32CurrentSample+2)& (0+255),b
  1701   00639C  0E00               	movlw	0
  1702   00639E  6FE4               	movwf	(main@u32CurrentSample+3)& (0+255),b
  1703   0063A0  EF1B  F031         	goto	l4243
  1704   0063A4  EFFE  F03F         	goto	start
  1705   0063A8                     __end_of_main:
  1706                           	callstack 0
  1707                           
  1708 ;; *************** function _vRGB_GPIO_Init *****************
  1709 ;; Defined at:
  1710 ;;		line 152 in file "main.c"
  1711 ;; Parameters:    Size  Location     Type
  1712 ;;		None
  1713 ;; Auto vars:     Size  Location     Type
  1714 ;;		None
  1715 ;; Return value:  Size  Location     Type
  1716 ;;                  1    wreg      void 
  1717 ;; Registers used:
  1718 ;;		wreg, status,2, status,0
  1719 ;; Tracked objects:
  1720 ;;		On entry : 0/0
  1721 ;;		On exit  : 0/0
  1722 ;;		Unchanged: 0/0
  1723 ;; Data sizes:     COMRAM   BANK5   BANK6   BANK7   BANK8   BANK9  BANK10  BANK11  BANK12
  1724 ;;      Params:         0       0       0       0       0       0       0       0       0
  1725 ;;      Locals:         0       0       0       0       0       0       0       0       0
  1726 ;;      Temps:          0       0       0       0       0       0       0       0       0
  1727 ;;      Totals:         0       0       0       0       0       0       0       0       0
  1728 ;;Total ram usage:        0 bytes
  1729 ;; Hardware stack levels used: 1
  1730 ;; This function calls:
  1731 ;;		Nothing
  1732 ;; This function is called by:
  1733 ;;		_main
  1734 ;; This function uses a non-reentrant model
  1735 ;;
  1736                           
  1737                           	psect	text1
  1738   005312                     __ptext1:
  1739                           	callstack 0
  1740   005312                     _vRGB_GPIO_Init:
  1741                           	callstack 126
  1742   005312                     
  1743                           ;main.c: 154:     TRISB &= ~(1U << 7U);
  1744   005312  9EC7               	bcf	199,7,c	;volatile
  1745                           
  1746                           ;main.c: 155:     TRISB &= ~(1U << 6U);
  1747   005314  9CC7               	bcf	199,6,c	;volatile
  1748                           
  1749                           ;main.c: 156:     TRISB &= ~(1U << 5U);
  1750   005316  9AC7               	bcf	199,5,c	;volatile
  1751   005318                     
  1752                           ;main.c: 157:     WPUB = 0;
  1753   005318  0E00               	movlw	0
  1754   00531A  0104               	movlb	4	; () banked
  1755   00531C  6F09               	movwf	9,b	;volatile
  1756   00531E                     
  1757                           ; BSR set to: 4
  1758                           ;main.c: 158:     ODCONB = 0;
  1759   00531E  0E00               	movlw	0
  1760   005320  6F0A               	movwf	10,b	;volatile
  1761   005322                     
  1762                           ; BSR set to: 4
  1763   005322  0012               	return		;funcret
  1764   005324                     __end_of_vRGB_GPIO_Init:
  1765                           	callstack 0
  1766                           
  1767 ;; *************** function _vGenerateSinus *****************
  1768 ;; Defined at:
  1769 ;;		line 173 in file "main.c"
  1770 ;; Parameters:    Size  Location     Type
  1771 ;;  pu8OutputArr    2   85[BANK5 ] const PTR unsigned char 
  1772 ;;		 -> main@au8SinusWave(100), 
  1773 ;;  u32Samples      4   87[BANK5 ] unsigned long 
  1774 ;;  u32Amplitude    4   91[BANK5 ] unsigned long 
  1775 ;;  u32Offset       4   95[BANK5 ] unsigned long 
  1776 ;; Auto vars:     Size  Location     Type
  1777 ;;  i               2  115[BANK5 ] int 
  1778 ;; Return value:  Size  Location     Type
  1779 ;;                  1    wreg      void 
  1780 ;; Registers used:
  1781 ;;		wreg, fsr2l, fsr2h, status,2, status,0, prodl, prodh, cstack
  1782 ;; Tracked objects:
  1783 ;;		On entry : 0/0
  1784 ;;		On exit  : 0/0
  1785 ;;		Unchanged: 0/0
  1786 ;; Data sizes:     COMRAM   BANK5   BANK6   BANK7   BANK8   BANK9  BANK10  BANK11  BANK12
  1787 ;;      Params:         0      14       0       0       0       0       0       0       0
  1788 ;;      Locals:         0      14       0       0       0       0       0       0       0
  1789 ;;      Temps:          0       4       0       0       0       0       0       0       0
  1790 ;;      Totals:         0      32       0       0       0       0       0       0       0
  1791 ;;Total ram usage:       32 bytes
  1792 ;; Hardware stack levels used: 1
  1793 ;; Hardware stack levels required when called: 4
  1794 ;; This function calls:
  1795 ;;		___fladd
  1796 ;;		___fldiv
  1797 ;;		___flmul
  1798 ;;		___fltol
  1799 ;;		___xxtofl
  1800 ;;		_sinf
  1801 ;; This function is called by:
  1802 ;;		_main
  1803 ;; This function uses a non-reentrant model
  1804 ;;
  1805                           
  1806                           	psect	text2
  1807   005DD2                     __ptext2:
  1808                           	callstack 0
  1809   005DD2                     _vGenerateSinus:
  1810                           	callstack 122
  1811   005DD2                     
  1812                           ;main.c: 173: static void vGenerateSinus(uint8_t* const pu8OutputArray, uint32_t u32Samp
      +                          les, uint32_t u32Amplitude, uint32_t u32Offset);main.c: 174: {;main.c: 175:     static d
      +                          ouble const PI = 3.14159265;;main.c: 176:     for (int i = 0; i < u32Samples; ++i)
  1813   005DD2  0E00               	movlw	0
  1814   005DD4  0105               	movlb	5	; () banked
  1815   005DD6  6FD4               	movwf	(vGenerateSinus@i+1)& (0+255),b
  1816   005DD8  0E00               	movlw	0
  1817   005DDA  6FD3               	movwf	vGenerateSinus@i& (0+255),b
  1818   005DDC  EFAF  F02F         	goto	l4111
  1819   005DE0                     l4101:
  1820                           
  1821                           ; BSR set to: 5
  1822                           ;main.c: 177:     {;main.c: 178:         pu8OutputArray[i] = (uint8_t)(u32Amplitude * (1
      +                           + sinf(2 * PI * i / u32Samples)) + u32Offset);
  1823   005DE0  C5B7  F501         	movff	vGenerateSinus@u32Samples,___xxtofl@val
  1824   005DE4  C5B8  F502         	movff	vGenerateSinus@u32Samples+1,___xxtofl@val+1
  1825   005DE8  C5B9  F503         	movff	vGenerateSinus@u32Samples+2,___xxtofl@val+2
  1826   005DEC  C5BA  F504         	movff	vGenerateSinus@u32Samples+3,___xxtofl@val+3
  1827   005DF0  0E00               	movlw	0
  1828   005DF2  EC0F  F02E         	call	___xxtofl
  1829   005DF6  C501  F52C         	movff	?___xxtofl,___fldiv@a
  1830   005DFA  C502  F52D         	movff	?___xxtofl+1,___fldiv@a+1
  1831   005DFE  C503  F52E         	movff	?___xxtofl+2,___fldiv@a+2
  1832   005E02  C504  F52F         	movff	?___xxtofl+3,___fldiv@a+3
  1833   005E06  0EDB               	movlw	219
  1834   005E08  6E13               	movwf	___flmul@a^(0+1280),c
  1835   005E0A  0E0F               	movlw	15
  1836   005E0C  6E14               	movwf	(___flmul@a+1)^(0+1280),c
  1837   005E0E  0EC9               	movlw	201
  1838   005E10  6E15               	movwf	(___flmul@a+2)^(0+1280),c
  1839   005E12  0E40               	movlw	64
  1840   005E14  6E16               	movwf	(___flmul@a+3)^(0+1280),c
  1841   005E16  C5D3  F501         	movff	vGenerateSinus@i,___xxtofl@val
  1842   005E1A  C5D4  F502         	movff	vGenerateSinus@i+1,___xxtofl@val+1
  1843   005E1E  0E00               	movlw	0
  1844   005E20  BE02               	btfsc	(___xxtofl@val+1)^(0+1280),7,c
  1845   005E22  0EFF               	movlw	-1
  1846   005E24  6E03               	movwf	(___xxtofl@val+2)^(0+1280),c
  1847   005E26  6E04               	movwf	(___xxtofl@val+3)^(0+1280),c
  1848   005E28  0E01               	movlw	1
  1849   005E2A  EC0F  F02E         	call	___xxtofl
  1850   005E2E  C501  F50F         	movff	?___xxtofl,___flmul@b
  1851   005E32  C502  F510         	movff	?___xxtofl+1,___flmul@b+1
  1852   005E36  C503  F511         	movff	?___xxtofl+2,___flmul@b+2
  1853   005E3A  C504  F512         	movff	?___xxtofl+3,___flmul@b+3
  1854   005E3E  EC65  F038         	call	___flmul	;wreg free
  1855   005E42  C50F  F528         	movff	?___flmul,___fldiv@b
  1856   005E46  C510  F529         	movff	?___flmul+1,___fldiv@b+1
  1857   005E4A  C511  F52A         	movff	?___flmul+2,___fldiv@b+2
  1858   005E4E  C512  F52B         	movff	?___flmul+3,___fldiv@b+3
  1859   005E52  ECB3  F034         	call	___fldiv	;wreg free
  1860   005E56  C528  F5C7         	movff	?___fldiv,_vGenerateSinus$2374
  1861   005E5A  C529  F5C8         	movff	?___fldiv+1,_vGenerateSinus$2374+1
  1862   005E5E  C52A  F5C9         	movff	?___fldiv+2,_vGenerateSinus$2374+2
  1863   005E62  C52B  F5CA         	movff	?___fldiv+3,_vGenerateSinus$2374+3
  1864   005E66                     
  1865                           ;main.c: 177:     {;main.c: 178:         pu8OutputArray[i] = (uint8_t)(u32Amplitude * (1
      +                           + sinf(2 * PI * i / u32Samples)) + u32Offset);
  1866   005E66  C5C7  F59B         	movff	_vGenerateSinus$2374,sinf@x
  1867   005E6A  C5C8  F59C         	movff	_vGenerateSinus$2374+1,sinf@x+1
  1868   005E6E  C5C9  F59D         	movff	_vGenerateSinus$2374+2,sinf@x+2
  1869   005E72  C5CA  F59E         	movff	_vGenerateSinus$2374+3,sinf@x+3
  1870   005E76  ECDA  F03C         	call	_sinf	;wreg free
  1871   005E7A  C59B  F5CB         	movff	?_sinf,_vGenerateSinus$2375
  1872   005E7E  C59C  F5CC         	movff	?_sinf+1,_vGenerateSinus$2375+1
  1873   005E82  C59D  F5CD         	movff	?_sinf+2,_vGenerateSinus$2375+2
  1874   005E86  C59E  F5CE         	movff	?_sinf+3,_vGenerateSinus$2375+3
  1875   005E8A                     
  1876                           ;main.c: 177:     {;main.c: 178:         pu8OutputArray[i] = (uint8_t)(u32Amplitude * (1
      +                           + sinf(2 * PI * i / u32Samples)) + u32Offset);
  1877   005E8A  C5BB  F501         	movff	vGenerateSinus@u32Amplitude,___xxtofl@val
  1878   005E8E  C5BC  F502         	movff	vGenerateSinus@u32Amplitude+1,___xxtofl@val+1
  1879   005E92  C5BD  F503         	movff	vGenerateSinus@u32Amplitude+2,___xxtofl@val+2
  1880   005E96  C5BE  F504         	movff	vGenerateSinus@u32Amplitude+3,___xxtofl@val+3
  1881   005E9A  0E00               	movlw	0
  1882   005E9C  EC0F  F02E         	call	___xxtofl
  1883   005EA0  C501  F513         	movff	?___xxtofl,___flmul@a
  1884   005EA4  C502  F514         	movff	?___xxtofl+1,___flmul@a+1
  1885   005EA8  C503  F515         	movff	?___xxtofl+2,___flmul@a+2
  1886   005EAC  C504  F516         	movff	?___xxtofl+3,___flmul@a+3
  1887   005EB0  0E00               	movlw	0
  1888   005EB2  6E45               	movwf	___fladd@a^(0+1280),c
  1889   005EB4  0E00               	movlw	0
  1890   005EB6  6E46               	movwf	(___fladd@a+1)^(0+1280),c
  1891   005EB8  0E80               	movlw	128
  1892   005EBA  6E47               	movwf	(___fladd@a+2)^(0+1280),c
  1893   005EBC  0E3F               	movlw	63
  1894   005EBE  6E48               	movwf	(___fladd@a+3)^(0+1280),c
  1895   005EC0  C5CB  F541         	movff	_vGenerateSinus$2375,___fladd@b
  1896   005EC4  C5CC  F542         	movff	_vGenerateSinus$2375+1,___fladd@b+1
  1897   005EC8  C5CD  F543         	movff	_vGenerateSinus$2375+2,___fladd@b+2
  1898   005ECC  C5CE  F544         	movff	_vGenerateSinus$2375+3,___fladd@b+3
  1899   005ED0  EC7A  F03A         	call	___fladd	;wreg free
  1900   005ED4  C541  F50F         	movff	?___fladd,___flmul@b
  1901   005ED8  C542  F510         	movff	?___fladd+1,___flmul@b+1
  1902   005EDC  C543  F511         	movff	?___fladd+2,___flmul@b+2
  1903   005EE0  C544  F512         	movff	?___fladd+3,___flmul@b+3
  1904   005EE4  EC65  F038         	call	___flmul	;wreg free
  1905   005EE8  C50F  F5CF         	movff	?___flmul,_vGenerateSinus$2376
  1906   005EEC  C510  F5D0         	movff	?___flmul+1,_vGenerateSinus$2376+1
  1907   005EF0  C511  F5D1         	movff	?___flmul+2,_vGenerateSinus$2376+2
  1908   005EF4  C512  F5D2         	movff	?___flmul+3,_vGenerateSinus$2376+3
  1909   005EF8                     
  1910                           ;main.c: 177:     {;main.c: 178:         pu8OutputArray[i] = (uint8_t)(u32Amplitude * (1
      +                           + sinf(2 * PI * i / u32Samples)) + u32Offset);
  1911   005EF8  0105               	movlb	5	; () banked
  1912   005EFA  51D3               	movf	vGenerateSinus@i& (0+255),w,b
  1913   005EFC  25B5               	addwf	vGenerateSinus@pu8OutputArray& (0+255),w,b
  1914   005EFE  6ED9               	movwf	fsr2l,c
  1915   005F00  51D4               	movf	(vGenerateSinus@i+1)& (0+255),w,b
  1916   005F02  21B6               	addwfc	(vGenerateSinus@pu8OutputArray+1)& (0+255),w,b
  1917   005F04  6EDA               	movwf	fsr2h,c
  1918   005F06  C5BF  F501         	movff	vGenerateSinus@u32Offset,___xxtofl@val
  1919   005F0A  C5C0  F502         	movff	vGenerateSinus@u32Offset+1,___xxtofl@val+1
  1920   005F0E  C5C1  F503         	movff	vGenerateSinus@u32Offset+2,___xxtofl@val+2
  1921   005F12  C5C2  F504         	movff	vGenerateSinus@u32Offset+3,___xxtofl@val+3
  1922   005F16  0E00               	movlw	0
  1923   005F18  EC0F  F02E         	call	___xxtofl
  1924   005F1C  C501  F545         	movff	?___xxtofl,___fladd@a
  1925   005F20  C502  F546         	movff	?___xxtofl+1,___fladd@a+1
  1926   005F24  C503  F547         	movff	?___xxtofl+2,___fladd@a+2
  1927   005F28  C504  F548         	movff	?___xxtofl+3,___fladd@a+3
  1928   005F2C  C5CF  F541         	movff	_vGenerateSinus$2376,___fladd@b
  1929   005F30  C5D0  F542         	movff	_vGenerateSinus$2376+1,___fladd@b+1
  1930   005F34  C5D1  F543         	movff	_vGenerateSinus$2376+2,___fladd@b+2
  1931   005F38  C5D2  F544         	movff	_vGenerateSinus$2376+3,___fladd@b+3
  1932   005F3C  EC7A  F03A         	call	___fladd	;wreg free
  1933   005F40  C541  F551         	movff	?___fladd,___fltol@f1
  1934   005F44  C542  F552         	movff	?___fladd+1,___fltol@f1+1
  1935   005F48  C543  F553         	movff	?___fladd+2,___fltol@f1+2
  1936   005F4C  C544  F554         	movff	?___fladd+3,___fltol@f1+3
  1937   005F50  ECC3  F02C         	call	___fltol	;wreg free
  1938   005F54  5051               	movf	?___fltol^(0+1280),w,c
  1939   005F56  6EDF               	movwf	indf2,c
  1940   005F58                     
  1941                           ;main.c: 179:     }
  1942   005F58  0105               	movlb	5	; () banked
  1943   005F5A  4BD3               	infsnz	vGenerateSinus@i& (0+255),f,b
  1944   005F5C  2BD4               	incf	(vGenerateSinus@i+1)& (0+255),f,b
  1945   005F5E                     l4111:
  1946                           
  1947                           ; BSR set to: 5
  1948   005F5E  C5D3  F5C3         	movff	vGenerateSinus@i,??_vGenerateSinus
  1949   005F62  C5D4  F5C4         	movff	vGenerateSinus@i+1,??_vGenerateSinus+1
  1950   005F66  0E00               	movlw	0
  1951   005F68  BFC4               	btfsc	(??_vGenerateSinus+1)& (0+255),7,b
  1952   005F6A  0EFF               	movlw	255
  1953   005F6C  6FC5               	movwf	(??_vGenerateSinus+2)& (0+255),b
  1954   005F6E  6FC6               	movwf	(??_vGenerateSinus+3)& (0+255),b
  1955   005F70  51B7               	movf	vGenerateSinus@u32Samples& (0+255),w,b
  1956   005F72  5DC3               	subwf	??_vGenerateSinus& (0+255),w,b
  1957   005F74  51B8               	movf	(vGenerateSinus@u32Samples+1)& (0+255),w,b
  1958   005F76  59C4               	subwfb	(??_vGenerateSinus+1)& (0+255),w,b
  1959   005F78  51B9               	movf	(vGenerateSinus@u32Samples+2)& (0+255),w,b
  1960   005F7A  59C5               	subwfb	(??_vGenerateSinus+2)& (0+255),w,b
  1961   005F7C  51BA               	movf	(vGenerateSinus@u32Samples+3)& (0+255),w,b
  1962   005F7E  59C6               	subwfb	(??_vGenerateSinus+3)& (0+255),w,b
  1963   005F80  A0D8               	btfss	status,0,c
  1964   005F82  EFC5  F02F         	goto	u3811
  1965   005F86  EFC7  F02F         	goto	u3810
  1966   005F8A                     u3811:
  1967   005F8A  EFF0  F02E         	goto	l4101
  1968   005F8E                     u3810:
  1969   005F8E                     
  1970                           ; BSR set to: 5
  1971   005F8E  0012               	return		;funcret
  1972   005F90                     __end_of_vGenerateSinus:
  1973                           	callstack 0
  1974                           
  1975 ;; *************** function _sinf *****************
  1976 ;; Defined at:
  1977 ;;		line 27 in file "S:\XC8C\pic\sources\c99\common\sinf.c"
  1978 ;; Parameters:    Size  Location     Type
  1979 ;;  x               4   59[BANK5 ] float 
  1980 ;; Auto vars:     Size  Location     Type
  1981 ;;  ux              4   81[BANK5 ] struct .
  1982 ;;  y               4   77[BANK5 ] struct .
  1983 ;;  sign            1   72[BANK5 ] _Bool 
  1984 ;;  n               1   71[BANK5 ] unsigned char 
  1985 ;; Return value:  Size  Location     Type
  1986 ;;                  4   59[BANK5 ] float 
  1987 ;; Registers used:
  1988 ;;		wreg, fsr2l, fsr2h, status,2, status,0, prodl, prodh, cstack
  1989 ;; Tracked objects:
  1990 ;;		On entry : 0/0
  1991 ;;		On exit  : 0/0
  1992 ;;		Unchanged: 0/0
  1993 ;; Data sizes:     COMRAM   BANK5   BANK6   BANK7   BANK8   BANK9  BANK10  BANK11  BANK12
  1994 ;;      Params:         0       4       0       0       0       0       0       0       0
  1995 ;;      Locals:         0      22       0       0       0       0       0       0       0
  1996 ;;      Temps:          0       0       0       0       0       0       0       0       0
  1997 ;;      Totals:         0      26       0       0       0       0       0       0       0
  1998 ;;Total ram usage:       26 bytes
  1999 ;; Hardware stack levels used: 1
  2000 ;; Hardware stack levels required when called: 3
  2001 ;; This function calls:
  2002 ;;		___cosdf
  2003 ;;		___fladd
  2004 ;;		___flneg
  2005 ;;		___rem_pio2f
  2006 ;;		___sindf
  2007 ;; This function is called by:
  2008 ;;		_vGenerateSinus
  2009 ;; This function uses a non-reentrant model
  2010 ;;
  2011                           
  2012                           	psect	text3
  2013   0079B4                     __ptext3:
  2014                           	callstack 0
  2015   0079B4                     _sinf:
  2016                           	callstack 122
  2017   0079B4  C59B  F5B1         	movff	sinf@x,sinf@ux
  2018   0079B8  C59C  F5B2         	movff	sinf@x+1,sinf@ux+1
  2019   0079BC  C59D  F5B3         	movff	sinf@x+2,sinf@ux+2
  2020   0079C0  C59E  F5B4         	movff	sinf@x+3,sinf@ux+3
  2021   0079C4  0105               	movlb	5	; () banked
  2022   0079C6  BFB4               	btfsc	(sinf@ux+3)& (0+255),7,b
  2023   0079C8  EFE8  F03C         	goto	u3451
  2024   0079CC  EFEB  F03C         	goto	u3450
  2025   0079D0                     u3451:
  2026   0079D0  0E01               	movlw	1
  2027   0079D2  EFEC  F03C         	goto	u3460
  2028   0079D6                     u3450:
  2029   0079D6  0E00               	movlw	0
  2030   0079D8                     u3460:
  2031   0079D8  6FA8               	movwf	sinf@sign& (0+255),b
  2032   0079DA                     
  2033                           ; BSR set to: 5
  2034   0079DA  9FB4               	bcf	(sinf@ux+3)& (0+255),7,b
  2035   0079DC                     
  2036                           ; BSR set to: 5
  2037   0079DC  0EDB               	movlw	219
  2038   0079DE  5DB1               	subwf	sinf@ux& (0+255),w,b
  2039   0079E0  0E0F               	movlw	15
  2040   0079E2  59B2               	subwfb	(sinf@ux+1)& (0+255),w,b
  2041   0079E4  0E49               	movlw	73
  2042   0079E6  59B3               	subwfb	(sinf@ux+2)& (0+255),w,b
  2043   0079E8  0E3F               	movlw	63
  2044   0079EA  59B4               	subwfb	(sinf@ux+3)& (0+255),w,b
  2045   0079EC  B0D8               	btfsc	status,0,c
  2046   0079EE  EFFB  F03C         	goto	u3471
  2047   0079F2  EFFD  F03C         	goto	u3470
  2048   0079F6                     u3471:
  2049   0079F6  EF26  F03D         	goto	l3853
  2050   0079FA                     u3470:
  2051   0079FA                     
  2052                           ; BSR set to: 5
  2053   0079FA  0E80               	movlw	128
  2054   0079FC  5DB3               	subwf	(sinf@ux+2)& (0+255),w,b
  2055   0079FE  0E39               	movlw	57
  2056   007A00  59B4               	subwfb	(sinf@ux+3)& (0+255),w,b
  2057   007A02  B0D8               	btfsc	status,0,c
  2058   007A04  EF06  F03D         	goto	u3481
  2059   007A08  EF08  F03D         	goto	u3480
  2060   007A0C                     u3481:
  2061   007A0C  EF12  F03D         	goto	l3849
  2062   007A10                     u3480:
  2063   007A10                     
  2064                           ; BSR set to: 5
  2065   007A10  C59B  F59B         	movff	sinf@x,?_sinf
  2066   007A14  C59C  F59C         	movff	sinf@x+1,?_sinf+1
  2067   007A18  C59D  F59D         	movff	sinf@x+2,?_sinf+2
  2068   007A1C  C59E  F59E         	movff	sinf@x+3,?_sinf+3
  2069   007A20  EF60  F03F         	goto	l1517
  2070   007A24                     l3849:
  2071                           
  2072                           ; BSR set to: 5
  2073   007A24  C59B  F551         	movff	sinf@x,___sindf@x
  2074   007A28  C59C  F552         	movff	sinf@x+1,___sindf@x+1
  2075   007A2C  C59D  F553         	movff	sinf@x+2,___sindf@x+2
  2076   007A30  C59E  F554         	movff	sinf@x+3,___sindf@x+3
  2077   007A34  ECD4  F031         	call	___sindf	;wreg free
  2078   007A38  C551  F59B         	movff	?___sindf,?_sinf
  2079   007A3C  C552  F59C         	movff	?___sindf+1,?_sinf+1
  2080   007A40  C553  F59D         	movff	?___sindf+2,?_sinf+2
  2081   007A44  C554  F59E         	movff	?___sindf+3,?_sinf+3
  2082   007A48  EF60  F03F         	goto	l1517
  2083   007A4C                     l3853:
  2084                           
  2085                           ; BSR set to: 5
  2086   007A4C  0ED2               	movlw	210
  2087   007A4E  5DB1               	subwf	sinf@ux& (0+255),w,b
  2088   007A50  0E53               	movlw	83
  2089   007A52  59B2               	subwfb	(sinf@ux+1)& (0+255),w,b
  2090   007A54  0E7B               	movlw	123
  2091   007A56  59B3               	subwfb	(sinf@ux+2)& (0+255),w,b
  2092   007A58  0E40               	movlw	64
  2093   007A5A  59B4               	subwfb	(sinf@ux+3)& (0+255),w,b
  2094   007A5C  B0D8               	btfsc	status,0,c
  2095   007A5E  EF33  F03D         	goto	u3491
  2096   007A62  EF35  F03D         	goto	u3490
  2097   007A66                     u3491:
  2098   007A66  EF18  F03E         	goto	l3883
  2099   007A6A                     u3490:
  2100   007A6A                     
  2101                           ; BSR set to: 5
  2102   007A6A  0EE4               	movlw	228
  2103   007A6C  5DB1               	subwf	sinf@ux& (0+255),w,b
  2104   007A6E  0ECB               	movlw	203
  2105   007A70  59B2               	subwfb	(sinf@ux+1)& (0+255),w,b
  2106   007A72  0E16               	movlw	22
  2107   007A74  59B3               	subwfb	(sinf@ux+2)& (0+255),w,b
  2108   007A76  0E40               	movlw	64
  2109   007A78  59B4               	subwfb	(sinf@ux+3)& (0+255),w,b
  2110   007A7A  B0D8               	btfsc	status,0,c
  2111   007A7C  EF42  F03D         	goto	u3501
  2112   007A80  EF44  F03D         	goto	u3500
  2113   007A84                     u3501:
  2114   007A84  EFB2  F03D         	goto	l3873
  2115   007A88                     u3500:
  2116   007A88                     
  2117                           ; BSR set to: 5
  2118   007A88  51A8               	movf	sinf@sign& (0+255),w,b
  2119   007A8A  B4D8               	btfsc	status,2,c
  2120   007A8C  EF4A  F03D         	goto	u3511
  2121   007A90  EF4C  F03D         	goto	u3510
  2122   007A94                     u3511:
  2123   007A94  EF84  F03D         	goto	l3867
  2124   007A98                     u3510:
  2125   007A98                     
  2126                           ; BSR set to: 5
  2127   007A98  0EDB               	movlw	219
  2128   007A9A  6E45               	movwf	___fladd@a^(0+1280),c
  2129   007A9C  0E0F               	movlw	15
  2130   007A9E  6E46               	movwf	(___fladd@a+1)^(0+1280),c
  2131   007AA0  0EC9               	movlw	201
  2132   007AA2  6E47               	movwf	(___fladd@a+2)^(0+1280),c
  2133   007AA4  0E3F               	movlw	63
  2134   007AA6  6E48               	movwf	(___fladd@a+3)^(0+1280),c
  2135   007AA8  C59B  F541         	movff	sinf@x,___fladd@b
  2136   007AAC  C59C  F542         	movff	sinf@x+1,___fladd@b+1
  2137   007AB0  C59D  F543         	movff	sinf@x+2,___fladd@b+2
  2138   007AB4  C59E  F544         	movff	sinf@x+3,___fladd@b+3
  2139   007AB8  EC7A  F03A         	call	___fladd	;wreg free
  2140   007ABC  C541  F5A9         	movff	?___fladd,_sinf$2377
  2141   007AC0  C542  F5AA         	movff	?___fladd+1,_sinf$2377+1
  2142   007AC4  C543  F5AB         	movff	?___fladd+2,_sinf$2377+2
  2143   007AC8  C544  F5AC         	movff	?___fladd+3,_sinf$2377+3
  2144   007ACC                     l3861:
  2145   007ACC  C5A9  F551         	movff	_sinf$2377,___cosdf@x
  2146   007AD0  C5AA  F552         	movff	_sinf$2377+1,___cosdf@x+1
  2147   007AD4  C5AB  F553         	movff	_sinf$2377+2,___cosdf@x+2
  2148   007AD8  C5AC  F554         	movff	_sinf$2377+3,___cosdf@x+3
  2149   007ADC  ECC8  F02F         	call	___cosdf	;wreg free
  2150   007AE0  C551  F578         	movff	?___cosdf,___flneg@f1
  2151   007AE4  C552  F579         	movff	?___cosdf+1,___flneg@f1+1
  2152   007AE8  C553  F57A         	movff	?___cosdf+2,___flneg@f1+2
  2153   007AEC  C554  F57B         	movff	?___cosdf+3,___flneg@f1+3
  2154   007AF0  EC5E  F02A         	call	___flneg	;wreg free
  2155   007AF4  C578  F59B         	movff	?___flneg,?_sinf
  2156   007AF8  C579  F59C         	movff	?___flneg+1,?_sinf+1
  2157   007AFC  C57A  F59D         	movff	?___flneg+2,?_sinf+2
  2158   007B00  C57B  F59E         	movff	?___flneg+3,?_sinf+3
  2159   007B04  EF60  F03F         	goto	l1517
  2160   007B08                     l3867:
  2161                           
  2162                           ; BSR set to: 5
  2163   007B08  C59B  F541         	movff	sinf@x,___fladd@b
  2164   007B0C  C59C  F542         	movff	sinf@x+1,___fladd@b+1
  2165   007B10  C59D  F543         	movff	sinf@x+2,___fladd@b+2
  2166   007B14  C59E  F544         	movff	sinf@x+3,___fladd@b+3
  2167   007B18  0EDB               	movlw	219
  2168   007B1A  6E45               	movwf	___fladd@a^(0+1280),c
  2169   007B1C  0E0F               	movlw	15
  2170   007B1E  6E46               	movwf	(___fladd@a+1)^(0+1280),c
  2171   007B20  0EC9               	movlw	201
  2172   007B22  6E47               	movwf	(___fladd@a+2)^(0+1280),c
  2173   007B24  0EBF               	movlw	191
  2174   007B26  6E48               	movwf	(___fladd@a+3)^(0+1280),c
  2175   007B28  EC7A  F03A         	call	___fladd	;wreg free
  2176   007B2C  C541  F5A9         	movff	?___fladd,_sinf$2377
  2177   007B30  C542  F5AA         	movff	?___fladd+1,_sinf$2377+1
  2178   007B34  C543  F5AB         	movff	?___fladd+2,_sinf$2377+2
  2179   007B38  C544  F5AC         	movff	?___fladd+3,_sinf$2377+3
  2180   007B3C                     l3869:
  2181   007B3C  C5A9  F551         	movff	_sinf$2377,___cosdf@x
  2182   007B40  C5AA  F552         	movff	_sinf$2377+1,___cosdf@x+1
  2183   007B44  C5AB  F553         	movff	_sinf$2377+2,___cosdf@x+2
  2184   007B48  C5AC  F554         	movff	_sinf$2377+3,___cosdf@x+3
  2185   007B4C  ECC8  F02F         	call	___cosdf	;wreg free
  2186   007B50  C551  F59B         	movff	?___cosdf,?_sinf
  2187   007B54  C552  F59C         	movff	?___cosdf+1,?_sinf+1
  2188   007B58  C553  F59D         	movff	?___cosdf+2,?_sinf+2
  2189   007B5C  C554  F59E         	movff	?___cosdf+3,?_sinf+3
  2190   007B60  EF60  F03F         	goto	l1517
  2191   007B64                     l3873:
  2192                           
  2193                           ; BSR set to: 5
  2194   007B64  51A8               	movf	sinf@sign& (0+255),w,b
  2195   007B66  A4D8               	btfss	status,2,c
  2196   007B68  EFB8  F03D         	goto	u3521
  2197   007B6C  EFBA  F03D         	goto	u3520
  2198   007B70                     u3521:
  2199   007B70  EFE0  F03D         	goto	l3877
  2200   007B74                     u3520:
  2201   007B74                     
  2202                           ; BSR set to: 5
  2203   007B74  0EDB               	movlw	219
  2204   007B76  6E45               	movwf	___fladd@a^(0+1280),c
  2205   007B78  0E0F               	movlw	15
  2206   007B7A  6E46               	movwf	(___fladd@a+1)^(0+1280),c
  2207   007B7C  0E49               	movlw	73
  2208   007B7E  6E47               	movwf	(___fladd@a+2)^(0+1280),c
  2209   007B80  0EC0               	movlw	192
  2210   007B82  6E48               	movwf	(___fladd@a+3)^(0+1280),c
  2211   007B84  C59B  F541         	movff	sinf@x,___fladd@b
  2212   007B88  C59C  F542         	movff	sinf@x+1,___fladd@b+1
  2213   007B8C  C59D  F543         	movff	sinf@x+2,___fladd@b+2
  2214   007B90  C59E  F544         	movff	sinf@x+3,___fladd@b+3
  2215   007B94  EC7A  F03A         	call	___fladd	;wreg free
  2216   007B98  C541  F578         	movff	?___fladd,___flneg@f1
  2217   007B9C  C542  F579         	movff	?___fladd+1,___flneg@f1+1
  2218   007BA0  C543  F57A         	movff	?___fladd+2,___flneg@f1+2
  2219   007BA4  C544  F57B         	movff	?___fladd+3,___flneg@f1+3
  2220   007BA8  EC5E  F02A         	call	___flneg	;wreg free
  2221   007BAC  C578  F59F         	movff	?___flneg,_sinf$2045
  2222   007BB0  C579  F5A0         	movff	?___flneg+1,_sinf$2045+1
  2223   007BB4  C57A  F5A1         	movff	?___flneg+2,_sinf$2045+2
  2224   007BB8  C57B  F5A2         	movff	?___flneg+3,_sinf$2045+3
  2225   007BBC  EF04  F03E         	goto	l3879
  2226   007BC0                     l3877:
  2227                           
  2228                           ; BSR set to: 5
  2229   007BC0  0EDB               	movlw	219
  2230   007BC2  6E45               	movwf	___fladd@a^(0+1280),c
  2231   007BC4  0E0F               	movlw	15
  2232   007BC6  6E46               	movwf	(___fladd@a+1)^(0+1280),c
  2233   007BC8  0E49               	movlw	73
  2234   007BCA  6E47               	movwf	(___fladd@a+2)^(0+1280),c
  2235   007BCC  0E40               	movlw	64
  2236   007BCE  6E48               	movwf	(___fladd@a+3)^(0+1280),c
  2237   007BD0  C59B  F541         	movff	sinf@x,___fladd@b
  2238   007BD4  C59C  F542         	movff	sinf@x+1,___fladd@b+1
  2239   007BD8  C59D  F543         	movff	sinf@x+2,___fladd@b+2
  2240   007BDC  C59E  F544         	movff	sinf@x+3,___fladd@b+3
  2241   007BE0  EC7A  F03A         	call	___fladd	;wreg free
  2242   007BE4  C541  F578         	movff	?___fladd,___flneg@f1
  2243   007BE8  C542  F579         	movff	?___fladd+1,___flneg@f1+1
  2244   007BEC  C543  F57A         	movff	?___fladd+2,___flneg@f1+2
  2245   007BF0  C544  F57B         	movff	?___fladd+3,___flneg@f1+3
  2246   007BF4  EC5E  F02A         	call	___flneg	;wreg free
  2247   007BF8  C578  F59F         	movff	?___flneg,_sinf$2045
  2248   007BFC  C579  F5A0         	movff	?___flneg+1,_sinf$2045+1
  2249   007C00  C57A  F5A1         	movff	?___flneg+2,_sinf$2045+2
  2250   007C04  C57B  F5A2         	movff	?___flneg+3,_sinf$2045+3
  2251   007C08                     l3879:
  2252   007C08  C59F  F551         	movff	_sinf$2045,___sindf@x
  2253   007C0C  C5A0  F552         	movff	_sinf$2045+1,___sindf@x+1
  2254   007C10  C5A1  F553         	movff	_sinf$2045+2,___sindf@x+2
  2255   007C14  C5A2  F554         	movff	_sinf$2045+3,___sindf@x+3
  2256   007C18  ECD4  F031         	call	___sindf	;wreg free
  2257   007C1C  C551  F59B         	movff	?___sindf,?_sinf
  2258   007C20  C552  F59C         	movff	?___sindf+1,?_sinf+1
  2259   007C24  C553  F59D         	movff	?___sindf+2,?_sinf+2
  2260   007C28  C554  F59E         	movff	?___sindf+3,?_sinf+3
  2261   007C2C  EF60  F03F         	goto	l1517
  2262   007C30                     l3883:
  2263                           
  2264                           ; BSR set to: 5
  2265   007C30  0ED6               	movlw	214
  2266   007C32  5DB1               	subwf	sinf@ux& (0+255),w,b
  2267   007C34  0E31               	movlw	49
  2268   007C36  59B2               	subwfb	(sinf@ux+1)& (0+255),w,b
  2269   007C38  0EE2               	movlw	226
  2270   007C3A  59B3               	subwfb	(sinf@ux+2)& (0+255),w,b
  2271   007C3C  0E40               	movlw	64
  2272   007C3E  59B4               	subwfb	(sinf@ux+3)& (0+255),w,b
  2273   007C40  B0D8               	btfsc	status,0,c
  2274   007C42  EF25  F03E         	goto	u3531
  2275   007C46  EF27  F03E         	goto	u3530
  2276   007C4A                     u3531:
  2277   007C4A  EFC8  F03E         	goto	l3913
  2278   007C4E                     u3530:
  2279   007C4E                     
  2280                           ; BSR set to: 5
  2281   007C4E  0EE0               	movlw	224
  2282   007C50  5DB1               	subwf	sinf@ux& (0+255),w,b
  2283   007C52  0EED               	movlw	237
  2284   007C54  59B2               	subwfb	(sinf@ux+1)& (0+255),w,b
  2285   007C56  0EAF               	movlw	175
  2286   007C58  59B3               	subwfb	(sinf@ux+2)& (0+255),w,b
  2287   007C5A  0E40               	movlw	64
  2288   007C5C  59B4               	subwfb	(sinf@ux+3)& (0+255),w,b
  2289   007C5E  B0D8               	btfsc	status,0,c
  2290   007C60  EF34  F03E         	goto	u3541
  2291   007C64  EF36  F03E         	goto	u3540
  2292   007C68                     u3541:
  2293   007C68  EF76  F03E         	goto	l3903
  2294   007C6C                     u3540:
  2295   007C6C                     
  2296                           ; BSR set to: 5
  2297   007C6C  51A8               	movf	sinf@sign& (0+255),w,b
  2298   007C6E  B4D8               	btfsc	status,2,c
  2299   007C70  EF3C  F03E         	goto	u3551
  2300   007C74  EF3E  F03E         	goto	u3550
  2301   007C78                     u3551:
  2302   007C78  EF5A  F03E         	goto	l3897
  2303   007C7C                     u3550:
  2304   007C7C                     
  2305                           ; BSR set to: 5
  2306   007C7C  C59B  F541         	movff	sinf@x,___fladd@b
  2307   007C80  C59C  F542         	movff	sinf@x+1,___fladd@b+1
  2308   007C84  C59D  F543         	movff	sinf@x+2,___fladd@b+2
  2309   007C88  C59E  F544         	movff	sinf@x+3,___fladd@b+3
  2310   007C8C  0EE4               	movlw	228
  2311   007C8E  6E45               	movwf	___fladd@a^(0+1280),c
  2312   007C90  0ECB               	movlw	203
  2313   007C92  6E46               	movwf	(___fladd@a+1)^(0+1280),c
  2314   007C94  0E96               	movlw	150
  2315   007C96  6E47               	movwf	(___fladd@a+2)^(0+1280),c
  2316   007C98  0E40               	movlw	64
  2317   007C9A  6E48               	movwf	(___fladd@a+3)^(0+1280),c
  2318   007C9C  EC7A  F03A         	call	___fladd	;wreg free
  2319   007CA0  C541  F5A9         	movff	?___fladd,_sinf$2377
  2320   007CA4  C542  F5AA         	movff	?___fladd+1,_sinf$2377+1
  2321   007CA8  C543  F5AB         	movff	?___fladd+2,_sinf$2377+2
  2322   007CAC  C544  F5AC         	movff	?___fladd+3,_sinf$2377+3
  2323   007CB0  EF9E  F03D         	goto	l3869
  2324   007CB4                     l3897:
  2325                           
  2326                           ; BSR set to: 5
  2327   007CB4  0EE4               	movlw	228
  2328   007CB6  6E45               	movwf	___fladd@a^(0+1280),c
  2329   007CB8  0ECB               	movlw	203
  2330   007CBA  6E46               	movwf	(___fladd@a+1)^(0+1280),c
  2331   007CBC  0E96               	movlw	150
  2332   007CBE  6E47               	movwf	(___fladd@a+2)^(0+1280),c
  2333   007CC0  0EC0               	movlw	192
  2334   007CC2  6E48               	movwf	(___fladd@a+3)^(0+1280),c
  2335   007CC4  C59B  F541         	movff	sinf@x,___fladd@b
  2336   007CC8  C59C  F542         	movff	sinf@x+1,___fladd@b+1
  2337   007CCC  C59D  F543         	movff	sinf@x+2,___fladd@b+2
  2338   007CD0  C59E  F544         	movff	sinf@x+3,___fladd@b+3
  2339   007CD4  EC7A  F03A         	call	___fladd	;wreg free
  2340   007CD8  C541  F5A9         	movff	?___fladd,_sinf$2377
  2341   007CDC  C542  F5AA         	movff	?___fladd+1,_sinf$2377+1
  2342   007CE0  C543  F5AB         	movff	?___fladd+2,_sinf$2377+2
  2343   007CE4  C544  F5AC         	movff	?___fladd+3,_sinf$2377+3
  2344   007CE8  EF66  F03D         	goto	l3861
  2345   007CEC                     l3903:
  2346                           
  2347                           ; BSR set to: 5
  2348   007CEC  51A8               	movf	sinf@sign& (0+255),w,b
  2349   007CEE  A4D8               	btfss	status,2,c
  2350   007CF0  EF7C  F03E         	goto	u3561
  2351   007CF4  EF7E  F03E         	goto	u3560
  2352   007CF8                     u3561:
  2353   007CF8  EF9A  F03E         	goto	l3907
  2354   007CFC                     u3560:
  2355   007CFC                     
  2356                           ; BSR set to: 5
  2357   007CFC  C59B  F541         	movff	sinf@x,___fladd@b
  2358   007D00  C59C  F542         	movff	sinf@x+1,___fladd@b+1
  2359   007D04  C59D  F543         	movff	sinf@x+2,___fladd@b+2
  2360   007D08  C59E  F544         	movff	sinf@x+3,___fladd@b+3
  2361   007D0C  0EDB               	movlw	219
  2362   007D0E  6E45               	movwf	___fladd@a^(0+1280),c
  2363   007D10  0E0F               	movlw	15
  2364   007D12  6E46               	movwf	(___fladd@a+1)^(0+1280),c
  2365   007D14  0EC9               	movlw	201
  2366   007D16  6E47               	movwf	(___fladd@a+2)^(0+1280),c
  2367   007D18  0EC0               	movlw	192
  2368   007D1A  6E48               	movwf	(___fladd@a+3)^(0+1280),c
  2369   007D1C  EC7A  F03A         	call	___fladd	;wreg free
  2370   007D20  C541  F5A3         	movff	?___fladd,_sinf$2046
  2371   007D24  C542  F5A4         	movff	?___fladd+1,_sinf$2046+1
  2372   007D28  C543  F5A5         	movff	?___fladd+2,_sinf$2046+2
  2373   007D2C  C544  F5A6         	movff	?___fladd+3,_sinf$2046+3
  2374   007D30  EFB4  F03E         	goto	l3909
  2375   007D34                     l3907:
  2376                           
  2377                           ; BSR set to: 5
  2378   007D34  C59B  F541         	movff	sinf@x,___fladd@b
  2379   007D38  C59C  F542         	movff	sinf@x+1,___fladd@b+1
  2380   007D3C  C59D  F543         	movff	sinf@x+2,___fladd@b+2
  2381   007D40  C59E  F544         	movff	sinf@x+3,___fladd@b+3
  2382   007D44  0EDB               	movlw	219
  2383   007D46  6E45               	movwf	___fladd@a^(0+1280),c
  2384   007D48  0E0F               	movlw	15
  2385   007D4A  6E46               	movwf	(___fladd@a+1)^(0+1280),c
  2386   007D4C  0EC9               	movlw	201
  2387   007D4E  6E47               	movwf	(___fladd@a+2)^(0+1280),c
  2388   007D50  0E40               	movlw	64
  2389   007D52  6E48               	movwf	(___fladd@a+3)^(0+1280),c
  2390   007D54  EC7A  F03A         	call	___fladd	;wreg free
  2391   007D58  C541  F5A3         	movff	?___fladd,_sinf$2046
  2392   007D5C  C542  F5A4         	movff	?___fladd+1,_sinf$2046+1
  2393   007D60  C543  F5A5         	movff	?___fladd+2,_sinf$2046+2
  2394   007D64  C544  F5A6         	movff	?___fladd+3,_sinf$2046+3
  2395   007D68                     l3909:
  2396   007D68  C5A3  F551         	movff	_sinf$2046,___sindf@x
  2397   007D6C  C5A4  F552         	movff	_sinf$2046+1,___sindf@x+1
  2398   007D70  C5A5  F553         	movff	_sinf$2046+2,___sindf@x+2
  2399   007D74  C5A6  F554         	movff	_sinf$2046+3,___sindf@x+3
  2400   007D78  ECD4  F031         	call	___sindf	;wreg free
  2401   007D7C  C551  F59B         	movff	?___sindf,?_sinf
  2402   007D80  C552  F59C         	movff	?___sindf+1,?_sinf+1
  2403   007D84  C553  F59D         	movff	?___sindf+2,?_sinf+2
  2404   007D88  C554  F59E         	movff	?___sindf+3,?_sinf+3
  2405   007D8C  EF60  F03F         	goto	l1517
  2406   007D90                     l3913:
  2407                           
  2408                           ; BSR set to: 5
  2409   007D90  0E80               	movlw	128
  2410   007D92  5DB3               	subwf	(sinf@ux+2)& (0+255),w,b
  2411   007D94  0E7F               	movlw	127
  2412   007D96  59B4               	subwfb	(sinf@ux+3)& (0+255),w,b
  2413   007D98  A0D8               	btfss	status,0,c
  2414   007D9A  EFD1  F03E         	goto	u3571
  2415   007D9E  EFD3  F03E         	goto	u3570
  2416   007DA2                     u3571:
  2417   007DA2  EFE5  F03E         	goto	l3921
  2418   007DA6                     u3570:
  2419   007DA6                     
  2420                           ; BSR set to: 5
  2421   007DA6  0EFF               	movlw	255
  2422   007DA8  13B1               	iorwf	sinf@ux& (0+255),f,b
  2423   007DAA  0EFF               	movlw	255
  2424   007DAC  13B2               	iorwf	(sinf@ux+1)& (0+255),f,b
  2425   007DAE  0EFF               	movlw	255
  2426   007DB0  13B3               	iorwf	(sinf@ux+2)& (0+255),f,b
  2427   007DB2  0E00               	movlw	0
  2428   007DB4  13B4               	iorwf	(sinf@ux+3)& (0+255),f,b
  2429   007DB6                     
  2430                           ; BSR set to: 5
  2431   007DB6  C5B1  F59B         	movff	sinf@ux,?_sinf
  2432   007DBA  C5B2  F59C         	movff	sinf@ux+1,?_sinf+1
  2433   007DBE  C5B3  F59D         	movff	sinf@ux+2,?_sinf+2
  2434   007DC2  C5B4  F59E         	movff	sinf@ux+3,?_sinf+3
  2435   007DC6  EF60  F03F         	goto	l1517
  2436   007DCA                     l3921:
  2437                           
  2438                           ; BSR set to: 5
  2439   007DCA  C59B  F57C         	movff	sinf@x,___rem_pio2f@x
  2440   007DCE  C59C  F57D         	movff	sinf@x+1,___rem_pio2f@x+1
  2441   007DD2  C59D  F57E         	movff	sinf@x+2,___rem_pio2f@x+2
  2442   007DD6  C59E  F57F         	movff	sinf@x+3,___rem_pio2f@x+3
  2443   007DDA  0EAD               	movlw	low sinf@y
  2444   007DDC  6F80               	movwf	___rem_pio2f@y& (0+255),b
  2445   007DDE  0E05               	movlw	high sinf@y
  2446   007DE0  6F81               	movwf	(___rem_pio2f@y+1)& (0+255),b
  2447   007DE2  EC80  F036         	call	___rem_pio2f	;wreg free
  2448   007DE6  0105               	movlb	5	; () banked
  2449   007DE8  517C               	movf	?___rem_pio2f& (0+255),w,b
  2450   007DEA  0B03               	andlw	3
  2451   007DEC  6FA7               	movwf	sinf@n& (0+255),b
  2452   007DEE  EF51  F03F         	goto	l3939
  2453   007DF2                     l3923:
  2454                           
  2455                           ; BSR set to: 5
  2456   007DF2  C5AD  F578         	movff	sinf@y,___flneg@f1
  2457   007DF6  C5AE  F579         	movff	sinf@y+1,___flneg@f1+1
  2458   007DFA  C5AF  F57A         	movff	sinf@y+2,___flneg@f1+2
  2459   007DFE  C5B0  F57B         	movff	sinf@y+3,___flneg@f1+3
  2460   007E02  EC5E  F02A         	call	___flneg	;wreg free
  2461   007E06  C578  F5AD         	movff	?___flneg,sinf@y
  2462   007E0A  C579  F5AE         	movff	?___flneg+1,sinf@y+1
  2463   007E0E  C57A  F5AF         	movff	?___flneg+2,sinf@y+2
  2464   007E12  C57B  F5B0         	movff	?___flneg+3,sinf@y+3
  2465   007E16                     l3925:
  2466   007E16  C5AD  F551         	movff	sinf@y,___sindf@x
  2467   007E1A  C5AE  F552         	movff	sinf@y+1,___sindf@x+1
  2468   007E1E  C5AF  F553         	movff	sinf@y+2,___sindf@x+2
  2469   007E22  C5B0  F554         	movff	sinf@y+3,___sindf@x+3
  2470   007E26  ECD4  F031         	call	___sindf	;wreg free
  2471   007E2A  C551  F59B         	movff	?___sindf,?_sinf
  2472   007E2E  C552  F59C         	movff	?___sindf+1,?_sinf+1
  2473   007E32  C553  F59D         	movff	?___sindf+2,?_sinf+2
  2474   007E36  C554  F59E         	movff	?___sindf+3,?_sinf+3
  2475   007E3A  EF60  F03F         	goto	l1517
  2476   007E3E                     l3929:
  2477                           
  2478                           ; BSR set to: 5
  2479   007E3E  C5AD  F551         	movff	sinf@y,___cosdf@x
  2480   007E42  C5AE  F552         	movff	sinf@y+1,___cosdf@x+1
  2481   007E46  C5AF  F553         	movff	sinf@y+2,___cosdf@x+2
  2482   007E4A  C5B0  F554         	movff	sinf@y+3,___cosdf@x+3
  2483   007E4E  ECC8  F02F         	call	___cosdf	;wreg free
  2484   007E52  C551  F59B         	movff	?___cosdf,?_sinf
  2485   007E56  C552  F59C         	movff	?___cosdf+1,?_sinf+1
  2486   007E5A  C553  F59D         	movff	?___cosdf+2,?_sinf+2
  2487   007E5E  C554  F59E         	movff	?___cosdf+3,?_sinf+3
  2488   007E62  EF60  F03F         	goto	l1517
  2489   007E66                     l3933:
  2490                           
  2491                           ; BSR set to: 5
  2492   007E66  C5AD  F551         	movff	sinf@y,___cosdf@x
  2493   007E6A  C5AE  F552         	movff	sinf@y+1,___cosdf@x+1
  2494   007E6E  C5AF  F553         	movff	sinf@y+2,___cosdf@x+2
  2495   007E72  C5B0  F554         	movff	sinf@y+3,___cosdf@x+3
  2496   007E76  ECC8  F02F         	call	___cosdf	;wreg free
  2497   007E7A  C551  F578         	movff	?___cosdf,___flneg@f1
  2498   007E7E  C552  F579         	movff	?___cosdf+1,___flneg@f1+1
  2499   007E82  C553  F57A         	movff	?___cosdf+2,___flneg@f1+2
  2500   007E86  C554  F57B         	movff	?___cosdf+3,___flneg@f1+3
  2501   007E8A  EC5E  F02A         	call	___flneg	;wreg free
  2502   007E8E  C578  F59B         	movff	?___flneg,?_sinf
  2503   007E92  C579  F59C         	movff	?___flneg+1,?_sinf+1
  2504   007E96  C57A  F59D         	movff	?___flneg+2,?_sinf+2
  2505   007E9A  C57B  F59E         	movff	?___flneg+3,?_sinf+3
  2506   007E9E  EF60  F03F         	goto	l1517
  2507   007EA2                     l3939:
  2508                           
  2509                           ; BSR set to: 5
  2510   007EA2  51A7               	movf	sinf@n& (0+255),w,b
  2511                           
  2512                           ; Switch size 1, requested type "simple"
  2513                           ; Number of cases is 3, Range of values is 0 to 2
  2514                           ; switch strategies available:
  2515                           ; Name         Instructions Cycles
  2516                           ; simple_byte           10     6 (average)
  2517                           ;	Chosen strategy is simple_byte
  2518   007EA4  0A00               	xorlw	0	; case 0
  2519   007EA6  B4D8               	btfsc	status,2,c
  2520   007EA8  EF0B  F03F         	goto	l3925
  2521   007EAC  0A01               	xorlw	1	; case 1
  2522   007EAE  B4D8               	btfsc	status,2,c
  2523   007EB0  EF1F  F03F         	goto	l3929
  2524   007EB4  0A03               	xorlw	3	; case 2
  2525   007EB6  B4D8               	btfsc	status,2,c
  2526   007EB8  EFF9  F03E         	goto	l3923
  2527   007EBC  EF33  F03F         	goto	l3933
  2528   007EC0                     l1517:
  2529   007EC0  0012               	return		;funcret
  2530   007EC2                     __end_of_sinf:
  2531                           	callstack 0
  2532                           
  2533 ;; *************** function ___sindf *****************
  2534 ;; Defined at:
  2535 ;;		line 26 in file "S:\XC8C\pic\sources\c99\common\__sindf.c"
  2536 ;; Parameters:    Size  Location     Type
  2537 ;;  x               4   80[COMRAM] float 
  2538 ;; Auto vars:     Size  Location     Type
  2539 ;;  z               4   24[BANK5 ] float 
  2540 ;;  s               4   20[BANK5 ] float 
  2541 ;;  w               4    4[BANK5 ] float 
  2542 ;;  r               4    0[BANK5 ] float 
  2543 ;; Return value:  Size  Location     Type
  2544 ;;                  4   80[COMRAM] float 
  2545 ;; Registers used:
  2546 ;;		wreg, status,2, status,0, prodl, prodh, cstack
  2547 ;; Tracked objects:
  2548 ;;		On entry : 0/0
  2549 ;;		On exit  : 0/0
  2550 ;;		Unchanged: 0/0
  2551 ;; Data sizes:     COMRAM   BANK5   BANK6   BANK7   BANK8   BANK9  BANK10  BANK11  BANK12
  2552 ;;      Params:         4       0       0       0       0       0       0       0       0
  2553 ;;      Locals:         0      28       0       0       0       0       0       0       0
  2554 ;;      Temps:          0       0       0       0       0       0       0       0       0
  2555 ;;      Totals:         4      28       0       0       0       0       0       0       0
  2556 ;;Total ram usage:       32 bytes
  2557 ;; Hardware stack levels used: 1
  2558 ;; Hardware stack levels required when called: 1
  2559 ;; This function calls:
  2560 ;;		___fladd
  2561 ;;		___flmul
  2562 ;; This function is called by:
  2563 ;;		_sinf
  2564 ;; This function uses a non-reentrant model
  2565 ;;
  2566                           
  2567                           	psect	text4
  2568   0063A8                     __ptext4:
  2569                           	callstack 0
  2570   0063A8                     ___sindf:
  2571                           	callstack 123
  2572   0063A8  C551  F50F         	movff	___sindf@x,___flmul@b
  2573   0063AC  C552  F510         	movff	___sindf@x+1,___flmul@b+1
  2574   0063B0  C553  F511         	movff	___sindf@x+2,___flmul@b+2
  2575   0063B4  C554  F512         	movff	___sindf@x+3,___flmul@b+3
  2576   0063B8  C551  F513         	movff	___sindf@x,___flmul@a
  2577   0063BC  C552  F514         	movff	___sindf@x+1,___flmul@a+1
  2578   0063C0  C553  F515         	movff	___sindf@x+2,___flmul@a+2
  2579   0063C4  C554  F516         	movff	___sindf@x+3,___flmul@a+3
  2580   0063C8  EC65  F038         	call	___flmul	;wreg free
  2581   0063CC  C50F  F578         	movff	?___flmul,___sindf@z
  2582   0063D0  C510  F579         	movff	?___flmul+1,___sindf@z+1
  2583   0063D4  C511  F57A         	movff	?___flmul+2,___sindf@z+2
  2584   0063D8  C512  F57B         	movff	?___flmul+3,___sindf@z+3
  2585   0063DC  C578  F50F         	movff	___sindf@z,___flmul@b
  2586   0063E0  C579  F510         	movff	___sindf@z+1,___flmul@b+1
  2587   0063E4  C57A  F511         	movff	___sindf@z+2,___flmul@b+2
  2588   0063E8  C57B  F512         	movff	___sindf@z+3,___flmul@b+3
  2589   0063EC  C578  F513         	movff	___sindf@z,___flmul@a
  2590   0063F0  C579  F514         	movff	___sindf@z+1,___flmul@a+1
  2591   0063F4  C57A  F515         	movff	___sindf@z+2,___flmul@a+2
  2592   0063F8  C57B  F516         	movff	___sindf@z+3,___flmul@a+3
  2593   0063FC  EC65  F038         	call	___flmul	;wreg free
  2594   006400  C50F  F564         	movff	?___flmul,___sindf@w
  2595   006404  C510  F565         	movff	?___flmul+1,___sindf@w+1
  2596   006408  C511  F566         	movff	?___flmul+2,___sindf@w+2
  2597   00640C  C512  F567         	movff	?___flmul+3,___sindf@w+3
  2598   006410  0E3C               	movlw	60
  2599   006412  6E13               	movwf	___flmul@a^(0+1280),c
  2600   006414  0E6C               	movlw	108
  2601   006416  6E14               	movwf	(___flmul@a+1)^(0+1280),c
  2602   006418  0E36               	movlw	54
  2603   00641A  6E15               	movwf	(___flmul@a+2)^(0+1280),c
  2604   00641C  0E36               	movlw	54
  2605   00641E  6E16               	movwf	(___flmul@a+3)^(0+1280),c
  2606   006420  C578  F50F         	movff	___sindf@z,___flmul@b
  2607   006424  C579  F510         	movff	___sindf@z+1,___flmul@b+1
  2608   006428  C57A  F511         	movff	___sindf@z+2,___flmul@b+2
  2609   00642C  C57B  F512         	movff	___sindf@z+3,___flmul@b+3
  2610   006430  EC65  F038         	call	___flmul	;wreg free
  2611   006434  C50F  F541         	movff	?___flmul,___fladd@b
  2612   006438  C510  F542         	movff	?___flmul+1,___fladd@b+1
  2613   00643C  C511  F543         	movff	?___flmul+2,___fladd@b+2
  2614   006440  C512  F544         	movff	?___flmul+3,___fladd@b+3
  2615   006444  0ECF               	movlw	207
  2616   006446  6E45               	movwf	___fladd@a^(0+1280),c
  2617   006448  0E07               	movlw	7
  2618   00644A  6E46               	movwf	(___fladd@a+1)^(0+1280),c
  2619   00644C  0E50               	movlw	80
  2620   00644E  6E47               	movwf	(___fladd@a+2)^(0+1280),c
  2621   006450  0EB9               	movlw	185
  2622   006452  6E48               	movwf	(___fladd@a+3)^(0+1280),c
  2623   006454  EC7A  F03A         	call	___fladd	;wreg free
  2624   006458  C541  F560         	movff	?___fladd,___sindf@r
  2625   00645C  C542  F561         	movff	?___fladd+1,___sindf@r+1
  2626   006460  C543  F562         	movff	?___fladd+2,___sindf@r+2
  2627   006464  C544  F563         	movff	?___fladd+3,___sindf@r+3
  2628   006468  C578  F50F         	movff	___sindf@z,___flmul@b
  2629   00646C  C579  F510         	movff	___sindf@z+1,___flmul@b+1
  2630   006470  C57A  F511         	movff	___sindf@z+2,___flmul@b+2
  2631   006474  C57B  F512         	movff	___sindf@z+3,___flmul@b+3
  2632   006478  C551  F513         	movff	___sindf@x,___flmul@a
  2633   00647C  C552  F514         	movff	___sindf@x+1,___flmul@a+1
  2634   006480  C553  F515         	movff	___sindf@x+2,___flmul@a+2
  2635   006484  C554  F516         	movff	___sindf@x+3,___flmul@a+3
  2636   006488  EC65  F038         	call	___flmul	;wreg free
  2637   00648C  C50F  F574         	movff	?___flmul,___sindf@s
  2638   006490  C510  F575         	movff	?___flmul+1,___sindf@s+1
  2639   006494  C511  F576         	movff	?___flmul+2,___sindf@s+2
  2640   006498  C512  F577         	movff	?___flmul+3,___sindf@s+3
  2641   00649C  0EAB               	movlw	171
  2642   00649E  6E45               	movwf	___fladd@a^(0+1280),c
  2643   0064A0  0EAA               	movlw	170
  2644   0064A2  6E46               	movwf	(___fladd@a+1)^(0+1280),c
  2645   0064A4  0E2A               	movlw	42
  2646   0064A6  6E47               	movwf	(___fladd@a+2)^(0+1280),c
  2647   0064A8  0EBE               	movlw	190
  2648   0064AA  6E48               	movwf	(___fladd@a+3)^(0+1280),c
  2649   0064AC  0E84               	movlw	132
  2650   0064AE  6E13               	movwf	___flmul@a^(0+1280),c
  2651   0064B0  0E88               	movlw	136
  2652   0064B2  6E14               	movwf	(___flmul@a+1)^(0+1280),c
  2653   0064B4  0E08               	movlw	8
  2654   0064B6  6E15               	movwf	(___flmul@a+2)^(0+1280),c
  2655   0064B8  0E3C               	movlw	60
  2656   0064BA  6E16               	movwf	(___flmul@a+3)^(0+1280),c
  2657   0064BC  C578  F50F         	movff	___sindf@z,___flmul@b
  2658   0064C0  C579  F510         	movff	___sindf@z+1,___flmul@b+1
  2659   0064C4  C57A  F511         	movff	___sindf@z+2,___flmul@b+2
  2660   0064C8  C57B  F512         	movff	___sindf@z+3,___flmul@b+3
  2661   0064CC  EC65  F038         	call	___flmul	;wreg free
  2662   0064D0  C50F  F541         	movff	?___flmul,___fladd@b
  2663   0064D4  C510  F542         	movff	?___flmul+1,___fladd@b+1
  2664   0064D8  C511  F543         	movff	?___flmul+2,___fladd@b+2
  2665   0064DC  C512  F544         	movff	?___flmul+3,___fladd@b+3
  2666   0064E0  EC7A  F03A         	call	___fladd	;wreg free
  2667   0064E4  C541  F568         	movff	?___fladd,___sindf$2382
  2668   0064E8  C542  F569         	movff	?___fladd+1,___sindf$2382+1
  2669   0064EC  C543  F56A         	movff	?___fladd+2,___sindf$2382+2
  2670   0064F0  C544  F56B         	movff	?___fladd+3,___sindf$2382+3
  2671   0064F4  C564  F513         	movff	___sindf@w,___flmul@a
  2672   0064F8  C565  F514         	movff	___sindf@w+1,___flmul@a+1
  2673   0064FC  C566  F515         	movff	___sindf@w+2,___flmul@a+2
  2674   006500  C567  F516         	movff	___sindf@w+3,___flmul@a+3
  2675   006504  C574  F50F         	movff	___sindf@s,___flmul@b
  2676   006508  C575  F510         	movff	___sindf@s+1,___flmul@b+1
  2677   00650C  C576  F511         	movff	___sindf@s+2,___flmul@b+2
  2678   006510  C577  F512         	movff	___sindf@s+3,___flmul@b+3
  2679   006514  EC65  F038         	call	___flmul	;wreg free
  2680   006518  C50F  F56C         	movff	?___flmul,___sindf$2383
  2681   00651C  C510  F56D         	movff	?___flmul+1,___sindf$2383+1
  2682   006520  C511  F56E         	movff	?___flmul+2,___sindf$2383+2
  2683   006524  C512  F56F         	movff	?___flmul+3,___sindf$2383+3
  2684   006528  C551  F545         	movff	___sindf@x,___fladd@a
  2685   00652C  C552  F546         	movff	___sindf@x+1,___fladd@a+1
  2686   006530  C553  F547         	movff	___sindf@x+2,___fladd@a+2
  2687   006534  C554  F548         	movff	___sindf@x+3,___fladd@a+3
  2688   006538  C574  F513         	movff	___sindf@s,___flmul@a
  2689   00653C  C575  F514         	movff	___sindf@s+1,___flmul@a+1
  2690   006540  C576  F515         	movff	___sindf@s+2,___flmul@a+2
  2691   006544  C577  F516         	movff	___sindf@s+3,___flmul@a+3
  2692   006548  C568  F50F         	movff	___sindf$2382,___flmul@b
  2693   00654C  C569  F510         	movff	___sindf$2382+1,___flmul@b+1
  2694   006550  C56A  F511         	movff	___sindf$2382+2,___flmul@b+2
  2695   006554  C56B  F512         	movff	___sindf$2382+3,___flmul@b+3
  2696   006558  EC65  F038         	call	___flmul	;wreg free
  2697   00655C  C50F  F541         	movff	?___flmul,___fladd@b
  2698   006560  C510  F542         	movff	?___flmul+1,___fladd@b+1
  2699   006564  C511  F543         	movff	?___flmul+2,___fladd@b+2
  2700   006568  C512  F544         	movff	?___flmul+3,___fladd@b+3
  2701   00656C  EC7A  F03A         	call	___fladd	;wreg free
  2702   006570  C541  F570         	movff	?___fladd,___sindf$2384
  2703   006574  C542  F571         	movff	?___fladd+1,___sindf$2384+1
  2704   006578  C543  F572         	movff	?___fladd+2,___sindf$2384+2
  2705   00657C  C544  F573         	movff	?___fladd+3,___sindf$2384+3
  2706   006580  C570  F541         	movff	___sindf$2384,___fladd@b
  2707   006584  C571  F542         	movff	___sindf$2384+1,___fladd@b+1
  2708   006588  C572  F543         	movff	___sindf$2384+2,___fladd@b+2
  2709   00658C  C573  F544         	movff	___sindf$2384+3,___fladd@b+3
  2710   006590  C560  F513         	movff	___sindf@r,___flmul@a
  2711   006594  C561  F514         	movff	___sindf@r+1,___flmul@a+1
  2712   006598  C562  F515         	movff	___sindf@r+2,___flmul@a+2
  2713   00659C  C563  F516         	movff	___sindf@r+3,___flmul@a+3
  2714   0065A0  C56C  F50F         	movff	___sindf$2383,___flmul@b
  2715   0065A4  C56D  F510         	movff	___sindf$2383+1,___flmul@b+1
  2716   0065A8  C56E  F511         	movff	___sindf$2383+2,___flmul@b+2
  2717   0065AC  C56F  F512         	movff	___sindf$2383+3,___flmul@b+3
  2718   0065B0  EC65  F038         	call	___flmul	;wreg free
  2719   0065B4  C50F  F545         	movff	?___flmul,___fladd@a
  2720   0065B8  C510  F546         	movff	?___flmul+1,___fladd@a+1
  2721   0065BC  C511  F547         	movff	?___flmul+2,___fladd@a+2
  2722   0065C0  C512  F548         	movff	?___flmul+3,___fladd@a+3
  2723   0065C4  EC7A  F03A         	call	___fladd	;wreg free
  2724   0065C8  C541  F551         	movff	?___fladd,?___sindf
  2725   0065CC  C542  F552         	movff	?___fladd+1,?___sindf+1
  2726   0065D0  C543  F553         	movff	?___fladd+2,?___sindf+2
  2727   0065D4  C544  F554         	movff	?___fladd+3,?___sindf+3
  2728   0065D8  0012               	return		;funcret
  2729   0065DA                     __end_of___sindf:
  2730                           	callstack 0
  2731                           
  2732 ;; *************** function ___rem_pio2f *****************
  2733 ;; Defined at:
  2734 ;;		line 44 in file "S:\XC8C\pic\sources\c99\common\__rem_pio2f.c"
  2735 ;; Parameters:    Size  Location     Type
  2736 ;;  x               4   28[BANK5 ] float 
  2737 ;;  y               2   32[BANK5 ] PTR 
  2738 ;;		 -> sinf@y(4), 
  2739 ;; Auto vars:     Size  Location     Type
  2740 ;;  n               4   55[BANK5 ] long 
  2741 ;;  t               4   51[BANK5 ] float 
  2742 ;;  fn              4   47[BANK5 ] float 
  2743 ;;  ux              4   43[BANK5 ] struct .
  2744 ;;  ty              4   34[BANK5 ] [1]
  2745 ;;  sign            1   42[BANK5 ] _Bool 
  2746 ;; Return value:  Size  Location     Type
  2747 ;;                  2   28[BANK5 ] int 
  2748 ;; Registers used:
  2749 ;;		wreg, fsr2l, fsr2h, status,2, status,0, prodl, prodh, cstack
  2750 ;; Tracked objects:
  2751 ;;		On entry : 0/0
  2752 ;;		On exit  : 0/0
  2753 ;;		Unchanged: 0/0
  2754 ;; Data sizes:     COMRAM   BANK5   BANK6   BANK7   BANK8   BANK9  BANK10  BANK11  BANK12
  2755 ;;      Params:         0       6       0       0       0       0       0       0       0
  2756 ;;      Locals:         0      25       0       0       0       0       0       0       0
  2757 ;;      Temps:          2       0       0       0       0       0       0       0       0
  2758 ;;      Totals:         2      31       0       0       0       0       0       0       0
  2759 ;;Total ram usage:       33 bytes
  2760 ;; Hardware stack levels used: 1
  2761 ;; Hardware stack levels required when called: 2
  2762 ;; This function calls:
  2763 ;;		___fladd
  2764 ;;		___flmul
  2765 ;;		___flneg
  2766 ;;		___flsub
  2767 ;;		___fltol
  2768 ;;		___xxtofl
  2769 ;;		_fabsf
  2770 ;; This function is called by:
  2771 ;;		_sinf
  2772 ;; This function uses a non-reentrant model
  2773 ;;
  2774                           
  2775                           	psect	text5
  2776   006D00                     __ptext5:
  2777                           	callstack 0
  2778   006D00                     ___rem_pio2f:
  2779                           	callstack 122
  2780   006D00  C5EF  F58B         	movff	___rem_pio2f@F526,___rem_pio2f@ux
  2781   006D04  C5F0  F58C         	movff	___rem_pio2f@F526+1,___rem_pio2f@ux+1
  2782   006D08  C5F1  F58D         	movff	___rem_pio2f@F526+2,___rem_pio2f@ux+2
  2783   006D0C  C5F2  F58E         	movff	___rem_pio2f@F526+3,___rem_pio2f@ux+3
  2784   006D10  C57C  F58B         	movff	___rem_pio2f@x,___rem_pio2f@ux
  2785   006D14  C57D  F58C         	movff	___rem_pio2f@x+1,___rem_pio2f@ux+1
  2786   006D18  C57E  F58D         	movff	___rem_pio2f@x+2,___rem_pio2f@ux+2
  2787   006D1C  C57F  F58E         	movff	___rem_pio2f@x+3,___rem_pio2f@ux+3
  2788   006D20  0105               	movlb	5	; () banked
  2789   006D22  BF8E               	btfsc	(___rem_pio2f@ux+3)& (0+255),7,b
  2790   006D24  EF96  F036         	goto	u3401
  2791   006D28  EF99  F036         	goto	u3400
  2792   006D2C                     u3401:
  2793   006D2C  0E01               	movlw	1
  2794   006D2E  EF9A  F036         	goto	u3410
  2795   006D32                     u3400:
  2796   006D32  0E00               	movlw	0
  2797   006D34                     u3410:
  2798   006D34  6F8A               	movwf	___rem_pio2f@sign& (0+255),b
  2799   006D36                     
  2800                           ; BSR set to: 5
  2801   006D36  9F8E               	bcf	(___rem_pio2f@ux+3)& (0+255),7,b
  2802   006D38                     
  2803                           ; BSR set to: 5
  2804   006D38  0EDB               	movlw	219
  2805   006D3A  5D8B               	subwf	___rem_pio2f@ux& (0+255),w,b
  2806   006D3C  0E0F               	movlw	15
  2807   006D3E  598C               	subwfb	(___rem_pio2f@ux+1)& (0+255),w,b
  2808   006D40  0EC9               	movlw	201
  2809   006D42  598D               	subwfb	(___rem_pio2f@ux+2)& (0+255),w,b
  2810   006D44  0E4D               	movlw	77
  2811   006D46  598E               	subwfb	(___rem_pio2f@ux+3)& (0+255),w,b
  2812   006D48  B0D8               	btfsc	status,0,c
  2813   006D4A  EFA9  F036         	goto	u3421
  2814   006D4E  EFAB  F036         	goto	u3420
  2815   006D52                     u3421:
  2816   006D52  EF9A  F037         	goto	l3747
  2817   006D56                     u3420:
  2818   006D56                     
  2819                           ; BSR set to: 5
  2820   006D56  C57C  F501         	movff	___rem_pio2f@x,fabsf@x
  2821   006D5A  C57D  F502         	movff	___rem_pio2f@x+1,fabsf@x+1
  2822   006D5E  C57E  F503         	movff	___rem_pio2f@x+2,fabsf@x+2
  2823   006D62  C57F  F504         	movff	___rem_pio2f@x+3,fabsf@x+3
  2824   006D66  EC44  F02A         	call	_fabsf	;wreg free
  2825   006D6A  C501  F593         	movff	?_fabsf,___rem_pio2f@t
  2826   006D6E  C502  F594         	movff	?_fabsf+1,___rem_pio2f@t+1
  2827   006D72  C503  F595         	movff	?_fabsf+2,___rem_pio2f@t+2
  2828   006D76  C504  F596         	movff	?_fabsf+3,___rem_pio2f@t+3
  2829   006D7A  0E00               	movlw	0
  2830   006D7C  6E45               	movwf	___fladd@a^(0+1280),c
  2831   006D7E  0E00               	movlw	0
  2832   006D80  6E46               	movwf	(___fladd@a+1)^(0+1280),c
  2833   006D82  0E00               	movlw	0
  2834   006D84  6E47               	movwf	(___fladd@a+2)^(0+1280),c
  2835   006D86  0E3F               	movlw	63
  2836   006D88  6E48               	movwf	(___fladd@a+3)^(0+1280),c
  2837   006D8A  0E83               	movlw	131
  2838   006D8C  6E13               	movwf	___flmul@a^(0+1280),c
  2839   006D8E  0EF9               	movlw	249
  2840   006D90  6E14               	movwf	(___flmul@a+1)^(0+1280),c
  2841   006D92  0E22               	movlw	34
  2842   006D94  6E15               	movwf	(___flmul@a+2)^(0+1280),c
  2843   006D96  0E3F               	movlw	63
  2844   006D98  6E16               	movwf	(___flmul@a+3)^(0+1280),c
  2845   006D9A  C593  F50F         	movff	___rem_pio2f@t,___flmul@b
  2846   006D9E  C594  F510         	movff	___rem_pio2f@t+1,___flmul@b+1
  2847   006DA2  C595  F511         	movff	___rem_pio2f@t+2,___flmul@b+2
  2848   006DA6  C596  F512         	movff	___rem_pio2f@t+3,___flmul@b+3
  2849   006DAA  EC65  F038         	call	___flmul	;wreg free
  2850   006DAE  C50F  F541         	movff	?___flmul,___fladd@b
  2851   006DB2  C510  F542         	movff	?___flmul+1,___fladd@b+1
  2852   006DB6  C511  F543         	movff	?___flmul+2,___fladd@b+2
  2853   006DBA  C512  F544         	movff	?___flmul+3,___fladd@b+3
  2854   006DBE  EC7A  F03A         	call	___fladd	;wreg free
  2855   006DC2  C541  F551         	movff	?___fladd,___fltol@f1
  2856   006DC6  C542  F552         	movff	?___fladd+1,___fltol@f1+1
  2857   006DCA  C543  F553         	movff	?___fladd+2,___fltol@f1+2
  2858   006DCE  C544  F554         	movff	?___fladd+3,___fltol@f1+3
  2859   006DD2  ECC3  F02C         	call	___fltol	;wreg free
  2860   006DD6  C551  F597         	movff	?___fltol,___rem_pio2f@n
  2861   006DDA  C552  F598         	movff	?___fltol+1,___rem_pio2f@n+1
  2862   006DDE  C553  F599         	movff	?___fltol+2,___rem_pio2f@n+2
  2863   006DE2  C554  F59A         	movff	?___fltol+3,___rem_pio2f@n+3
  2864   006DE6  C597  F501         	movff	___rem_pio2f@n,___xxtofl@val
  2865   006DEA  C598  F502         	movff	___rem_pio2f@n+1,___xxtofl@val+1
  2866   006DEE  C599  F503         	movff	___rem_pio2f@n+2,___xxtofl@val+2
  2867   006DF2  C59A  F504         	movff	___rem_pio2f@n+3,___xxtofl@val+3
  2868   006DF6  0E01               	movlw	1
  2869   006DF8  EC0F  F02E         	call	___xxtofl
  2870   006DFC  C501  F58F         	movff	?___xxtofl,___rem_pio2f@fn
  2871   006E00  C502  F590         	movff	?___xxtofl+1,___rem_pio2f@fn+1
  2872   006E04  C503  F591         	movff	?___xxtofl+2,___rem_pio2f@fn+2
  2873   006E08  C504  F592         	movff	?___xxtofl+3,___rem_pio2f@fn+3
  2874   006E0C  0EDA               	movlw	218
  2875   006E0E  6E13               	movwf	___flmul@a^(0+1280),c
  2876   006E10  0E0F               	movlw	15
  2877   006E12  6E14               	movwf	(___flmul@a+1)^(0+1280),c
  2878   006E14  0EC9               	movlw	201
  2879   006E16  6E15               	movwf	(___flmul@a+2)^(0+1280),c
  2880   006E18  0E3F               	movlw	63
  2881   006E1A  6E16               	movwf	(___flmul@a+3)^(0+1280),c
  2882   006E1C  C58F  F50F         	movff	___rem_pio2f@fn,___flmul@b
  2883   006E20  C590  F510         	movff	___rem_pio2f@fn+1,___flmul@b+1
  2884   006E24  C591  F511         	movff	___rem_pio2f@fn+2,___flmul@b+2
  2885   006E28  C592  F512         	movff	___rem_pio2f@fn+3,___flmul@b+3
  2886   006E2C  EC65  F038         	call	___flmul	;wreg free
  2887   006E30  C50F  F555         	movff	?___flmul,___flsub@a
  2888   006E34  C510  F556         	movff	?___flmul+1,___flsub@a+1
  2889   006E38  C511  F557         	movff	?___flmul+2,___flsub@a+2
  2890   006E3C  C512  F558         	movff	?___flmul+3,___flsub@a+3
  2891   006E40  C593  F551         	movff	___rem_pio2f@t,___flsub@b
  2892   006E44  C594  F552         	movff	___rem_pio2f@t+1,___flsub@b+1
  2893   006E48  C595  F553         	movff	___rem_pio2f@t+2,___flsub@b+2
  2894   006E4C  C596  F554         	movff	___rem_pio2f@t+3,___flsub@b+3
  2895   006E50  EC7B  F02A         	call	___flsub	;wreg free
  2896   006E54  C551  F586         	movff	?___flsub,___rem_pio2f$2381
  2897   006E58  C552  F587         	movff	?___flsub+1,___rem_pio2f$2381+1
  2898   006E5C  C553  F588         	movff	?___flsub+2,___rem_pio2f$2381+2
  2899   006E60  C554  F589         	movff	?___flsub+3,___rem_pio2f$2381+3
  2900   006E64  C586  F551         	movff	___rem_pio2f$2381,___flsub@b
  2901   006E68  C587  F552         	movff	___rem_pio2f$2381+1,___flsub@b+1
  2902   006E6C  C588  F553         	movff	___rem_pio2f$2381+2,___flsub@b+2
  2903   006E70  C589  F554         	movff	___rem_pio2f$2381+3,___flsub@b+3
  2904   006E74  0EA3               	movlw	163
  2905   006E76  6E13               	movwf	___flmul@a^(0+1280),c
  2906   006E78  0E85               	movlw	133
  2907   006E7A  6E14               	movwf	(___flmul@a+1)^(0+1280),c
  2908   006E7C  0E88               	movlw	136
  2909   006E7E  6E15               	movwf	(___flmul@a+2)^(0+1280),c
  2910   006E80  0E32               	movlw	50
  2911   006E82  6E16               	movwf	(___flmul@a+3)^(0+1280),c
  2912   006E84  C58F  F50F         	movff	___rem_pio2f@fn,___flmul@b
  2913   006E88  C590  F510         	movff	___rem_pio2f@fn+1,___flmul@b+1
  2914   006E8C  C591  F511         	movff	___rem_pio2f@fn+2,___flmul@b+2
  2915   006E90  C592  F512         	movff	___rem_pio2f@fn+3,___flmul@b+3
  2916   006E94  EC65  F038         	call	___flmul	;wreg free
  2917   006E98  C50F  F555         	movff	?___flmul,___flsub@a
  2918   006E9C  C510  F556         	movff	?___flmul+1,___flsub@a+1
  2919   006EA0  C511  F557         	movff	?___flmul+2,___flsub@a+2
  2920   006EA4  C512  F558         	movff	?___flmul+3,___flsub@a+3
  2921   006EA8  EC7B  F02A         	call	___flsub	;wreg free
  2922   006EAC  C580  F4D9         	movff	___rem_pio2f@y,fsr2l
  2923   006EB0  C581  F4DA         	movff	___rem_pio2f@y+1,fsr2h
  2924   006EB4  C551  F4DE         	movff	?___flsub,postinc2
  2925   006EB8  C552  F4DE         	movff	?___flsub+1,postinc2
  2926   006EBC  C553  F4DE         	movff	?___flsub+2,postinc2
  2927   006EC0  C554  F4DE         	movff	?___flsub+3,postinc2
  2928   006EC4  0105               	movlb	5	; () banked
  2929   006EC6  518A               	movf	___rem_pio2f@sign& (0+255),w,b
  2930   006EC8  B4D8               	btfsc	status,2,c
  2931   006ECA  EF69  F037         	goto	u3431
  2932   006ECE  EF6B  F037         	goto	u3430
  2933   006ED2                     u3431:
  2934   006ED2  EF94  F037         	goto	l1567
  2935   006ED6                     u3430:
  2936   006ED6                     l3741:
  2937                           
  2938                           ; BSR set to: 5
  2939   006ED6  C580  F4D9         	movff	___rem_pio2f@y,fsr2l
  2940   006EDA  C581  F4DA         	movff	___rem_pio2f@y+1,fsr2h
  2941   006EDE  C4DE F578          	movff	postinc2,___flneg@f1
  2942   006EE2  C4DE F579          	movff	postinc2,___flneg@f1+1
  2943   006EE6  C4DE F57A          	movff	postinc2,___flneg@f1+2
  2944   006EEA  C4DE F57B          	movff	postinc2,___flneg@f1+3
  2945   006EEE  EC5E  F02A         	call	___flneg	;wreg free
  2946   006EF2  C580  F4D9         	movff	___rem_pio2f@y,fsr2l
  2947   006EF6  C581  F4DA         	movff	___rem_pio2f@y+1,fsr2h
  2948   006EFA  0105               	movlb	5	; () banked
  2949   006EFC  C578  F4DE         	movff	?___flneg,postinc2
  2950   006F00  C579  F4DE         	movff	?___flneg+1,postinc2
  2951   006F04  C57A  F4DE         	movff	?___flneg+2,postinc2
  2952   006F08  C57B  F4DE         	movff	?___flneg+3,postinc2
  2953   006F0C                     
  2954                           ; BSR set to: 5
  2955   006F0C  C597  F55B         	movff	___rem_pio2f@n,??___rem_pio2f
  2956   006F10  C598  F55C         	movff	___rem_pio2f@n+1,??___rem_pio2f+1
  2957   006F14  1E5B               	comf	??___rem_pio2f^(0+1280),f,c
  2958   006F16  1E5C               	comf	(??___rem_pio2f+1)^(0+1280),f,c
  2959   006F18  4A5B               	infsnz	??___rem_pio2f^(0+1280),f,c
  2960   006F1A  2A5C               	incf	(??___rem_pio2f+1)^(0+1280),f,c
  2961   006F1C  C55B  F57C         	movff	??___rem_pio2f,?___rem_pio2f
  2962   006F20  C55C  F57D         	movff	??___rem_pio2f+1,?___rem_pio2f+1
  2963   006F24  EF64  F038         	goto	l1568
  2964   006F28                     l1567:
  2965                           
  2966                           ; BSR set to: 5
  2967   006F28  C597  F57C         	movff	___rem_pio2f@n,?___rem_pio2f
  2968   006F2C  C598  F57D         	movff	___rem_pio2f@n+1,?___rem_pio2f+1
  2969   006F30  EF64  F038         	goto	l1568
  2970   006F34                     l3747:
  2971                           
  2972                           ; BSR set to: 5
  2973   006F34  C57C  F501         	movff	___rem_pio2f@x,fabsf@x
  2974   006F38  C57D  F502         	movff	___rem_pio2f@x+1,fabsf@x+1
  2975   006F3C  C57E  F503         	movff	___rem_pio2f@x+2,fabsf@x+2
  2976   006F40  C57F  F504         	movff	___rem_pio2f@x+3,fabsf@x+3
  2977   006F44  EC44  F02A         	call	_fabsf	;wreg free
  2978   006F48  C501  F593         	movff	?_fabsf,___rem_pio2f@t
  2979   006F4C  C502  F594         	movff	?_fabsf+1,___rem_pio2f@t+1
  2980   006F50  C503  F595         	movff	?_fabsf+2,___rem_pio2f@t+2
  2981   006F54  C504  F596         	movff	?_fabsf+3,___rem_pio2f@t+3
  2982   006F58  0E00               	movlw	0
  2983   006F5A  6E45               	movwf	___fladd@a^(0+1280),c
  2984   006F5C  0E00               	movlw	0
  2985   006F5E  6E46               	movwf	(___fladd@a+1)^(0+1280),c
  2986   006F60  0E00               	movlw	0
  2987   006F62  6E47               	movwf	(___fladd@a+2)^(0+1280),c
  2988   006F64  0E3F               	movlw	63
  2989   006F66  6E48               	movwf	(___fladd@a+3)^(0+1280),c
  2990   006F68  0E83               	movlw	131
  2991   006F6A  6E13               	movwf	___flmul@a^(0+1280),c
  2992   006F6C  0EF9               	movlw	249
  2993   006F6E  6E14               	movwf	(___flmul@a+1)^(0+1280),c
  2994   006F70  0E22               	movlw	34
  2995   006F72  6E15               	movwf	(___flmul@a+2)^(0+1280),c
  2996   006F74  0E3F               	movlw	63
  2997   006F76  6E16               	movwf	(___flmul@a+3)^(0+1280),c
  2998   006F78  C593  F50F         	movff	___rem_pio2f@t,___flmul@b
  2999   006F7C  C594  F510         	movff	___rem_pio2f@t+1,___flmul@b+1
  3000   006F80  C595  F511         	movff	___rem_pio2f@t+2,___flmul@b+2
  3001   006F84  C596  F512         	movff	___rem_pio2f@t+3,___flmul@b+3
  3002   006F88  EC65  F038         	call	___flmul	;wreg free
  3003   006F8C  C50F  F541         	movff	?___flmul,___fladd@b
  3004   006F90  C510  F542         	movff	?___flmul+1,___fladd@b+1
  3005   006F94  C511  F543         	movff	?___flmul+2,___fladd@b+2
  3006   006F98  C512  F544         	movff	?___flmul+3,___fladd@b+3
  3007   006F9C  EC7A  F03A         	call	___fladd	;wreg free
  3008   006FA0  C541  F551         	movff	?___fladd,___fltol@f1
  3009   006FA4  C542  F552         	movff	?___fladd+1,___fltol@f1+1
  3010   006FA8  C543  F553         	movff	?___fladd+2,___fltol@f1+2
  3011   006FAC  C544  F554         	movff	?___fladd+3,___fltol@f1+3
  3012   006FB0  ECC3  F02C         	call	___fltol	;wreg free
  3013   006FB4  C551  F597         	movff	?___fltol,___rem_pio2f@n
  3014   006FB8  C552  F598         	movff	?___fltol+1,___rem_pio2f@n+1
  3015   006FBC  C553  F599         	movff	?___fltol+2,___rem_pio2f@n+2
  3016   006FC0  C554  F59A         	movff	?___fltol+3,___rem_pio2f@n+3
  3017   006FC4  C597  F501         	movff	___rem_pio2f@n,___xxtofl@val
  3018   006FC8  C598  F502         	movff	___rem_pio2f@n+1,___xxtofl@val+1
  3019   006FCC  C599  F503         	movff	___rem_pio2f@n+2,___xxtofl@val+2
  3020   006FD0  C59A  F504         	movff	___rem_pio2f@n+3,___xxtofl@val+3
  3021   006FD4  0E01               	movlw	1
  3022   006FD6  EC0F  F02E         	call	___xxtofl
  3023   006FDA  C501  F58F         	movff	?___xxtofl,___rem_pio2f@fn
  3024   006FDE  C502  F590         	movff	?___xxtofl+1,___rem_pio2f@fn+1
  3025   006FE2  C503  F591         	movff	?___xxtofl+2,___rem_pio2f@fn+2
  3026   006FE6  C504  F592         	movff	?___xxtofl+3,___rem_pio2f@fn+3
  3027   006FEA  0EDA               	movlw	218
  3028   006FEC  6E13               	movwf	___flmul@a^(0+1280),c
  3029   006FEE  0E0F               	movlw	15
  3030   006FF0  6E14               	movwf	(___flmul@a+1)^(0+1280),c
  3031   006FF2  0EC9               	movlw	201
  3032   006FF4  6E15               	movwf	(___flmul@a+2)^(0+1280),c
  3033   006FF6  0E3F               	movlw	63
  3034   006FF8  6E16               	movwf	(___flmul@a+3)^(0+1280),c
  3035   006FFA  C58F  F50F         	movff	___rem_pio2f@fn,___flmul@b
  3036   006FFE  C590  F510         	movff	___rem_pio2f@fn+1,___flmul@b+1
  3037   007002  C591  F511         	movff	___rem_pio2f@fn+2,___flmul@b+2
  3038   007006  C592  F512         	movff	___rem_pio2f@fn+3,___flmul@b+3
  3039   00700A  EC65  F038         	call	___flmul	;wreg free
  3040   00700E  C50F  F555         	movff	?___flmul,___flsub@a
  3041   007012  C510  F556         	movff	?___flmul+1,___flsub@a+1
  3042   007016  C511  F557         	movff	?___flmul+2,___flsub@a+2
  3043   00701A  C512  F558         	movff	?___flmul+3,___flsub@a+3
  3044   00701E  C593  F551         	movff	___rem_pio2f@t,___flsub@b
  3045   007022  C594  F552         	movff	___rem_pio2f@t+1,___flsub@b+1
  3046   007026  C595  F553         	movff	___rem_pio2f@t+2,___flsub@b+2
  3047   00702A  C596  F554         	movff	___rem_pio2f@t+3,___flsub@b+3
  3048   00702E  EC7B  F02A         	call	___flsub	;wreg free
  3049   007032  C551  F586         	movff	?___flsub,___rem_pio2f$2381
  3050   007036  C552  F587         	movff	?___flsub+1,___rem_pio2f$2381+1
  3051   00703A  C553  F588         	movff	?___flsub+2,___rem_pio2f$2381+2
  3052   00703E  C554  F589         	movff	?___flsub+3,___rem_pio2f$2381+3
  3053   007042  C586  F551         	movff	___rem_pio2f$2381,___flsub@b
  3054   007046  C587  F552         	movff	___rem_pio2f$2381+1,___flsub@b+1
  3055   00704A  C588  F553         	movff	___rem_pio2f$2381+2,___flsub@b+2
  3056   00704E  C589  F554         	movff	___rem_pio2f$2381+3,___flsub@b+3
  3057   007052  0EA3               	movlw	163
  3058   007054  6E13               	movwf	___flmul@a^(0+1280),c
  3059   007056  0E85               	movlw	133
  3060   007058  6E14               	movwf	(___flmul@a+1)^(0+1280),c
  3061   00705A  0E88               	movlw	136
  3062   00705C  6E15               	movwf	(___flmul@a+2)^(0+1280),c
  3063   00705E  0E32               	movlw	50
  3064   007060  6E16               	movwf	(___flmul@a+3)^(0+1280),c
  3065   007062  C58F  F50F         	movff	___rem_pio2f@fn,___flmul@b
  3066   007066  C590  F510         	movff	___rem_pio2f@fn+1,___flmul@b+1
  3067   00706A  C591  F511         	movff	___rem_pio2f@fn+2,___flmul@b+2
  3068   00706E  C592  F512         	movff	___rem_pio2f@fn+3,___flmul@b+3
  3069   007072  EC65  F038         	call	___flmul	;wreg free
  3070   007076  C50F  F555         	movff	?___flmul,___flsub@a
  3071   00707A  C510  F556         	movff	?___flmul+1,___flsub@a+1
  3072   00707E  C511  F557         	movff	?___flmul+2,___flsub@a+2
  3073   007082  C512  F558         	movff	?___flmul+3,___flsub@a+3
  3074   007086  EC7B  F02A         	call	___flsub	;wreg free
  3075   00708A  C551  F582         	movff	?___flsub,___rem_pio2f@ty
  3076   00708E  C552  F583         	movff	?___flsub+1,___rem_pio2f@ty+1
  3077   007092  C553  F584         	movff	?___flsub+2,___rem_pio2f@ty+2
  3078   007096  C554  F585         	movff	?___flsub+3,___rem_pio2f@ty+3
  3079   00709A  C580  F4D9         	movff	___rem_pio2f@y,fsr2l
  3080   00709E  C581  F4DA         	movff	___rem_pio2f@y+1,fsr2h
  3081   0070A2  C582  F4DE         	movff	___rem_pio2f@ty,postinc2
  3082   0070A6  C583  F4DE         	movff	___rem_pio2f@ty+1,postinc2
  3083   0070AA  C584  F4DE         	movff	___rem_pio2f@ty+2,postinc2
  3084   0070AE  C585  F4DE         	movff	___rem_pio2f@ty+3,postinc2
  3085   0070B2  0105               	movlb	5	; () banked
  3086   0070B4  518A               	movf	___rem_pio2f@sign& (0+255),w,b
  3087   0070B6  B4D8               	btfsc	status,2,c
  3088   0070B8  EF60  F038         	goto	u3441
  3089   0070BC  EF62  F038         	goto	u3440
  3090   0070C0                     u3441:
  3091   0070C0  EF94  F037         	goto	l1567
  3092   0070C4                     u3440:
  3093   0070C4  EF6B  F037         	goto	l3741
  3094   0070C8                     l1568:
  3095                           
  3096                           ; BSR set to: 5
  3097   0070C8  0012               	return		;funcret
  3098   0070CA                     __end_of___rem_pio2f:
  3099                           	callstack 0
  3100                           
  3101 ;; *************** function _fabsf *****************
  3102 ;; Defined at:
  3103 ;;		line 4 in file "S:\XC8C\pic\sources\c99\common\fabsf.c"
  3104 ;; Parameters:    Size  Location     Type
  3105 ;;  x               4    0[COMRAM] float 
  3106 ;; Auto vars:     Size  Location     Type
  3107 ;;  u               4    4[COMRAM] struct .
  3108 ;; Return value:  Size  Location     Type
  3109 ;;                  4    0[COMRAM] float 
  3110 ;; Registers used:
  3111 ;;		status,2, status,0
  3112 ;; Tracked objects:
  3113 ;;		On entry : 0/0
  3114 ;;		On exit  : 0/0
  3115 ;;		Unchanged: 0/0
  3116 ;; Data sizes:     COMRAM   BANK5   BANK6   BANK7   BANK8   BANK9  BANK10  BANK11  BANK12
  3117 ;;      Params:         4       0       0       0       0       0       0       0       0
  3118 ;;      Locals:         4       0       0       0       0       0       0       0       0
  3119 ;;      Temps:          0       0       0       0       0       0       0       0       0
  3120 ;;      Totals:         8       0       0       0       0       0       0       0       0
  3121 ;;Total ram usage:        8 bytes
  3122 ;; Hardware stack levels used: 1
  3123 ;; This function calls:
  3124 ;;		Nothing
  3125 ;; This function is called by:
  3126 ;;		___rem_pio2f
  3127 ;; This function uses a non-reentrant model
  3128 ;;
  3129                           
  3130                           	psect	text6
  3131   005488                     __ptext6:
  3132                           	callstack 0
  3133   005488                     _fabsf:
  3134                           	callstack 123
  3135   005488  C5EB  F505         	movff	fabsf@F465,fabsf@u
  3136   00548C  C5EC  F506         	movff	fabsf@F465+1,fabsf@u+1
  3137   005490  C5ED  F507         	movff	fabsf@F465+2,fabsf@u+2
  3138   005494  C5EE  F508         	movff	fabsf@F465+3,fabsf@u+3
  3139   005498  C501  F505         	movff	fabsf@x,fabsf@u
  3140   00549C  C502  F506         	movff	fabsf@x+1,fabsf@u+1
  3141   0054A0  C503  F507         	movff	fabsf@x+2,fabsf@u+2
  3142   0054A4  C504  F508         	movff	fabsf@x+3,fabsf@u+3
  3143   0054A8  9E08               	bcf	(fabsf@u+3)^(0+1280),7,c
  3144   0054AA  C505  F501         	movff	fabsf@u,?_fabsf
  3145   0054AE  C506  F502         	movff	fabsf@u+1,?_fabsf+1
  3146   0054B2  C507  F503         	movff	fabsf@u+2,?_fabsf+2
  3147   0054B6  C508  F504         	movff	fabsf@u+3,?_fabsf+3
  3148   0054BA  0012               	return		;funcret
  3149   0054BC                     __end_of_fabsf:
  3150                           	callstack 0
  3151                           
  3152 ;; *************** function ___xxtofl *****************
  3153 ;; Defined at:
  3154 ;;		line 10 in file "S:\XC8C\pic\sources\c99\common\xxtofl.c"
  3155 ;; Parameters:    Size  Location     Type
  3156 ;;  sign            1    wreg     unsigned char 
  3157 ;;  val             4    0[COMRAM] long 
  3158 ;; Auto vars:     Size  Location     Type
  3159 ;;  sign            1    8[COMRAM] unsigned char 
  3160 ;;  arg             4   10[COMRAM] unsigned long 
  3161 ;;  exp             1    9[COMRAM] unsigned char 
  3162 ;; Return value:  Size  Location     Type
  3163 ;;                  4    0[COMRAM] unsigned char 
  3164 ;; Registers used:
  3165 ;;		wreg, status,2, status,0
  3166 ;; Tracked objects:
  3167 ;;		On entry : 0/0
  3168 ;;		On exit  : 0/0
  3169 ;;		Unchanged: 0/0
  3170 ;; Data sizes:     COMRAM   BANK5   BANK6   BANK7   BANK8   BANK9  BANK10  BANK11  BANK12
  3171 ;;      Params:         4       0       0       0       0       0       0       0       0
  3172 ;;      Locals:         6       0       0       0       0       0       0       0       0
  3173 ;;      Temps:          4       0       0       0       0       0       0       0       0
  3174 ;;      Totals:        14       0       0       0       0       0       0       0       0
  3175 ;;Total ram usage:       14 bytes
  3176 ;; Hardware stack levels used: 1
  3177 ;; This function calls:
  3178 ;;		Nothing
  3179 ;; This function is called by:
  3180 ;;		_vGenerateSinus
  3181 ;;		___rem_pio2f
  3182 ;; This function uses a non-reentrant model
  3183 ;;
  3184                           
  3185                           	psect	text7
  3186   005C1E                     __ptext7:
  3187                           	callstack 0
  3188   005C1E                     ___xxtofl:
  3189                           	callstack 123
  3190                           
  3191                           ;incstack = 0
  3192                           ;___xxtofl@sign stored from wreg
  3193   005C1E  6E09               	movwf	___xxtofl@sign^(0+1280),c
  3194   005C20  5009               	movf	___xxtofl@sign^(0+1280),w,c
  3195   005C22  B4D8               	btfsc	status,2,c
  3196   005C24  EF16  F02E         	goto	u3291
  3197   005C28  EF18  F02E         	goto	u3290
  3198   005C2C                     u3291:
  3199   005C2C  EF3A  F02E         	goto	l1356
  3200   005C30                     u3290:
  3201   005C30  BE04               	btfsc	(___xxtofl@val+3)^(0+1280),7,c
  3202   005C32  EF1F  F02E         	goto	u3300
  3203   005C36  EF1D  F02E         	goto	u3301
  3204   005C3A                     u3301:
  3205   005C3A  EF3A  F02E         	goto	l1356
  3206   005C3E                     u3300:
  3207   005C3E  C501  F505         	movff	___xxtofl@val,??___xxtofl
  3208   005C42  C502  F506         	movff	___xxtofl@val+1,??___xxtofl+1
  3209   005C46  C503  F507         	movff	___xxtofl@val+2,??___xxtofl+2
  3210   005C4A  C504  F508         	movff	___xxtofl@val+3,??___xxtofl+3
  3211   005C4E  1E05               	comf	??___xxtofl^(0+1280),f,c
  3212   005C50  1E06               	comf	(??___xxtofl+1)^(0+1280),f,c
  3213   005C52  1E07               	comf	(??___xxtofl+2)^(0+1280),f,c
  3214   005C54  1E08               	comf	(??___xxtofl+3)^(0+1280),f,c
  3215   005C56  2A05               	incf	??___xxtofl^(0+1280),f,c
  3216   005C58  0E00               	movlw	0
  3217   005C5A  2206               	addwfc	(??___xxtofl+1)^(0+1280),f,c
  3218   005C5C  2207               	addwfc	(??___xxtofl+2)^(0+1280),f,c
  3219   005C5E  2208               	addwfc	(??___xxtofl+3)^(0+1280),f,c
  3220   005C60  C505  F50B         	movff	??___xxtofl,___xxtofl@arg
  3221   005C64  C506  F50C         	movff	??___xxtofl+1,___xxtofl@arg+1
  3222   005C68  C507  F50D         	movff	??___xxtofl+2,___xxtofl@arg+2
  3223   005C6C  C508  F50E         	movff	??___xxtofl+3,___xxtofl@arg+3
  3224   005C70  EF42  F02E         	goto	l3625
  3225   005C74                     l1356:
  3226   005C74  C501  F50B         	movff	___xxtofl@val,___xxtofl@arg
  3227   005C78  C502  F50C         	movff	___xxtofl@val+1,___xxtofl@arg+1
  3228   005C7C  C503  F50D         	movff	___xxtofl@val+2,___xxtofl@arg+2
  3229   005C80  C504  F50E         	movff	___xxtofl@val+3,___xxtofl@arg+3
  3230   005C84                     l3625:
  3231   005C84  5001               	movf	___xxtofl@val^(0+1280),w,c
  3232   005C86  1002               	iorwf	(___xxtofl@val+1)^(0+1280),w,c
  3233   005C88  1003               	iorwf	(___xxtofl@val+2)^(0+1280),w,c
  3234   005C8A  1004               	iorwf	(___xxtofl@val+3)^(0+1280),w,c
  3235   005C8C  A4D8               	btfss	status,2,c
  3236   005C8E  EF4B  F02E         	goto	u3311
  3237   005C92  EF4D  F02E         	goto	u3310
  3238   005C96                     u3311:
  3239   005C96  EF57  F02E         	goto	l3631
  3240   005C9A                     u3310:
  3241   005C9A  0E00               	movlw	0
  3242   005C9C  6E01               	movwf	?___xxtofl^(0+1280),c
  3243   005C9E  0E00               	movlw	0
  3244   005CA0  6E02               	movwf	(?___xxtofl+1)^(0+1280),c
  3245   005CA2  0E00               	movlw	0
  3246   005CA4  6E03               	movwf	(?___xxtofl+2)^(0+1280),c
  3247   005CA6  0E00               	movlw	0
  3248   005CA8  6E04               	movwf	(?___xxtofl+3)^(0+1280),c
  3249   005CAA  EFE8  F02E         	goto	l1359
  3250   005CAE                     l3631:
  3251   005CAE  0E96               	movlw	150
  3252   005CB0  6E0A               	movwf	___xxtofl@exp^(0+1280),c
  3253   005CB2  EF61  F02E         	goto	l3635
  3254   005CB6                     l3633:
  3255   005CB6  2A0A               	incf	___xxtofl@exp^(0+1280),f,c
  3256   005CB8  90D8               	bcf	status,0,c
  3257   005CBA  320E               	rrcf	(___xxtofl@arg+3)^(0+1280),f,c
  3258   005CBC  320D               	rrcf	(___xxtofl@arg+2)^(0+1280),f,c
  3259   005CBE  320C               	rrcf	(___xxtofl@arg+1)^(0+1280),f,c
  3260   005CC0  320B               	rrcf	___xxtofl@arg^(0+1280),f,c
  3261   005CC2                     l3635:
  3262   005CC2  0E00               	movlw	0
  3263   005CC4  140B               	andwf	___xxtofl@arg^(0+1280),w,c
  3264   005CC6  6E05               	movwf	??___xxtofl^(0+1280),c
  3265   005CC8  0E00               	movlw	0
  3266   005CCA  140C               	andwf	(___xxtofl@arg+1)^(0+1280),w,c
  3267   005CCC  6E06               	movwf	(??___xxtofl+1)^(0+1280),c
  3268   005CCE  0E00               	movlw	0
  3269   005CD0  140D               	andwf	(___xxtofl@arg+2)^(0+1280),w,c
  3270   005CD2  6E07               	movwf	(??___xxtofl+2)^(0+1280),c
  3271   005CD4  0EFE               	movlw	254
  3272   005CD6  140E               	andwf	(___xxtofl@arg+3)^(0+1280),w,c
  3273   005CD8  6E08               	movwf	(??___xxtofl+3)^(0+1280),c
  3274   005CDA  5005               	movf	??___xxtofl^(0+1280),w,c
  3275   005CDC  1006               	iorwf	(??___xxtofl+1)^(0+1280),w,c
  3276   005CDE  1007               	iorwf	(??___xxtofl+2)^(0+1280),w,c
  3277   005CE0  1008               	iorwf	(??___xxtofl+3)^(0+1280),w,c
  3278   005CE2  A4D8               	btfss	status,2,c
  3279   005CE4  EF76  F02E         	goto	u3321
  3280   005CE8  EF78  F02E         	goto	u3320
  3281   005CEC                     u3321:
  3282   005CEC  EF5B  F02E         	goto	l3633
  3283   005CF0                     u3320:
  3284   005CF0  EF86  F02E         	goto	l1363
  3285   005CF4                     l3637:
  3286   005CF4  2A0A               	incf	___xxtofl@exp^(0+1280),f,c
  3287   005CF6  0E01               	movlw	1
  3288   005CF8  260B               	addwf	___xxtofl@arg^(0+1280),f,c
  3289   005CFA  0E00               	movlw	0
  3290   005CFC  220C               	addwfc	(___xxtofl@arg+1)^(0+1280),f,c
  3291   005CFE  220D               	addwfc	(___xxtofl@arg+2)^(0+1280),f,c
  3292   005D00  220E               	addwfc	(___xxtofl@arg+3)^(0+1280),f,c
  3293   005D02  90D8               	bcf	status,0,c
  3294   005D04  320E               	rrcf	(___xxtofl@arg+3)^(0+1280),f,c
  3295   005D06  320D               	rrcf	(___xxtofl@arg+2)^(0+1280),f,c
  3296   005D08  320C               	rrcf	(___xxtofl@arg+1)^(0+1280),f,c
  3297   005D0A  320B               	rrcf	___xxtofl@arg^(0+1280),f,c
  3298   005D0C                     l1363:
  3299   005D0C  0E00               	movlw	0
  3300   005D0E  140B               	andwf	___xxtofl@arg^(0+1280),w,c
  3301   005D10  6E05               	movwf	??___xxtofl^(0+1280),c
  3302   005D12  0E00               	movlw	0
  3303   005D14  140C               	andwf	(___xxtofl@arg+1)^(0+1280),w,c
  3304   005D16  6E06               	movwf	(??___xxtofl+1)^(0+1280),c
  3305   005D18  0E00               	movlw	0
  3306   005D1A  140D               	andwf	(___xxtofl@arg+2)^(0+1280),w,c
  3307   005D1C  6E07               	movwf	(??___xxtofl+2)^(0+1280),c
  3308   005D1E  0EFF               	movlw	255
  3309   005D20  140E               	andwf	(___xxtofl@arg+3)^(0+1280),w,c
  3310   005D22  6E08               	movwf	(??___xxtofl+3)^(0+1280),c
  3311   005D24  5005               	movf	??___xxtofl^(0+1280),w,c
  3312   005D26  1006               	iorwf	(??___xxtofl+1)^(0+1280),w,c
  3313   005D28  1007               	iorwf	(??___xxtofl+2)^(0+1280),w,c
  3314   005D2A  1008               	iorwf	(??___xxtofl+3)^(0+1280),w,c
  3315   005D2C  A4D8               	btfss	status,2,c
  3316   005D2E  EF9B  F02E         	goto	u3331
  3317   005D32  EF9D  F02E         	goto	u3330
  3318   005D36                     u3331:
  3319   005D36  EF7A  F02E         	goto	l3637
  3320   005D3A                     u3330:
  3321   005D3A  EFA5  F02E         	goto	l3645
  3322   005D3E                     l3643:
  3323   005D3E  060A               	decf	___xxtofl@exp^(0+1280),f,c
  3324   005D40  90D8               	bcf	status,0,c
  3325   005D42  360B               	rlcf	___xxtofl@arg^(0+1280),f,c
  3326   005D44  360C               	rlcf	(___xxtofl@arg+1)^(0+1280),f,c
  3327   005D46  360D               	rlcf	(___xxtofl@arg+2)^(0+1280),f,c
  3328   005D48  360E               	rlcf	(___xxtofl@arg+3)^(0+1280),f,c
  3329   005D4A                     l3645:
  3330   005D4A  BE0D               	btfsc	(___xxtofl@arg+2)^(0+1280),7,c
  3331   005D4C  EFAA  F02E         	goto	u3341
  3332   005D50  EFAC  F02E         	goto	u3340
  3333   005D54                     u3341:
  3334   005D54  EFB4  F02E         	goto	l1370
  3335   005D58                     u3340:
  3336   005D58  0E02               	movlw	2
  3337   005D5A  600A               	cpfslt	___xxtofl@exp^(0+1280),c
  3338   005D5C  EFB2  F02E         	goto	u3351
  3339   005D60  EFB4  F02E         	goto	u3350
  3340   005D64                     u3351:
  3341   005D64  EF9F  F02E         	goto	l3643
  3342   005D68                     u3350:
  3343   005D68                     l1370:
  3344   005D68  B00A               	btfsc	___xxtofl@exp^(0+1280),0,c
  3345   005D6A  EFB9  F02E         	goto	u3361
  3346   005D6E  EFBB  F02E         	goto	u3360
  3347   005D72                     u3361:
  3348   005D72  EFBC  F02E         	goto	l3651
  3349   005D76                     u3360:
  3350   005D76  9E0D               	bcf	(___xxtofl@arg+2)^(0+1280),7,c
  3351   005D78                     l3651:
  3352   005D78  90D8               	bcf	status,0,c
  3353   005D7A  320A               	rrcf	___xxtofl@exp^(0+1280),f,c
  3354   005D7C  C50A  F505         	movff	___xxtofl@exp,??___xxtofl
  3355   005D80  6A06               	clrf	(??___xxtofl+1)^(0+1280),c
  3356   005D82  6A07               	clrf	(??___xxtofl+2)^(0+1280),c
  3357   005D84  6A08               	clrf	(??___xxtofl+3)^(0+1280),c
  3358   005D86  C505  F508         	movff	??___xxtofl,??___xxtofl+3
  3359   005D8A  6A07               	clrf	(??___xxtofl+2)^(0+1280),c
  3360   005D8C  6A06               	clrf	(??___xxtofl+1)^(0+1280),c
  3361   005D8E  6A05               	clrf	??___xxtofl^(0+1280),c
  3362   005D90  5005               	movf	??___xxtofl^(0+1280),w,c
  3363   005D92  120B               	iorwf	___xxtofl@arg^(0+1280),f,c
  3364   005D94  5006               	movf	(??___xxtofl+1)^(0+1280),w,c
  3365   005D96  120C               	iorwf	(___xxtofl@arg+1)^(0+1280),f,c
  3366   005D98  5007               	movf	(??___xxtofl+2)^(0+1280),w,c
  3367   005D9A  120D               	iorwf	(___xxtofl@arg+2)^(0+1280),f,c
  3368   005D9C  5008               	movf	(??___xxtofl+3)^(0+1280),w,c
  3369   005D9E  120E               	iorwf	(___xxtofl@arg+3)^(0+1280),f,c
  3370   005DA0  5009               	movf	___xxtofl@sign^(0+1280),w,c
  3371   005DA2  B4D8               	btfsc	status,2,c
  3372   005DA4  EFD6  F02E         	goto	u3371
  3373   005DA8  EFD8  F02E         	goto	u3370
  3374   005DAC                     u3371:
  3375   005DAC  EFE0  F02E         	goto	l3661
  3376   005DB0                     u3370:
  3377   005DB0  BE04               	btfsc	(___xxtofl@val+3)^(0+1280),7,c
  3378   005DB2  EFDF  F02E         	goto	u3380
  3379   005DB6  EFDD  F02E         	goto	u3381
  3380   005DBA                     u3381:
  3381   005DBA  EFE0  F02E         	goto	l3661
  3382   005DBE                     u3380:
  3383   005DBE  8E0E               	bsf	(___xxtofl@arg+3)^(0+1280),7,c
  3384   005DC0                     l3661:
  3385   005DC0  C50B  F501         	movff	___xxtofl@arg,?___xxtofl
  3386   005DC4  C50C  F502         	movff	___xxtofl@arg+1,?___xxtofl+1
  3387   005DC8  C50D  F503         	movff	___xxtofl@arg+2,?___xxtofl+2
  3388   005DCC  C50E  F504         	movff	___xxtofl@arg+3,?___xxtofl+3
  3389   005DD0                     l1359:
  3390   005DD0  0012               	return		;funcret
  3391   005DD2                     __end_of___xxtofl:
  3392                           	callstack 0
  3393                           
  3394 ;; *************** function ___fltol *****************
  3395 ;; Defined at:
  3396 ;;		line 43 in file "S:\XC8C\pic\sources\c99\common\fltol.c"
  3397 ;; Parameters:    Size  Location     Type
  3398 ;;  f1              4   80[COMRAM] unsigned char 
  3399 ;; Auto vars:     Size  Location     Type
  3400 ;;  exp1            1   89[COMRAM] unsigned char 
  3401 ;;  sign1           1   88[COMRAM] unsigned char 
  3402 ;; Return value:  Size  Location     Type
  3403 ;;                  4   80[COMRAM] long 
  3404 ;; Registers used:
  3405 ;;		wreg, status,2, status,0
  3406 ;; Tracked objects:
  3407 ;;		On entry : 0/0
  3408 ;;		On exit  : 0/0
  3409 ;;		Unchanged: 0/0
  3410 ;; Data sizes:     COMRAM   BANK5   BANK6   BANK7   BANK8   BANK9  BANK10  BANK11  BANK12
  3411 ;;      Params:         4       0       0       0       0       0       0       0       0
  3412 ;;      Locals:         2       0       0       0       0       0       0       0       0
  3413 ;;      Temps:          4       0       0       0       0       0       0       0       0
  3414 ;;      Totals:        10       0       0       0       0       0       0       0       0
  3415 ;;Total ram usage:       10 bytes
  3416 ;; Hardware stack levels used: 1
  3417 ;; This function calls:
  3418 ;;		Nothing
  3419 ;; This function is called by:
  3420 ;;		_vGenerateSinus
  3421 ;;		___rem_pio2f
  3422 ;; This function uses a non-reentrant model
  3423 ;;
  3424                           
  3425                           	psect	text8
  3426   005986                     __ptext8:
  3427                           	callstack 0
  3428   005986                     ___fltol:
  3429                           	callstack 123
  3430   005986  3453               	rlcf	(___fltol@f1+2)^(0+1280),w,c
  3431   005988  3454               	rlcf	(___fltol@f1+3)^(0+1280),w,c
  3432   00598A  6E5A               	movwf	___fltol@exp1^(0+1280),c
  3433   00598C  505A               	movf	___fltol@exp1^(0+1280),w,c
  3434   00598E  A4D8               	btfss	status,2,c
  3435   005990  EFCC  F02C         	goto	u3221
  3436   005994  EFCE  F02C         	goto	u3220
  3437   005998                     u3221:
  3438   005998  EFD8  F02C         	goto	l3581
  3439   00599C                     u3220:
  3440   00599C                     l3577:
  3441   00599C  0E00               	movlw	0
  3442   00599E  6E51               	movwf	?___fltol^(0+1280),c
  3443   0059A0  0E00               	movlw	0
  3444   0059A2  6E52               	movwf	(?___fltol+1)^(0+1280),c
  3445   0059A4  0E00               	movlw	0
  3446   0059A6  6E53               	movwf	(?___fltol+2)^(0+1280),c
  3447   0059A8  0E00               	movlw	0
  3448   0059AA  6E54               	movwf	(?___fltol+3)^(0+1280),c
  3449   0059AC  EF45  F02D         	goto	l998
  3450   0059B0                     l3581:
  3451   0059B0  C551  F555         	movff	___fltol@f1,??___fltol
  3452   0059B4  C552  F556         	movff	___fltol@f1+1,??___fltol+1
  3453   0059B8  C553  F557         	movff	___fltol@f1+2,??___fltol+2
  3454   0059BC  C554  F558         	movff	___fltol@f1+3,??___fltol+3
  3455   0059C0  0E20               	movlw	32
  3456   0059C2  EFE8  F02C         	goto	u3230
  3457   0059C6                     u3235:
  3458   0059C6  90D8               	bcf	status,0,c
  3459   0059C8  3258               	rrcf	(??___fltol+3)^(0+1280),f,c
  3460   0059CA  3257               	rrcf	(??___fltol+2)^(0+1280),f,c
  3461   0059CC  3256               	rrcf	(??___fltol+1)^(0+1280),f,c
  3462   0059CE  3255               	rrcf	??___fltol^(0+1280),f,c
  3463   0059D0                     u3230:
  3464   0059D0  2EE8               	decfsz	wreg,f,c
  3465   0059D2  EFE3  F02C         	goto	u3235
  3466   0059D6  5055               	movf	??___fltol^(0+1280),w,c
  3467   0059D8  6E59               	movwf	___fltol@sign1^(0+1280),c
  3468   0059DA  8E53               	bsf	(___fltol@f1+2)^(0+1280),7,c
  3469   0059DC  0EFF               	movlw	255
  3470   0059DE  1651               	andwf	___fltol@f1^(0+1280),f,c
  3471   0059E0  0EFF               	movlw	255
  3472   0059E2  1652               	andwf	(___fltol@f1+1)^(0+1280),f,c
  3473   0059E4  0EFF               	movlw	255
  3474   0059E6  1653               	andwf	(___fltol@f1+2)^(0+1280),f,c
  3475   0059E8  0E00               	movlw	0
  3476   0059EA  1654               	andwf	(___fltol@f1+3)^(0+1280),f,c
  3477   0059EC  0E96               	movlw	150
  3478   0059EE  5E5A               	subwf	___fltol@exp1^(0+1280),f,c
  3479   0059F0  BE5A               	btfsc	___fltol@exp1^(0+1280),7,c
  3480   0059F2  EFFF  F02C         	goto	u3240
  3481   0059F6  EFFD  F02C         	goto	u3241
  3482   0059FA                     u3241:
  3483   0059FA  EF15  F02D         	goto	l3601
  3484   0059FE                     u3240:
  3485   0059FE  505A               	movf	___fltol@exp1^(0+1280),w,c
  3486   005A00  0A80               	xorlw	128
  3487   005A02  0F97               	addlw	151
  3488   005A04  B0D8               	btfsc	status,0,c
  3489   005A06  EF07  F02D         	goto	u3251
  3490   005A0A  EF09  F02D         	goto	u3250
  3491   005A0E                     u3251:
  3492   005A0E  EF0B  F02D         	goto	l3597
  3493   005A12                     u3250:
  3494   005A12  EFCE  F02C         	goto	l3577
  3495   005A16                     l3597:
  3496   005A16  90D8               	bcf	status,0,c
  3497   005A18  3254               	rrcf	(___fltol@f1+3)^(0+1280),f,c
  3498   005A1A  3253               	rrcf	(___fltol@f1+2)^(0+1280),f,c
  3499   005A1C  3252               	rrcf	(___fltol@f1+1)^(0+1280),f,c
  3500   005A1E  3251               	rrcf	___fltol@f1^(0+1280),f,c
  3501   005A20  3E5A               	incfsz	___fltol@exp1^(0+1280),f,c
  3502   005A22  EF0B  F02D         	goto	l3597
  3503   005A26  EF2D  F02D         	goto	l3611
  3504   005A2A                     l3601:
  3505   005A2A  0E1F               	movlw	31
  3506   005A2C  645A               	cpfsgt	___fltol@exp1^(0+1280),c
  3507   005A2E  EF1B  F02D         	goto	u3261
  3508   005A32  EF1D  F02D         	goto	u3260
  3509   005A36                     u3261:
  3510   005A36  EF25  F02D         	goto	l3609
  3511   005A3A                     u3260:
  3512   005A3A  EFCE  F02C         	goto	l3577
  3513   005A3E                     l3607:
  3514   005A3E  90D8               	bcf	status,0,c
  3515   005A40  3651               	rlcf	___fltol@f1^(0+1280),f,c
  3516   005A42  3652               	rlcf	(___fltol@f1+1)^(0+1280),f,c
  3517   005A44  3653               	rlcf	(___fltol@f1+2)^(0+1280),f,c
  3518   005A46  3654               	rlcf	(___fltol@f1+3)^(0+1280),f,c
  3519   005A48  065A               	decf	___fltol@exp1^(0+1280),f,c
  3520   005A4A                     l3609:
  3521   005A4A  505A               	movf	___fltol@exp1^(0+1280),w,c
  3522   005A4C  A4D8               	btfss	status,2,c
  3523   005A4E  EF2B  F02D         	goto	u3271
  3524   005A52  EF2D  F02D         	goto	u3270
  3525   005A56                     u3271:
  3526   005A56  EF1F  F02D         	goto	l3607
  3527   005A5A                     u3270:
  3528   005A5A                     l3611:
  3529   005A5A  5059               	movf	___fltol@sign1^(0+1280),w,c
  3530   005A5C  B4D8               	btfsc	status,2,c
  3531   005A5E  EF33  F02D         	goto	u3281
  3532   005A62  EF35  F02D         	goto	u3280
  3533   005A66                     u3281:
  3534   005A66  EF3D  F02D         	goto	l3615
  3535   005A6A                     u3280:
  3536   005A6A  1E54               	comf	(___fltol@f1+3)^(0+1280),f,c
  3537   005A6C  1E53               	comf	(___fltol@f1+2)^(0+1280),f,c
  3538   005A6E  1E52               	comf	(___fltol@f1+1)^(0+1280),f,c
  3539   005A70  6C51               	negf	___fltol@f1^(0+1280),c
  3540   005A72  0E00               	movlw	0
  3541   005A74  2252               	addwfc	(___fltol@f1+1)^(0+1280),f,c
  3542   005A76  2253               	addwfc	(___fltol@f1+2)^(0+1280),f,c
  3543   005A78  2254               	addwfc	(___fltol@f1+3)^(0+1280),f,c
  3544   005A7A                     l3615:
  3545   005A7A  C551  F551         	movff	___fltol@f1,?___fltol
  3546   005A7E  C552  F552         	movff	___fltol@f1+1,?___fltol+1
  3547   005A82  C553  F553         	movff	___fltol@f1+2,?___fltol+2
  3548   005A86  C554  F554         	movff	___fltol@f1+3,?___fltol+3
  3549   005A8A                     l998:
  3550   005A8A  0012               	return		;funcret
  3551   005A8C                     __end_of___fltol:
  3552                           	callstack 0
  3553                           
  3554 ;; *************** function ___flsub *****************
  3555 ;; Defined at:
  3556 ;;		line 245 in file "S:\XC8C\pic\sources\c99\common\sprcadd.c"
  3557 ;; Parameters:    Size  Location     Type
  3558 ;;  b               4   80[COMRAM] long 
  3559 ;;  a               4   84[COMRAM] long 
  3560 ;; Auto vars:     Size  Location     Type
  3561 ;;		None
  3562 ;; Return value:  Size  Location     Type
  3563 ;;                  4   80[COMRAM] long 
  3564 ;; Registers used:
  3565 ;;		wreg, status,2, status,0, cstack
  3566 ;; Tracked objects:
  3567 ;;		On entry : 0/0
  3568 ;;		On exit  : 0/0
  3569 ;;		Unchanged: 0/0
  3570 ;; Data sizes:     COMRAM   BANK5   BANK6   BANK7   BANK8   BANK9  BANK10  BANK11  BANK12
  3571 ;;      Params:         8       0       0       0       0       0       0       0       0
  3572 ;;      Locals:         0       0       0       0       0       0       0       0       0
  3573 ;;      Temps:          0       0       0       0       0       0       0       0       0
  3574 ;;      Totals:         8       0       0       0       0       0       0       0       0
  3575 ;;Total ram usage:        8 bytes
  3576 ;; Hardware stack levels used: 1
  3577 ;; Hardware stack levels required when called: 1
  3578 ;; This function calls:
  3579 ;;		___fladd
  3580 ;; This function is called by:
  3581 ;;		___rem_pio2f
  3582 ;; This function uses a non-reentrant model
  3583 ;;
  3584                           
  3585                           	psect	text9
  3586   0054F6                     __ptext9:
  3587                           	callstack 0
  3588   0054F6                     ___flsub:
  3589                           	callstack 122
  3590   0054F6  0E00               	movlw	0
  3591   0054F8  1A55               	xorwf	___flsub@a^(0+1280),f,c
  3592   0054FA  0E00               	movlw	0
  3593   0054FC  1A56               	xorwf	(___flsub@a+1)^(0+1280),f,c
  3594   0054FE  0E00               	movlw	0
  3595   005500  1A57               	xorwf	(___flsub@a+2)^(0+1280),f,c
  3596   005502  0E80               	movlw	128
  3597   005504  1A58               	xorwf	(___flsub@a+3)^(0+1280),f,c
  3598   005506  C551  F541         	movff	___flsub@b,___fladd@b
  3599   00550A  C552  F542         	movff	___flsub@b+1,___fladd@b+1
  3600   00550E  C553  F543         	movff	___flsub@b+2,___fladd@b+2
  3601   005512  C554  F544         	movff	___flsub@b+3,___fladd@b+3
  3602   005516  C555  F545         	movff	___flsub@a,___fladd@a
  3603   00551A  C556  F546         	movff	___flsub@a+1,___fladd@a+1
  3604   00551E  C557  F547         	movff	___flsub@a+2,___fladd@a+2
  3605   005522  C558  F548         	movff	___flsub@a+3,___fladd@a+3
  3606   005526  EC7A  F03A         	call	___fladd	;wreg free
  3607   00552A  C541  F551         	movff	?___fladd,?___flsub
  3608   00552E  C542  F552         	movff	?___fladd+1,?___flsub+1
  3609   005532  C543  F553         	movff	?___fladd+2,?___flsub+2
  3610   005536  C544  F554         	movff	?___fladd+3,?___flsub+3
  3611   00553A  0012               	return		;funcret
  3612   00553C                     __end_of___flsub:
  3613                           	callstack 0
  3614                           
  3615 ;; *************** function ___flneg *****************
  3616 ;; Defined at:
  3617 ;;		line 15 in file "S:\XC8C\pic\sources\c99\common\flneg.c"
  3618 ;; Parameters:    Size  Location     Type
  3619 ;;  f1              4   24[BANK5 ] long 
  3620 ;; Auto vars:     Size  Location     Type
  3621 ;;		None
  3622 ;; Return value:  Size  Location     Type
  3623 ;;                  4   24[BANK5 ] long 
  3624 ;; Registers used:
  3625 ;;		wreg, status,2, status,0
  3626 ;; Tracked objects:
  3627 ;;		On entry : 0/0
  3628 ;;		On exit  : 0/0
  3629 ;;		Unchanged: 0/0
  3630 ;; Data sizes:     COMRAM   BANK5   BANK6   BANK7   BANK8   BANK9  BANK10  BANK11  BANK12
  3631 ;;      Params:         0       4       0       0       0       0       0       0       0
  3632 ;;      Locals:         0       0       0       0       0       0       0       0       0
  3633 ;;      Temps:          0       0       0       0       0       0       0       0       0
  3634 ;;      Totals:         0       4       0       0       0       0       0       0       0
  3635 ;;Total ram usage:        4 bytes
  3636 ;; Hardware stack levels used: 1
  3637 ;; This function calls:
  3638 ;;		Nothing
  3639 ;; This function is called by:
  3640 ;;		_sinf
  3641 ;;		___rem_pio2f
  3642 ;; This function uses a non-reentrant model
  3643 ;;
  3644                           
  3645                           	psect	text10
  3646   0054BC                     __ptext10:
  3647                           	callstack 0
  3648   0054BC                     ___flneg:
  3649                           	callstack 123
  3650   0054BC  0105               	movlb	5	; () banked
  3651   0054BE  5178               	movf	___flneg@f1& (0+255),w,b
  3652   0054C0  1179               	iorwf	(___flneg@f1+1)& (0+255),w,b
  3653   0054C2  117A               	iorwf	(___flneg@f1+2)& (0+255),w,b
  3654   0054C4  117B               	iorwf	(___flneg@f1+3)& (0+255),w,b
  3655   0054C6  B4D8               	btfsc	status,2,c
  3656   0054C8  EF68  F02A         	goto	u3211
  3657   0054CC  EF6A  F02A         	goto	u3210
  3658   0054D0                     u3211:
  3659   0054D0  EF72  F02A         	goto	l3571
  3660   0054D4                     u3210:
  3661   0054D4                     
  3662                           ; BSR set to: 5
  3663   0054D4  0E00               	movlw	0
  3664   0054D6  1B78               	xorwf	___flneg@f1& (0+255),f,b
  3665   0054D8  0E00               	movlw	0
  3666   0054DA  1B79               	xorwf	(___flneg@f1+1)& (0+255),f,b
  3667   0054DC  0E00               	movlw	0
  3668   0054DE  1B7A               	xorwf	(___flneg@f1+2)& (0+255),f,b
  3669   0054E0  0E80               	movlw	128
  3670   0054E2  1B7B               	xorwf	(___flneg@f1+3)& (0+255),f,b
  3671   0054E4                     l3571:
  3672                           
  3673                           ; BSR set to: 5
  3674   0054E4  C578  F578         	movff	___flneg@f1,?___flneg
  3675   0054E8  C579  F579         	movff	___flneg@f1+1,?___flneg+1
  3676   0054EC  C57A  F57A         	movff	___flneg@f1+2,?___flneg+2
  3677   0054F0  C57B  F57B         	movff	___flneg@f1+3,?___flneg+3
  3678   0054F4                     
  3679                           ; BSR set to: 5
  3680   0054F4  0012               	return		;funcret
  3681   0054F6                     __end_of___flneg:
  3682                           	callstack 0
  3683                           
  3684 ;; *************** function ___cosdf *****************
  3685 ;; Defined at:
  3686 ;;		line 26 in file "S:\XC8C\pic\sources\c99\common\__cosdf.c"
  3687 ;; Parameters:    Size  Location     Type
  3688 ;;  x               4   80[COMRAM] long 
  3689 ;; Auto vars:     Size  Location     Type
  3690 ;;  z               4   20[BANK5 ] long 
  3691 ;;  w               4   16[BANK5 ] long 
  3692 ;;  r               4    0[BANK5 ] long 
  3693 ;; Return value:  Size  Location     Type
  3694 ;;                  4   80[COMRAM] float 
  3695 ;; Registers used:
  3696 ;;		wreg, status,2, status,0, prodl, prodh, cstack
  3697 ;; Tracked objects:
  3698 ;;		On entry : 0/0
  3699 ;;		On exit  : 0/0
  3700 ;;		Unchanged: 0/0
  3701 ;; Data sizes:     COMRAM   BANK5   BANK6   BANK7   BANK8   BANK9  BANK10  BANK11  BANK12
  3702 ;;      Params:         4       0       0       0       0       0       0       0       0
  3703 ;;      Locals:         0      24       0       0       0       0       0       0       0
  3704 ;;      Temps:          0       0       0       0       0       0       0       0       0
  3705 ;;      Totals:         4      24       0       0       0       0       0       0       0
  3706 ;;Total ram usage:       28 bytes
  3707 ;; Hardware stack levels used: 1
  3708 ;; Hardware stack levels required when called: 1
  3709 ;; This function calls:
  3710 ;;		___fladd
  3711 ;;		___flmul
  3712 ;; This function is called by:
  3713 ;;		_sinf
  3714 ;; This function uses a non-reentrant model
  3715 ;;
  3716                           
  3717                           	psect	text11
  3718   005F90                     __ptext11:
  3719                           	callstack 0
  3720   005F90                     ___cosdf:
  3721                           	callstack 123
  3722   005F90  C551  F50F         	movff	___cosdf@x,___flmul@b
  3723   005F94  C552  F510         	movff	___cosdf@x+1,___flmul@b+1
  3724   005F98  C553  F511         	movff	___cosdf@x+2,___flmul@b+2
  3725   005F9C  C554  F512         	movff	___cosdf@x+3,___flmul@b+3
  3726   005FA0  C551  F513         	movff	___cosdf@x,___flmul@a
  3727   005FA4  C552  F514         	movff	___cosdf@x+1,___flmul@a+1
  3728   005FA8  C553  F515         	movff	___cosdf@x+2,___flmul@a+2
  3729   005FAC  C554  F516         	movff	___cosdf@x+3,___flmul@a+3
  3730   005FB0  EC65  F038         	call	___flmul	;wreg free
  3731   005FB4  C50F  F574         	movff	?___flmul,___cosdf@z
  3732   005FB8  C510  F575         	movff	?___flmul+1,___cosdf@z+1
  3733   005FBC  C511  F576         	movff	?___flmul+2,___cosdf@z+2
  3734   005FC0  C512  F577         	movff	?___flmul+3,___cosdf@z+3
  3735   005FC4  C574  F50F         	movff	___cosdf@z,___flmul@b
  3736   005FC8  C575  F510         	movff	___cosdf@z+1,___flmul@b+1
  3737   005FCC  C576  F511         	movff	___cosdf@z+2,___flmul@b+2
  3738   005FD0  C577  F512         	movff	___cosdf@z+3,___flmul@b+3
  3739   005FD4  C574  F513         	movff	___cosdf@z,___flmul@a
  3740   005FD8  C575  F514         	movff	___cosdf@z+1,___flmul@a+1
  3741   005FDC  C576  F515         	movff	___cosdf@z+2,___flmul@a+2
  3742   005FE0  C577  F516         	movff	___cosdf@z+3,___flmul@a+3
  3743   005FE4  EC65  F038         	call	___flmul	;wreg free
  3744   005FE8  C50F  F570         	movff	?___flmul,___cosdf@w
  3745   005FEC  C510  F571         	movff	?___flmul+1,___cosdf@w+1
  3746   005FF0  C511  F572         	movff	?___flmul+2,___cosdf@w+2
  3747   005FF4  C512  F573         	movff	?___flmul+3,___cosdf@w+3
  3748   005FF8  0E17               	movlw	23
  3749   005FFA  6E13               	movwf	___flmul@a^(0+1280),c
  3750   005FFC  0E9A               	movlw	154
  3751   005FFE  6E14               	movwf	(___flmul@a+1)^(0+1280),c
  3752   006000  0ECC               	movlw	204
  3753   006002  6E15               	movwf	(___flmul@a+2)^(0+1280),c
  3754   006004  0E37               	movlw	55
  3755   006006  6E16               	movwf	(___flmul@a+3)^(0+1280),c
  3756   006008  C574  F50F         	movff	___cosdf@z,___flmul@b
  3757   00600C  C575  F510         	movff	___cosdf@z+1,___flmul@b+1
  3758   006010  C576  F511         	movff	___cosdf@z+2,___flmul@b+2
  3759   006014  C577  F512         	movff	___cosdf@z+3,___flmul@b+3
  3760   006018  EC65  F038         	call	___flmul	;wreg free
  3761   00601C  C50F  F541         	movff	?___flmul,___fladd@b
  3762   006020  C510  F542         	movff	?___flmul+1,___fladd@b+1
  3763   006024  C511  F543         	movff	?___flmul+2,___fladd@b+2
  3764   006028  C512  F544         	movff	?___flmul+3,___fladd@b+3
  3765   00602C  0E3F               	movlw	63
  3766   00602E  6E45               	movwf	___fladd@a^(0+1280),c
  3767   006030  0E04               	movlw	4
  3768   006032  6E46               	movwf	(___fladd@a+1)^(0+1280),c
  3769   006034  0EB6               	movlw	182
  3770   006036  6E47               	movwf	(___fladd@a+2)^(0+1280),c
  3771   006038  0EBA               	movlw	186
  3772   00603A  6E48               	movwf	(___fladd@a+3)^(0+1280),c
  3773   00603C  EC7A  F03A         	call	___fladd	;wreg free
  3774   006040  C541  F560         	movff	?___fladd,___cosdf@r
  3775   006044  C542  F561         	movff	?___fladd+1,___cosdf@r+1
  3776   006048  C543  F562         	movff	?___fladd+2,___cosdf@r+2
  3777   00604C  C544  F563         	movff	?___fladd+3,___cosdf@r+3
  3778   006050  0E00               	movlw	0
  3779   006052  6E45               	movwf	___fladd@a^(0+1280),c
  3780   006054  0E00               	movlw	0
  3781   006056  6E46               	movwf	(___fladd@a+1)^(0+1280),c
  3782   006058  0E80               	movlw	128
  3783   00605A  6E47               	movwf	(___fladd@a+2)^(0+1280),c
  3784   00605C  0E3F               	movlw	63
  3785   00605E  6E48               	movwf	(___fladd@a+3)^(0+1280),c
  3786   006060  0E00               	movlw	0
  3787   006062  6E13               	movwf	___flmul@a^(0+1280),c
  3788   006064  0E00               	movlw	0
  3789   006066  6E14               	movwf	(___flmul@a+1)^(0+1280),c
  3790   006068  0E00               	movlw	0
  3791   00606A  6E15               	movwf	(___flmul@a+2)^(0+1280),c
  3792   00606C  0EBF               	movlw	191
  3793   00606E  6E16               	movwf	(___flmul@a+3)^(0+1280),c
  3794   006070  C574  F50F         	movff	___cosdf@z,___flmul@b
  3795   006074  C575  F510         	movff	___cosdf@z+1,___flmul@b+1
  3796   006078  C576  F511         	movff	___cosdf@z+2,___flmul@b+2
  3797   00607C  C577  F512         	movff	___cosdf@z+3,___flmul@b+3
  3798   006080  EC65  F038         	call	___flmul	;wreg free
  3799   006084  C50F  F541         	movff	?___flmul,___fladd@b
  3800   006088  C510  F542         	movff	?___flmul+1,___fladd@b+1
  3801   00608C  C511  F543         	movff	?___flmul+2,___fladd@b+2
  3802   006090  C512  F544         	movff	?___flmul+3,___fladd@b+3
  3803   006094  EC7A  F03A         	call	___fladd	;wreg free
  3804   006098  C541  F564         	movff	?___fladd,___cosdf$2378
  3805   00609C  C542  F565         	movff	?___fladd+1,___cosdf$2378+1
  3806   0060A0  C543  F566         	movff	?___fladd+2,___cosdf$2378+2
  3807   0060A4  C544  F567         	movff	?___fladd+3,___cosdf$2378+3
  3808   0060A8  C574  F513         	movff	___cosdf@z,___flmul@a
  3809   0060AC  C575  F514         	movff	___cosdf@z+1,___flmul@a+1
  3810   0060B0  C576  F515         	movff	___cosdf@z+2,___flmul@a+2
  3811   0060B4  C577  F516         	movff	___cosdf@z+3,___flmul@a+3
  3812   0060B8  C570  F50F         	movff	___cosdf@w,___flmul@b
  3813   0060BC  C571  F510         	movff	___cosdf@w+1,___flmul@b+1
  3814   0060C0  C572  F511         	movff	___cosdf@w+2,___flmul@b+2
  3815   0060C4  C573  F512         	movff	___cosdf@w+3,___flmul@b+3
  3816   0060C8  EC65  F038         	call	___flmul	;wreg free
  3817   0060CC  C50F  F568         	movff	?___flmul,___cosdf$2379
  3818   0060D0  C510  F569         	movff	?___flmul+1,___cosdf$2379+1
  3819   0060D4  C511  F56A         	movff	?___flmul+2,___cosdf$2379+2
  3820   0060D8  C512  F56B         	movff	?___flmul+3,___cosdf$2379+3
  3821   0060DC  0E9F               	movlw	159
  3822   0060DE  6E13               	movwf	___flmul@a^(0+1280),c
  3823   0060E0  0EAA               	movlw	170
  3824   0060E2  6E14               	movwf	(___flmul@a+1)^(0+1280),c
  3825   0060E4  0E2A               	movlw	42
  3826   0060E6  6E15               	movwf	(___flmul@a+2)^(0+1280),c
  3827   0060E8  0E3D               	movlw	61
  3828   0060EA  6E16               	movwf	(___flmul@a+3)^(0+1280),c
  3829   0060EC  C570  F50F         	movff	___cosdf@w,___flmul@b
  3830   0060F0  C571  F510         	movff	___cosdf@w+1,___flmul@b+1
  3831   0060F4  C572  F511         	movff	___cosdf@w+2,___flmul@b+2
  3832   0060F8  C573  F512         	movff	___cosdf@w+3,___flmul@b+3
  3833   0060FC  EC65  F038         	call	___flmul	;wreg free
  3834   006100  C50F  F545         	movff	?___flmul,___fladd@a
  3835   006104  C510  F546         	movff	?___flmul+1,___fladd@a+1
  3836   006108  C511  F547         	movff	?___flmul+2,___fladd@a+2
  3837   00610C  C512  F548         	movff	?___flmul+3,___fladd@a+3
  3838   006110  C564  F541         	movff	___cosdf$2378,___fladd@b
  3839   006114  C565  F542         	movff	___cosdf$2378+1,___fladd@b+1
  3840   006118  C566  F543         	movff	___cosdf$2378+2,___fladd@b+2
  3841   00611C  C567  F544         	movff	___cosdf$2378+3,___fladd@b+3
  3842   006120  EC7A  F03A         	call	___fladd	;wreg free
  3843   006124  C541  F56C         	movff	?___fladd,___cosdf$2380
  3844   006128  C542  F56D         	movff	?___fladd+1,___cosdf$2380+1
  3845   00612C  C543  F56E         	movff	?___fladd+2,___cosdf$2380+2
  3846   006130  C544  F56F         	movff	?___fladd+3,___cosdf$2380+3
  3847   006134  C56C  F541         	movff	___cosdf$2380,___fladd@b
  3848   006138  C56D  F542         	movff	___cosdf$2380+1,___fladd@b+1
  3849   00613C  C56E  F543         	movff	___cosdf$2380+2,___fladd@b+2
  3850   006140  C56F  F544         	movff	___cosdf$2380+3,___fladd@b+3
  3851   006144  C560  F513         	movff	___cosdf@r,___flmul@a
  3852   006148  C561  F514         	movff	___cosdf@r+1,___flmul@a+1
  3853   00614C  C562  F515         	movff	___cosdf@r+2,___flmul@a+2
  3854   006150  C563  F516         	movff	___cosdf@r+3,___flmul@a+3
  3855   006154  C568  F50F         	movff	___cosdf$2379,___flmul@b
  3856   006158  C569  F510         	movff	___cosdf$2379+1,___flmul@b+1
  3857   00615C  C56A  F511         	movff	___cosdf$2379+2,___flmul@b+2
  3858   006160  C56B  F512         	movff	___cosdf$2379+3,___flmul@b+3
  3859   006164  EC65  F038         	call	___flmul	;wreg free
  3860   006168  C50F  F545         	movff	?___flmul,___fladd@a
  3861   00616C  C510  F546         	movff	?___flmul+1,___fladd@a+1
  3862   006170  C511  F547         	movff	?___flmul+2,___fladd@a+2
  3863   006174  C512  F548         	movff	?___flmul+3,___fladd@a+3
  3864   006178  EC7A  F03A         	call	___fladd	;wreg free
  3865   00617C  C541  F551         	movff	?___fladd,?___cosdf
  3866   006180  C542  F552         	movff	?___fladd+1,?___cosdf+1
  3867   006184  C543  F553         	movff	?___fladd+2,?___cosdf+2
  3868   006188  C544  F554         	movff	?___fladd+3,?___cosdf+3
  3869   00618C  0012               	return		;funcret
  3870   00618E                     __end_of___cosdf:
  3871                           	callstack 0
  3872                           
  3873 ;; *************** function ___flmul *****************
  3874 ;; Defined at:
  3875 ;;		line 8 in file "S:\XC8C\pic\sources\c99\common\sprcmul.c"
  3876 ;; Parameters:    Size  Location     Type
  3877 ;;  b               4   14[COMRAM] float 
  3878 ;;  a               4   18[COMRAM] float 
  3879 ;; Auto vars:     Size  Location     Type
  3880 ;;  prod            4   33[COMRAM] struct .
  3881 ;;  grs             4   27[COMRAM] unsigned long 
  3882 ;;  temp            2   37[COMRAM] struct .
  3883 ;;  bexp            1   32[COMRAM] unsigned char 
  3884 ;;  aexp            1   31[COMRAM] unsigned char 
  3885 ;;  sign            1   26[COMRAM] unsigned char 
  3886 ;; Return value:  Size  Location     Type
  3887 ;;                  4   14[COMRAM] unsigned char 
  3888 ;; Registers used:
  3889 ;;		wreg, status,2, status,0, prodl, prodh
  3890 ;; Tracked objects:
  3891 ;;		On entry : 0/0
  3892 ;;		On exit  : 0/0
  3893 ;;		Unchanged: 0/0
  3894 ;; Data sizes:     COMRAM   BANK5   BANK6   BANK7   BANK8   BANK9  BANK10  BANK11  BANK12
  3895 ;;      Params:         8       0       0       0       0       0       0       0       0
  3896 ;;      Locals:        13       0       0       0       0       0       0       0       0
  3897 ;;      Temps:          4       0       0       0       0       0       0       0       0
  3898 ;;      Totals:        25       0       0       0       0       0       0       0       0
  3899 ;;Total ram usage:       25 bytes
  3900 ;; Hardware stack levels used: 1
  3901 ;; This function calls:
  3902 ;;		Nothing
  3903 ;; This function is called by:
  3904 ;;		_vGenerateSinus
  3905 ;;		___cosdf
  3906 ;;		___rem_pio2f
  3907 ;;		___sindf
  3908 ;; This function uses a non-reentrant model
  3909 ;;
  3910                           
  3911                           	psect	text12
  3912   0070CA                     __ptext12:
  3913                           	callstack 0
  3914   0070CA                     ___flmul:
  3915                           	callstack 123
  3916   0070CA  5012               	movf	(___flmul@b+3)^(0+1280),w,c
  3917   0070CC  0B80               	andlw	128
  3918   0070CE  6E1B               	movwf	___flmul@sign^(0+1280),c
  3919   0070D0  5012               	movf	(___flmul@b+3)^(0+1280),w,c
  3920   0070D2  2412               	addwf	(___flmul@b+3)^(0+1280),w,c
  3921   0070D4  6E21               	movwf	___flmul@bexp^(0+1280),c
  3922   0070D6  AE11               	btfss	(___flmul@b+2)^(0+1280),7,c
  3923   0070D8  EF70  F038         	goto	u3021
  3924   0070DC  EF72  F038         	goto	u3020
  3925   0070E0                     u3021:
  3926   0070E0  EF73  F038         	goto	l3437
  3927   0070E4                     u3020:
  3928   0070E4  8021               	bsf	___flmul@bexp^(0+1280),0,c
  3929   0070E6                     l3437:
  3930   0070E6  5021               	movf	___flmul@bexp^(0+1280),w,c
  3931   0070E8  B4D8               	btfsc	status,2,c
  3932   0070EA  EF79  F038         	goto	u3031
  3933   0070EE  EF7B  F038         	goto	u3030
  3934   0070F2                     u3031:
  3935   0070F2  EF8E  F038         	goto	l3445
  3936   0070F6                     u3030:
  3937   0070F6  2821               	incf	___flmul@bexp^(0+1280),w,c
  3938   0070F8  A4D8               	btfss	status,2,c
  3939   0070FA  EF81  F038         	goto	u3041
  3940   0070FE  EF83  F038         	goto	u3040
  3941   007102                     u3041:
  3942   007102  EF8B  F038         	goto	l3443
  3943   007106                     u3040:
  3944   007106  0E00               	movlw	0
  3945   007108  6E0F               	movwf	___flmul@b^(0+1280),c
  3946   00710A  0E00               	movlw	0
  3947   00710C  6E10               	movwf	(___flmul@b+1)^(0+1280),c
  3948   00710E  0E00               	movlw	0
  3949   007110  6E11               	movwf	(___flmul@b+2)^(0+1280),c
  3950   007112  0E00               	movlw	0
  3951   007114  6E12               	movwf	(___flmul@b+3)^(0+1280),c
  3952   007116                     l3443:
  3953   007116  8E11               	bsf	(___flmul@b+2)^(0+1280),7,c
  3954   007118  EF96  F038         	goto	l3447
  3955   00711C                     l3445:
  3956   00711C  0E00               	movlw	0
  3957   00711E  6E0F               	movwf	___flmul@b^(0+1280),c
  3958   007120  0E00               	movlw	0
  3959   007122  6E10               	movwf	(___flmul@b+1)^(0+1280),c
  3960   007124  0E00               	movlw	0
  3961   007126  6E11               	movwf	(___flmul@b+2)^(0+1280),c
  3962   007128  0E00               	movlw	0
  3963   00712A  6E12               	movwf	(___flmul@b+3)^(0+1280),c
  3964   00712C                     l3447:
  3965   00712C  5016               	movf	(___flmul@a+3)^(0+1280),w,c
  3966   00712E  0B80               	andlw	128
  3967   007130  1A1B               	xorwf	___flmul@sign^(0+1280),f,c
  3968   007132  5016               	movf	(___flmul@a+3)^(0+1280),w,c
  3969   007134  2416               	addwf	(___flmul@a+3)^(0+1280),w,c
  3970   007136  6E20               	movwf	___flmul@aexp^(0+1280),c
  3971   007138  AE15               	btfss	(___flmul@a+2)^(0+1280),7,c
  3972   00713A  EFA1  F038         	goto	u3051
  3973   00713E  EFA3  F038         	goto	u3050
  3974   007142                     u3051:
  3975   007142  EFA4  F038         	goto	l3455
  3976   007146                     u3050:
  3977   007146  8020               	bsf	___flmul@aexp^(0+1280),0,c
  3978   007148                     l3455:
  3979   007148  5020               	movf	___flmul@aexp^(0+1280),w,c
  3980   00714A  B4D8               	btfsc	status,2,c
  3981   00714C  EFAA  F038         	goto	u3061
  3982   007150  EFAC  F038         	goto	u3060
  3983   007154                     u3061:
  3984   007154  EFBF  F038         	goto	l3463
  3985   007158                     u3060:
  3986   007158  2820               	incf	___flmul@aexp^(0+1280),w,c
  3987   00715A  A4D8               	btfss	status,2,c
  3988   00715C  EFB2  F038         	goto	u3071
  3989   007160  EFB4  F038         	goto	u3070
  3990   007164                     u3071:
  3991   007164  EFBC  F038         	goto	l3461
  3992   007168                     u3070:
  3993   007168  0E00               	movlw	0
  3994   00716A  6E13               	movwf	___flmul@a^(0+1280),c
  3995   00716C  0E00               	movlw	0
  3996   00716E  6E14               	movwf	(___flmul@a+1)^(0+1280),c
  3997   007170  0E00               	movlw	0
  3998   007172  6E15               	movwf	(___flmul@a+2)^(0+1280),c
  3999   007174  0E00               	movlw	0
  4000   007176  6E16               	movwf	(___flmul@a+3)^(0+1280),c
  4001   007178                     l3461:
  4002   007178  8E15               	bsf	(___flmul@a+2)^(0+1280),7,c
  4003   00717A  EFC7  F038         	goto	l1315
  4004   00717E                     l3463:
  4005   00717E  0E00               	movlw	0
  4006   007180  6E13               	movwf	___flmul@a^(0+1280),c
  4007   007182  0E00               	movlw	0
  4008   007184  6E14               	movwf	(___flmul@a+1)^(0+1280),c
  4009   007186  0E00               	movlw	0
  4010   007188  6E15               	movwf	(___flmul@a+2)^(0+1280),c
  4011   00718A  0E00               	movlw	0
  4012   00718C  6E16               	movwf	(___flmul@a+3)^(0+1280),c
  4013   00718E                     l1315:
  4014   00718E  5020               	movf	___flmul@aexp^(0+1280),w,c
  4015   007190  B4D8               	btfsc	status,2,c
  4016   007192  EFCD  F038         	goto	u3081
  4017   007196  EFCF  F038         	goto	u3080
  4018   00719A                     u3081:
  4019   00719A  EFD7  F038         	goto	l3467
  4020   00719E                     u3080:
  4021   00719E  5021               	movf	___flmul@bexp^(0+1280),w,c
  4022   0071A0  A4D8               	btfss	status,2,c
  4023   0071A2  EFD5  F038         	goto	u3091
  4024   0071A6  EFD7  F038         	goto	u3090
  4025   0071AA                     u3091:
  4026   0071AA  EFE1  F038         	goto	l3471
  4027   0071AE                     u3090:
  4028   0071AE                     l3467:
  4029   0071AE  0E00               	movlw	0
  4030   0071B0  6E0F               	movwf	?___flmul^(0+1280),c
  4031   0071B2  0E00               	movlw	0
  4032   0071B4  6E10               	movwf	(?___flmul+1)^(0+1280),c
  4033   0071B6  0E00               	movlw	0
  4034   0071B8  6E11               	movwf	(?___flmul+2)^(0+1280),c
  4035   0071BA  0E00               	movlw	0
  4036   0071BC  6E12               	movwf	(?___flmul+3)^(0+1280),c
  4037   0071BE  EF79  F03A         	goto	l1319
  4038   0071C2                     l3471:
  4039   0071C2  5015               	movf	(___flmul@a+2)^(0+1280),w,c
  4040   0071C4  020F               	mulwf	___flmul@b^(0+1280),c
  4041   0071C6  C4F3 F526          	movff	prodl,___flmul@temp
  4042   0071CA  C4F4 F527          	movff	prodh,___flmul@temp+1
  4043   0071CE  5026               	movf	___flmul@temp^(0+1280),w,c
  4044   0071D0  6E1C               	movwf	___flmul@grs^(0+1280),c
  4045   0071D2  6A1D               	clrf	(___flmul@grs+1)^(0+1280),c
  4046   0071D4  6A1E               	clrf	(___flmul@grs+2)^(0+1280),c
  4047   0071D6  6A1F               	clrf	(___flmul@grs+3)^(0+1280),c
  4048   0071D8  5027               	movf	(___flmul@temp+1)^(0+1280),w,c
  4049   0071DA  6E22               	movwf	___flmul@prod^(0+1280),c
  4050   0071DC  6A23               	clrf	(___flmul@prod+1)^(0+1280),c
  4051   0071DE  6A24               	clrf	(___flmul@prod+2)^(0+1280),c
  4052   0071E0  6A25               	clrf	(___flmul@prod+3)^(0+1280),c
  4053   0071E2  5014               	movf	(___flmul@a+1)^(0+1280),w,c
  4054   0071E4  0210               	mulwf	(___flmul@b+1)^(0+1280),c
  4055   0071E6  C4F3 F526          	movff	prodl,___flmul@temp
  4056   0071EA  C4F4 F527          	movff	prodh,___flmul@temp+1
  4057   0071EE  5026               	movf	___flmul@temp^(0+1280),w,c
  4058   0071F0  261C               	addwf	___flmul@grs^(0+1280),f,c
  4059   0071F2  0E00               	movlw	0
  4060   0071F4  221D               	addwfc	(___flmul@grs+1)^(0+1280),f,c
  4061   0071F6  221E               	addwfc	(___flmul@grs+2)^(0+1280),f,c
  4062   0071F8  221F               	addwfc	(___flmul@grs+3)^(0+1280),f,c
  4063   0071FA  5027               	movf	(___flmul@temp+1)^(0+1280),w,c
  4064   0071FC  2622               	addwf	___flmul@prod^(0+1280),f,c
  4065   0071FE  0E00               	movlw	0
  4066   007200  2223               	addwfc	(___flmul@prod+1)^(0+1280),f,c
  4067   007202  2224               	addwfc	(___flmul@prod+2)^(0+1280),f,c
  4068   007204  2225               	addwfc	(___flmul@prod+3)^(0+1280),f,c
  4069   007206  5013               	movf	___flmul@a^(0+1280),w,c
  4070   007208  0211               	mulwf	(___flmul@b+2)^(0+1280),c
  4071   00720A  C4F3 F526          	movff	prodl,___flmul@temp
  4072   00720E  C4F4 F527          	movff	prodh,___flmul@temp+1
  4073   007212  5026               	movf	___flmul@temp^(0+1280),w,c
  4074   007214  261C               	addwf	___flmul@grs^(0+1280),f,c
  4075   007216  0E00               	movlw	0
  4076   007218  221D               	addwfc	(___flmul@grs+1)^(0+1280),f,c
  4077   00721A  221E               	addwfc	(___flmul@grs+2)^(0+1280),f,c
  4078   00721C  221F               	addwfc	(___flmul@grs+3)^(0+1280),f,c
  4079   00721E  5027               	movf	(___flmul@temp+1)^(0+1280),w,c
  4080   007220  2622               	addwf	___flmul@prod^(0+1280),f,c
  4081   007222  0E00               	movlw	0
  4082   007224  2223               	addwfc	(___flmul@prod+1)^(0+1280),f,c
  4083   007226  2224               	addwfc	(___flmul@prod+2)^(0+1280),f,c
  4084   007228  2225               	addwfc	(___flmul@prod+3)^(0+1280),f,c
  4085   00722A  C51E  F51F         	movff	___flmul@grs+2,___flmul@grs+3
  4086   00722E  C51D  F51E         	movff	___flmul@grs+1,___flmul@grs+2
  4087   007232  C51C  F51D         	movff	___flmul@grs,___flmul@grs+1
  4088   007236  6A1C               	clrf	___flmul@grs^(0+1280),c
  4089   007238  5013               	movf	___flmul@a^(0+1280),w,c
  4090   00723A  0210               	mulwf	(___flmul@b+1)^(0+1280),c
  4091   00723C  C4F3 F526          	movff	prodl,___flmul@temp
  4092   007240  C4F4 F527          	movff	prodh,___flmul@temp+1
  4093   007244  5026               	movf	___flmul@temp^(0+1280),w,c
  4094   007246  261C               	addwf	___flmul@grs^(0+1280),f,c
  4095   007248  5027               	movf	(___flmul@temp+1)^(0+1280),w,c
  4096   00724A  221D               	addwfc	(___flmul@grs+1)^(0+1280),f,c
  4097   00724C  0E00               	movlw	0
  4098   00724E  221E               	addwfc	(___flmul@grs+2)^(0+1280),f,c
  4099   007250  0E00               	movlw	0
  4100   007252  221F               	addwfc	(___flmul@grs+3)^(0+1280),f,c
  4101   007254  5014               	movf	(___flmul@a+1)^(0+1280),w,c
  4102   007256  020F               	mulwf	___flmul@b^(0+1280),c
  4103   007258  C4F3 F526          	movff	prodl,___flmul@temp
  4104   00725C  C4F4 F527          	movff	prodh,___flmul@temp+1
  4105   007260  5026               	movf	___flmul@temp^(0+1280),w,c
  4106   007262  261C               	addwf	___flmul@grs^(0+1280),f,c
  4107   007264  5027               	movf	(___flmul@temp+1)^(0+1280),w,c
  4108   007266  221D               	addwfc	(___flmul@grs+1)^(0+1280),f,c
  4109   007268  0E00               	movlw	0
  4110   00726A  221E               	addwfc	(___flmul@grs+2)^(0+1280),f,c
  4111   00726C  0E00               	movlw	0
  4112   00726E  221F               	addwfc	(___flmul@grs+3)^(0+1280),f,c
  4113   007270  C51E  F51F         	movff	___flmul@grs+2,___flmul@grs+3
  4114   007274  C51D  F51E         	movff	___flmul@grs+1,___flmul@grs+2
  4115   007278  C51C  F51D         	movff	___flmul@grs,___flmul@grs+1
  4116   00727C  6A1C               	clrf	___flmul@grs^(0+1280),c
  4117   00727E  5013               	movf	___flmul@a^(0+1280),w,c
  4118   007280  020F               	mulwf	___flmul@b^(0+1280),c
  4119   007282  C4F3 F526          	movff	prodl,___flmul@temp
  4120   007286  C4F4 F527          	movff	prodh,___flmul@temp+1
  4121   00728A  5026               	movf	___flmul@temp^(0+1280),w,c
  4122   00728C  261C               	addwf	___flmul@grs^(0+1280),f,c
  4123   00728E  5027               	movf	(___flmul@temp+1)^(0+1280),w,c
  4124   007290  221D               	addwfc	(___flmul@grs+1)^(0+1280),f,c
  4125   007292  0E00               	movlw	0
  4126   007294  221E               	addwfc	(___flmul@grs+2)^(0+1280),f,c
  4127   007296  0E00               	movlw	0
  4128   007298  221F               	addwfc	(___flmul@grs+3)^(0+1280),f,c
  4129   00729A  5015               	movf	(___flmul@a+2)^(0+1280),w,c
  4130   00729C  0210               	mulwf	(___flmul@b+1)^(0+1280),c
  4131   00729E  C4F3 F526          	movff	prodl,___flmul@temp
  4132   0072A2  C4F4 F527          	movff	prodh,___flmul@temp+1
  4133   0072A6  5026               	movf	___flmul@temp^(0+1280),w,c
  4134   0072A8  2622               	addwf	___flmul@prod^(0+1280),f,c
  4135   0072AA  5027               	movf	(___flmul@temp+1)^(0+1280),w,c
  4136   0072AC  2223               	addwfc	(___flmul@prod+1)^(0+1280),f,c
  4137   0072AE  0E00               	movlw	0
  4138   0072B0  2224               	addwfc	(___flmul@prod+2)^(0+1280),f,c
  4139   0072B2  0E00               	movlw	0
  4140   0072B4  2225               	addwfc	(___flmul@prod+3)^(0+1280),f,c
  4141   0072B6  5014               	movf	(___flmul@a+1)^(0+1280),w,c
  4142   0072B8  0211               	mulwf	(___flmul@b+2)^(0+1280),c
  4143   0072BA  C4F3 F526          	movff	prodl,___flmul@temp
  4144   0072BE  C4F4 F527          	movff	prodh,___flmul@temp+1
  4145   0072C2  5026               	movf	___flmul@temp^(0+1280),w,c
  4146   0072C4  2622               	addwf	___flmul@prod^(0+1280),f,c
  4147   0072C6  5027               	movf	(___flmul@temp+1)^(0+1280),w,c
  4148   0072C8  2223               	addwfc	(___flmul@prod+1)^(0+1280),f,c
  4149   0072CA  0E00               	movlw	0
  4150   0072CC  2224               	addwfc	(___flmul@prod+2)^(0+1280),f,c
  4151   0072CE  0E00               	movlw	0
  4152   0072D0  2225               	addwfc	(___flmul@prod+3)^(0+1280),f,c
  4153   0072D2  5015               	movf	(___flmul@a+2)^(0+1280),w,c
  4154   0072D4  0211               	mulwf	(___flmul@b+2)^(0+1280),c
  4155   0072D6  C4F3 F526          	movff	prodl,___flmul@temp
  4156   0072DA  C4F4 F527          	movff	prodh,___flmul@temp+1
  4157   0072DE  5026               	movf	___flmul@temp^(0+1280),w,c
  4158   0072E0  6E17               	movwf	??___flmul^(0+1280),c
  4159   0072E2  5027               	movf	(___flmul@temp+1)^(0+1280),w,c
  4160   0072E4  6E18               	movwf	(??___flmul+1)^(0+1280),c
  4161   0072E6  6A19               	clrf	(??___flmul+2)^(0+1280),c
  4162   0072E8  6A1A               	clrf	(??___flmul+3)^(0+1280),c
  4163   0072EA  C519  F51A         	movff	??___flmul+2,??___flmul+3
  4164   0072EE  C518  F519         	movff	??___flmul+1,??___flmul+2
  4165   0072F2  C517  F518         	movff	??___flmul,??___flmul+1
  4166   0072F6  6A17               	clrf	??___flmul^(0+1280),c
  4167   0072F8  5017               	movf	??___flmul^(0+1280),w,c
  4168   0072FA  2622               	addwf	___flmul@prod^(0+1280),f,c
  4169   0072FC  5018               	movf	(??___flmul+1)^(0+1280),w,c
  4170   0072FE  2223               	addwfc	(___flmul@prod+1)^(0+1280),f,c
  4171   007300  5019               	movf	(??___flmul+2)^(0+1280),w,c
  4172   007302  2224               	addwfc	(___flmul@prod+2)^(0+1280),f,c
  4173   007304  501A               	movf	(??___flmul+3)^(0+1280),w,c
  4174   007306  2225               	addwfc	(___flmul@prod+3)^(0+1280),f,c
  4175   007308  C51C  F517         	movff	___flmul@grs,??___flmul
  4176   00730C  C51D  F518         	movff	___flmul@grs+1,??___flmul+1
  4177   007310  C51E  F519         	movff	___flmul@grs+2,??___flmul+2
  4178   007314  C51F  F51A         	movff	___flmul@grs+3,??___flmul+3
  4179   007318  0E19               	movlw	25
  4180   00731A  EF94  F039         	goto	u3100
  4181   00731E                     u3105:
  4182   00731E  90D8               	bcf	status,0,c
  4183   007320  321A               	rrcf	(??___flmul+3)^(0+1280),f,c
  4184   007322  3219               	rrcf	(??___flmul+2)^(0+1280),f,c
  4185   007324  3218               	rrcf	(??___flmul+1)^(0+1280),f,c
  4186   007326  3217               	rrcf	??___flmul^(0+1280),f,c
  4187   007328                     u3100:
  4188   007328  2EE8               	decfsz	wreg,f,c
  4189   00732A  EF8F  F039         	goto	u3105
  4190   00732E  5017               	movf	??___flmul^(0+1280),w,c
  4191   007330  2622               	addwf	___flmul@prod^(0+1280),f,c
  4192   007332  5018               	movf	(??___flmul+1)^(0+1280),w,c
  4193   007334  2223               	addwfc	(___flmul@prod+1)^(0+1280),f,c
  4194   007336  5019               	movf	(??___flmul+2)^(0+1280),w,c
  4195   007338  2224               	addwfc	(___flmul@prod+2)^(0+1280),f,c
  4196   00733A  501A               	movf	(??___flmul+3)^(0+1280),w,c
  4197   00733C  2225               	addwfc	(___flmul@prod+3)^(0+1280),f,c
  4198   00733E  C51E  F51F         	movff	___flmul@grs+2,___flmul@grs+3
  4199   007342  C51D  F51E         	movff	___flmul@grs+1,___flmul@grs+2
  4200   007346  C51C  F51D         	movff	___flmul@grs,___flmul@grs+1
  4201   00734A  6A1C               	clrf	___flmul@grs^(0+1280),c
  4202   00734C  5020               	movf	___flmul@aexp^(0+1280),w,c
  4203   00734E  C521  F517         	movff	___flmul@bexp,??___flmul
  4204   007352  6A18               	clrf	(??___flmul+1)^(0+1280),c
  4205   007354  2617               	addwf	??___flmul^(0+1280),f,c
  4206   007356  0E00               	movlw	0
  4207   007358  2218               	addwfc	(??___flmul+1)^(0+1280),f,c
  4208   00735A  0E82               	movlw	130
  4209   00735C  2417               	addwf	??___flmul^(0+1280),w,c
  4210   00735E  6E26               	movwf	___flmul@temp^(0+1280),c
  4211   007360  0EFF               	movlw	255
  4212   007362  2018               	addwfc	(??___flmul+1)^(0+1280),w,c
  4213   007364  6E27               	movwf	(___flmul@temp+1)^(0+1280),c
  4214   007366  EFCA  F039         	goto	l3519
  4215   00736A                     l3513:
  4216   00736A  90D8               	bcf	status,0,c
  4217   00736C  3622               	rlcf	___flmul@prod^(0+1280),f,c
  4218   00736E  3623               	rlcf	(___flmul@prod+1)^(0+1280),f,c
  4219   007370  3624               	rlcf	(___flmul@prod+2)^(0+1280),f,c
  4220   007372  3625               	rlcf	(___flmul@prod+3)^(0+1280),f,c
  4221   007374  AE1F               	btfss	(___flmul@grs+3)^(0+1280),7,c
  4222   007376  EFBF  F039         	goto	u3111
  4223   00737A  EFC1  F039         	goto	u3110
  4224   00737E                     u3111:
  4225   00737E  EFC2  F039         	goto	l1322
  4226   007382                     u3110:
  4227   007382  8022               	bsf	___flmul@prod^(0+1280),0,c
  4228   007384                     l1322:
  4229   007384  90D8               	bcf	status,0,c
  4230   007386  361C               	rlcf	___flmul@grs^(0+1280),f,c
  4231   007388  361D               	rlcf	(___flmul@grs+1)^(0+1280),f,c
  4232   00738A  361E               	rlcf	(___flmul@grs+2)^(0+1280),f,c
  4233   00738C  361F               	rlcf	(___flmul@grs+3)^(0+1280),f,c
  4234   00738E  0626               	decf	___flmul@temp^(0+1280),f,c
  4235   007390  A0D8               	btfss	status,0,c
  4236   007392  0627               	decf	(___flmul@temp+1)^(0+1280),f,c
  4237   007394                     l3519:
  4238   007394  AE24               	btfss	(___flmul@prod+2)^(0+1280),7,c
  4239   007396  EFCF  F039         	goto	u3121
  4240   00739A  EFD1  F039         	goto	u3120
  4241   00739E                     u3121:
  4242   00739E  EFB5  F039         	goto	l3513
  4243   0073A2                     u3120:
  4244   0073A2  0E00               	movlw	0
  4245   0073A4  6E20               	movwf	___flmul@aexp^(0+1280),c
  4246   0073A6  AE1F               	btfss	(___flmul@grs+3)^(0+1280),7,c
  4247   0073A8  EFD8  F039         	goto	u3131
  4248   0073AC  EFDA  F039         	goto	u3130
  4249   0073B0                     u3131:
  4250   0073B0  EFFE  F039         	goto	l1324
  4251   0073B4                     u3130:
  4252   0073B4  0EFF               	movlw	255
  4253   0073B6  141C               	andwf	___flmul@grs^(0+1280),w,c
  4254   0073B8  6E17               	movwf	??___flmul^(0+1280),c
  4255   0073BA  0EFF               	movlw	255
  4256   0073BC  141D               	andwf	(___flmul@grs+1)^(0+1280),w,c
  4257   0073BE  6E18               	movwf	(??___flmul+1)^(0+1280),c
  4258   0073C0  0EFF               	movlw	255
  4259   0073C2  141E               	andwf	(___flmul@grs+2)^(0+1280),w,c
  4260   0073C4  6E19               	movwf	(??___flmul+2)^(0+1280),c
  4261   0073C6  0E7F               	movlw	127
  4262   0073C8  141F               	andwf	(___flmul@grs+3)^(0+1280),w,c
  4263   0073CA  6E1A               	movwf	(??___flmul+3)^(0+1280),c
  4264   0073CC  5017               	movf	??___flmul^(0+1280),w,c
  4265   0073CE  1018               	iorwf	(??___flmul+1)^(0+1280),w,c
  4266   0073D0  1019               	iorwf	(??___flmul+2)^(0+1280),w,c
  4267   0073D2  101A               	iorwf	(??___flmul+3)^(0+1280),w,c
  4268   0073D4  B4D8               	btfsc	status,2,c
  4269   0073D6  EFEF  F039         	goto	u3141
  4270   0073DA  EFF1  F039         	goto	u3140
  4271   0073DE                     u3141:
  4272   0073DE  EFF5  F039         	goto	l1325
  4273   0073E2                     u3140:
  4274   0073E2                     l3527:
  4275   0073E2  0E01               	movlw	1
  4276   0073E4  6E20               	movwf	___flmul@aexp^(0+1280),c
  4277   0073E6  EFFE  F039         	goto	l1324
  4278   0073EA                     l1325:
  4279   0073EA  A022               	btfss	___flmul@prod^(0+1280),0,c
  4280   0073EC  EFFA  F039         	goto	u3151
  4281   0073F0  EFFC  F039         	goto	u3150
  4282   0073F4                     u3151:
  4283   0073F4  EFFE  F039         	goto	l1324
  4284   0073F8                     u3150:
  4285   0073F8  EFF1  F039         	goto	l3527
  4286   0073FC                     l1324:
  4287   0073FC  5020               	movf	___flmul@aexp^(0+1280),w,c
  4288   0073FE  B4D8               	btfsc	status,2,c
  4289   007400  EF04  F03A         	goto	u3161
  4290   007404  EF06  F03A         	goto	u3160
  4291   007408                     u3161:
  4292   007408  EF2A  F03A         	goto	l3539
  4293   00740C                     u3160:
  4294   00740C  0E01               	movlw	1
  4295   00740E  2622               	addwf	___flmul@prod^(0+1280),f,c
  4296   007410  0E00               	movlw	0
  4297   007412  2223               	addwfc	(___flmul@prod+1)^(0+1280),f,c
  4298   007414  2224               	addwfc	(___flmul@prod+2)^(0+1280),f,c
  4299   007416  2225               	addwfc	(___flmul@prod+3)^(0+1280),f,c
  4300   007418  A025               	btfss	(___flmul@prod+3)^(0+1280),0,c
  4301   00741A  EF11  F03A         	goto	u3171
  4302   00741E  EF13  F03A         	goto	u3170
  4303   007422                     u3171:
  4304   007422  EF2A  F03A         	goto	l3539
  4305   007426                     u3170:
  4306   007426  C522  F517         	movff	___flmul@prod,??___flmul
  4307   00742A  C523  F518         	movff	___flmul@prod+1,??___flmul+1
  4308   00742E  C524  F519         	movff	___flmul@prod+2,??___flmul+2
  4309   007432  C525  F51A         	movff	___flmul@prod+3,??___flmul+3
  4310   007436  341A               	rlcf	(??___flmul+3)^(0+1280),w,c
  4311   007438  321A               	rrcf	(??___flmul+3)^(0+1280),f,c
  4312   00743A  3219               	rrcf	(??___flmul+2)^(0+1280),f,c
  4313   00743C  3218               	rrcf	(??___flmul+1)^(0+1280),f,c
  4314   00743E  3217               	rrcf	??___flmul^(0+1280),f,c
  4315   007440  C517  F522         	movff	??___flmul,___flmul@prod
  4316   007444  C518  F523         	movff	??___flmul+1,___flmul@prod+1
  4317   007448  C519  F524         	movff	??___flmul+2,___flmul@prod+2
  4318   00744C  C51A  F525         	movff	??___flmul+3,___flmul@prod+3
  4319   007450  4A26               	infsnz	___flmul@temp^(0+1280),f,c
  4320   007452  2A27               	incf	(___flmul@temp+1)^(0+1280),f,c
  4321   007454                     l3539:
  4322   007454  BE27               	btfsc	(___flmul@temp+1)^(0+1280),7,c
  4323   007456  EF35  F03A         	goto	u3181
  4324   00745A  5027               	movf	(___flmul@temp+1)^(0+1280),w,c
  4325   00745C  E108               	bnz	u3180
  4326   00745E  2826               	incf	___flmul@temp^(0+1280),w,c
  4327   007460  A0D8               	btfss	status,0,c
  4328   007462  EF35  F03A         	goto	u3181
  4329   007466  EF37  F03A         	goto	u3180
  4330   00746A                     u3181:
  4331   00746A  EF41  F03A         	goto	l3543
  4332   00746E                     u3180:
  4333   00746E  0E00               	movlw	0
  4334   007470  6E22               	movwf	___flmul@prod^(0+1280),c
  4335   007472  0E00               	movlw	0
  4336   007474  6E23               	movwf	(___flmul@prod+1)^(0+1280),c
  4337   007476  0E80               	movlw	128
  4338   007478  6E24               	movwf	(___flmul@prod+2)^(0+1280),c
  4339   00747A  0E7F               	movlw	127
  4340   00747C  6E25               	movwf	(___flmul@prod+3)^(0+1280),c
  4341   00747E  EF6F  F03A         	goto	l3555
  4342   007482                     l3543:
  4343   007482  BE27               	btfsc	(___flmul@temp+1)^(0+1280),7,c
  4344   007484  EF4E  F03A         	goto	u3190
  4345   007488  5027               	movf	(___flmul@temp+1)^(0+1280),w,c
  4346   00748A  E106               	bnz	u3191
  4347   00748C  0426               	decf	___flmul@temp^(0+1280),w,c
  4348   00748E  B0D8               	btfsc	status,0,c
  4349   007490  EF4C  F03A         	goto	u3191
  4350   007494  EF4E  F03A         	goto	u3190
  4351   007498                     u3191:
  4352   007498  EF5A  F03A         	goto	l1332
  4353   00749C                     u3190:
  4354   00749C  0E00               	movlw	0
  4355   00749E  6E22               	movwf	___flmul@prod^(0+1280),c
  4356   0074A0  0E00               	movlw	0
  4357   0074A2  6E23               	movwf	(___flmul@prod+1)^(0+1280),c
  4358   0074A4  0E00               	movlw	0
  4359   0074A6  6E24               	movwf	(___flmul@prod+2)^(0+1280),c
  4360   0074A8  0E00               	movlw	0
  4361   0074AA  6E25               	movwf	(___flmul@prod+3)^(0+1280),c
  4362   0074AC  0E00               	movlw	0
  4363   0074AE  6E1B               	movwf	___flmul@sign^(0+1280),c
  4364   0074B0  EF6F  F03A         	goto	l3555
  4365   0074B4                     l1332:
  4366   0074B4  C526  F521         	movff	___flmul@temp,___flmul@bexp
  4367   0074B8  0EFF               	movlw	255
  4368   0074BA  1622               	andwf	___flmul@prod^(0+1280),f,c
  4369   0074BC  0EFF               	movlw	255
  4370   0074BE  1623               	andwf	(___flmul@prod+1)^(0+1280),f,c
  4371   0074C0  0E7F               	movlw	127
  4372   0074C2  1624               	andwf	(___flmul@prod+2)^(0+1280),f,c
  4373   0074C4  0E00               	movlw	0
  4374   0074C6  1625               	andwf	(___flmul@prod+3)^(0+1280),f,c
  4375   0074C8  A021               	btfss	___flmul@bexp^(0+1280),0,c
  4376   0074CA  EF69  F03A         	goto	u3201
  4377   0074CE  EF6B  F03A         	goto	u3200
  4378   0074D2                     u3201:
  4379   0074D2  EF6C  F03A         	goto	l3553
  4380   0074D6                     u3200:
  4381   0074D6  8E24               	bsf	(___flmul@prod+2)^(0+1280),7,c
  4382   0074D8                     l3553:
  4383   0074D8  90D8               	bcf	status,0,c
  4384   0074DA  3021               	rrcf	___flmul@bexp^(0+1280),w,c
  4385   0074DC  6E25               	movwf	(___flmul@prod+3)^(0+1280),c
  4386   0074DE                     l3555:
  4387   0074DE  501B               	movf	___flmul@sign^(0+1280),w,c
  4388   0074E0  1225               	iorwf	(___flmul@prod+3)^(0+1280),f,c
  4389   0074E2  C522  F50F         	movff	___flmul@prod,?___flmul
  4390   0074E6  C523  F510         	movff	___flmul@prod+1,?___flmul+1
  4391   0074EA  C524  F511         	movff	___flmul@prod+2,?___flmul+2
  4392   0074EE  C525  F512         	movff	___flmul@prod+3,?___flmul+3
  4393   0074F2                     l1319:
  4394   0074F2  0012               	return		;funcret
  4395   0074F4                     __end_of___flmul:
  4396                           	callstack 0
  4397                           
  4398 ;; *************** function ___fladd *****************
  4399 ;; Defined at:
  4400 ;;		line 10 in file "S:\XC8C\pic\sources\c99\common\sprcadd.c"
  4401 ;; Parameters:    Size  Location     Type
  4402 ;;  b               4   64[COMRAM] unsigned char 
  4403 ;;  a               4   68[COMRAM] unsigned char 
  4404 ;; Auto vars:     Size  Location     Type
  4405 ;;  grs             1   79[COMRAM] unsigned char 
  4406 ;;  bexp            1   78[COMRAM] unsigned char 
  4407 ;;  aexp            1   77[COMRAM] unsigned char 
  4408 ;;  signs           1   76[COMRAM] unsigned char 
  4409 ;; Return value:  Size  Location     Type
  4410 ;;                  4   64[COMRAM] unsigned char 
  4411 ;; Registers used:
  4412 ;;		wreg, status,2, status,0
  4413 ;; Tracked objects:
  4414 ;;		On entry : 0/0
  4415 ;;		On exit  : 0/0
  4416 ;;		Unchanged: 0/0
  4417 ;; Data sizes:     COMRAM   BANK5   BANK6   BANK7   BANK8   BANK9  BANK10  BANK11  BANK12
  4418 ;;      Params:         8       0       0       0       0       0       0       0       0
  4419 ;;      Locals:         4       0       0       0       0       0       0       0       0
  4420 ;;      Temps:          4       0       0       0       0       0       0       0       0
  4421 ;;      Totals:        16       0       0       0       0       0       0       0       0
  4422 ;;Total ram usage:       16 bytes
  4423 ;; Hardware stack levels used: 1
  4424 ;; This function calls:
  4425 ;;		Nothing
  4426 ;; This function is called by:
  4427 ;;		_vGenerateSinus
  4428 ;;		___flsub
  4429 ;;		_sinf
  4430 ;;		___cosdf
  4431 ;;		___rem_pio2f
  4432 ;;		___sindf
  4433 ;; This function uses a non-reentrant model
  4434 ;;
  4435                           
  4436                           	psect	text13
  4437   0074F4                     __ptext13:
  4438                           	callstack 0
  4439   0074F4                     ___fladd:
  4440                           	callstack 123
  4441   0074F4  5044               	movf	(___fladd@b+3)^(0+1280),w,c
  4442   0074F6  0B80               	andlw	128
  4443   0074F8  6E4D               	movwf	___fladd@signs^(0+1280),c
  4444   0074FA  5044               	movf	(___fladd@b+3)^(0+1280),w,c
  4445   0074FC  2444               	addwf	(___fladd@b+3)^(0+1280),w,c
  4446   0074FE  6E4F               	movwf	___fladd@bexp^(0+1280),c
  4447   007500  AE43               	btfss	(___fladd@b+2)^(0+1280),7,c
  4448   007502  EF85  F03A         	goto	u2441
  4449   007506  EF87  F03A         	goto	u2440
  4450   00750A                     u2441:
  4451   00750A  EF88  F03A         	goto	l3151
  4452   00750E                     u2440:
  4453   00750E  804F               	bsf	___fladd@bexp^(0+1280),0,c
  4454   007510                     l3151:
  4455   007510  504F               	movf	___fladd@bexp^(0+1280),w,c
  4456   007512  B4D8               	btfsc	status,2,c
  4457   007514  EF8E  F03A         	goto	u2451
  4458   007518  EF90  F03A         	goto	u2450
  4459   00751C                     u2451:
  4460   00751C  EFA5  F03A         	goto	l3161
  4461   007520                     u2450:
  4462   007520  284F               	incf	___fladd@bexp^(0+1280),w,c
  4463   007522  A4D8               	btfss	status,2,c
  4464   007524  EF96  F03A         	goto	u2461
  4465   007528  EF98  F03A         	goto	u2460
  4466   00752C                     u2461:
  4467   00752C  EFA0  F03A         	goto	l3157
  4468   007530                     u2460:
  4469   007530  0E00               	movlw	0
  4470   007532  6E41               	movwf	___fladd@b^(0+1280),c
  4471   007534  0E00               	movlw	0
  4472   007536  6E42               	movwf	(___fladd@b+1)^(0+1280),c
  4473   007538  0E00               	movlw	0
  4474   00753A  6E43               	movwf	(___fladd@b+2)^(0+1280),c
  4475   00753C  0E00               	movlw	0
  4476   00753E  6E44               	movwf	(___fladd@b+3)^(0+1280),c
  4477   007540                     l3157:
  4478   007540  8E43               	bsf	(___fladd@b+2)^(0+1280),7,c
  4479   007542  0E00               	movlw	0
  4480   007544  6E44               	movwf	(___fladd@b+3)^(0+1280),c
  4481   007546  EFAD  F03A         	goto	l3163
  4482   00754A                     l3161:
  4483   00754A  0E00               	movlw	0
  4484   00754C  6E41               	movwf	___fladd@b^(0+1280),c
  4485   00754E  0E00               	movlw	0
  4486   007550  6E42               	movwf	(___fladd@b+1)^(0+1280),c
  4487   007552  0E00               	movlw	0
  4488   007554  6E43               	movwf	(___fladd@b+2)^(0+1280),c
  4489   007556  0E00               	movlw	0
  4490   007558  6E44               	movwf	(___fladd@b+3)^(0+1280),c
  4491   00755A                     l3163:
  4492   00755A  5048               	movf	(___fladd@a+3)^(0+1280),w,c
  4493   00755C  0B80               	andlw	128
  4494   00755E  6E4E               	movwf	___fladd@aexp^(0+1280),c
  4495   007560  504D               	movf	___fladd@signs^(0+1280),w,c
  4496   007562  184E               	xorwf	___fladd@aexp^(0+1280),w,c
  4497   007564  B4D8               	btfsc	status,2,c
  4498   007566  EFB7  F03A         	goto	u2471
  4499   00756A  EFB9  F03A         	goto	u2470
  4500   00756E                     u2471:
  4501   00756E  EFBA  F03A         	goto	l3169
  4502   007572                     u2470:
  4503   007572  8C4D               	bsf	___fladd@signs^(0+1280),6,c
  4504   007574                     l3169:
  4505   007574  5048               	movf	(___fladd@a+3)^(0+1280),w,c
  4506   007576  2448               	addwf	(___fladd@a+3)^(0+1280),w,c
  4507   007578  6E4E               	movwf	___fladd@aexp^(0+1280),c
  4508   00757A  AE47               	btfss	(___fladd@a+2)^(0+1280),7,c
  4509   00757C  EFC2  F03A         	goto	u2481
  4510   007580  EFC4  F03A         	goto	u2480
  4511   007584                     u2481:
  4512   007584  EFC5  F03A         	goto	l3175
  4513   007588                     u2480:
  4514   007588  804E               	bsf	___fladd@aexp^(0+1280),0,c
  4515   00758A                     l3175:
  4516   00758A  504E               	movf	___fladd@aexp^(0+1280),w,c
  4517   00758C  B4D8               	btfsc	status,2,c
  4518   00758E  EFCB  F03A         	goto	u2491
  4519   007592  EFCD  F03A         	goto	u2490
  4520   007596                     u2491:
  4521   007596  EFE2  F03A         	goto	l3185
  4522   00759A                     u2490:
  4523   00759A  284E               	incf	___fladd@aexp^(0+1280),w,c
  4524   00759C  A4D8               	btfss	status,2,c
  4525   00759E  EFD3  F03A         	goto	u2501
  4526   0075A2  EFD5  F03A         	goto	u2500
  4527   0075A6                     u2501:
  4528   0075A6  EFDD  F03A         	goto	l3181
  4529   0075AA                     u2500:
  4530   0075AA  0E00               	movlw	0
  4531   0075AC  6E45               	movwf	___fladd@a^(0+1280),c
  4532   0075AE  0E00               	movlw	0
  4533   0075B0  6E46               	movwf	(___fladd@a+1)^(0+1280),c
  4534   0075B2  0E00               	movlw	0
  4535   0075B4  6E47               	movwf	(___fladd@a+2)^(0+1280),c
  4536   0075B6  0E00               	movlw	0
  4537   0075B8  6E48               	movwf	(___fladd@a+3)^(0+1280),c
  4538   0075BA                     l3181:
  4539   0075BA  8E47               	bsf	(___fladd@a+2)^(0+1280),7,c
  4540   0075BC  0E00               	movlw	0
  4541   0075BE  6E48               	movwf	(___fladd@a+3)^(0+1280),c
  4542   0075C0  EFEA  F03A         	goto	l3187
  4543   0075C4                     l3185:
  4544   0075C4  0E00               	movlw	0
  4545   0075C6  6E45               	movwf	___fladd@a^(0+1280),c
  4546   0075C8  0E00               	movlw	0
  4547   0075CA  6E46               	movwf	(___fladd@a+1)^(0+1280),c
  4548   0075CC  0E00               	movlw	0
  4549   0075CE  6E47               	movwf	(___fladd@a+2)^(0+1280),c
  4550   0075D0  0E00               	movlw	0
  4551   0075D2  6E48               	movwf	(___fladd@a+3)^(0+1280),c
  4552   0075D4                     l3187:
  4553   0075D4  504F               	movf	___fladd@bexp^(0+1280),w,c
  4554   0075D6  5C4E               	subwf	___fladd@aexp^(0+1280),w,c
  4555   0075D8  B0D8               	btfsc	status,0,c
  4556   0075DA  EFF1  F03A         	goto	u2511
  4557   0075DE  EFF3  F03A         	goto	u2510
  4558   0075E2                     u2511:
  4559   0075E2  EF1A  F03B         	goto	l3223
  4560   0075E6                     u2510:
  4561   0075E6  AC4D               	btfss	___fladd@signs^(0+1280),6,c
  4562   0075E8  EFF8  F03A         	goto	u2521
  4563   0075EC  EFFA  F03A         	goto	u2520
  4564   0075F0                     u2521:
  4565   0075F0  EFFC  F03A         	goto	l3193
  4566   0075F4                     u2520:
  4567   0075F4  0E80               	movlw	128
  4568   0075F6  1A4D               	xorwf	___fladd@signs^(0+1280),f,c
  4569   0075F8                     l3193:
  4570   0075F8  C54F  F550         	movff	___fladd@bexp,___fladd@grs
  4571   0075FC  C54E  F54F         	movff	___fladd@aexp,___fladd@bexp
  4572   007600  C550  F54E         	movff	___fladd@grs,___fladd@aexp
  4573   007604  C541  F550         	movff	___fladd@b,___fladd@grs
  4574   007608  C545  F541         	movff	___fladd@a,___fladd@b
  4575   00760C  C550  F545         	movff	___fladd@grs,___fladd@a
  4576   007610  C542  F550         	movff	___fladd@b+1,___fladd@grs
  4577   007614  C546  F542         	movff	___fladd@a+1,___fladd@b+1
  4578   007618  C550  F546         	movff	___fladd@grs,___fladd@a+1
  4579   00761C  C543  F550         	movff	___fladd@b+2,___fladd@grs
  4580   007620  C547  F543         	movff	___fladd@a+2,___fladd@b+2
  4581   007624  C550  F547         	movff	___fladd@grs,___fladd@a+2
  4582   007628  C544  F550         	movff	___fladd@b+3,___fladd@grs
  4583   00762C  C548  F544         	movff	___fladd@a+3,___fladd@b+3
  4584   007630  C550  F548         	movff	___fladd@grs,___fladd@a+3
  4585   007634                     l3223:
  4586   007634  0E00               	movlw	0
  4587   007636  6E50               	movwf	___fladd@grs^(0+1280),c
  4588   007638  504F               	movf	___fladd@bexp^(0+1280),w,c
  4589   00763A  C54E  F549         	movff	___fladd@aexp,??___fladd
  4590   00763E  6A4A               	clrf	(??___fladd+1)^(0+1280),c
  4591   007640  5E49               	subwf	??___fladd^(0+1280),f,c
  4592   007642  0E00               	movlw	0
  4593   007644  5A4A               	subwfb	(??___fladd+1)^(0+1280),f,c
  4594   007646  BE4A               	btfsc	(??___fladd+1)^(0+1280),7,c
  4595   007648  EF2F  F03B         	goto	u2531
  4596   00764C  504A               	movf	(??___fladd+1)^(0+1280),w,c
  4597   00764E  E109               	bnz	u2530
  4598   007650  0E1A               	movlw	26
  4599   007652  5C49               	subwf	??___fladd^(0+1280),w,c
  4600   007654  A0D8               	btfss	status,0,c
  4601   007656  EF2F  F03B         	goto	u2531
  4602   00765A  EF31  F03B         	goto	u2530
  4603   00765E                     u2531:
  4604   00765E  EF68  F03B         	goto	l1230
  4605   007662                     u2530:
  4606   007662  5041               	movf	___fladd@b^(0+1280),w,c
  4607   007664  1042               	iorwf	(___fladd@b+1)^(0+1280),w,c
  4608   007666  1043               	iorwf	(___fladd@b+2)^(0+1280),w,c
  4609   007668  1044               	iorwf	(___fladd@b+3)^(0+1280),w,c
  4610   00766A  A4D8               	btfss	status,2,c
  4611   00766C  EF3A  F03B         	goto	u2541
  4612   007670  EF3D  F03B         	goto	u2540
  4613   007674                     u2541:
  4614   007674  0E01               	movlw	1
  4615   007676  EF3E  F03B         	goto	u2550
  4616   00767A                     u2540:
  4617   00767A  0E00               	movlw	0
  4618   00767C                     u2550:
  4619   00767C  6E50               	movwf	___fladd@grs^(0+1280),c
  4620   00767E  0E00               	movlw	0
  4621   007680  6E41               	movwf	___fladd@b^(0+1280),c
  4622   007682  0E00               	movlw	0
  4623   007684  6E42               	movwf	(___fladd@b+1)^(0+1280),c
  4624   007686  0E00               	movlw	0
  4625   007688  6E43               	movwf	(___fladd@b+2)^(0+1280),c
  4626   00768A  0E00               	movlw	0
  4627   00768C  6E44               	movwf	(___fladd@b+3)^(0+1280),c
  4628   00768E  C54E  F54F         	movff	___fladd@aexp,___fladd@bexp
  4629   007692  EF71  F03B         	goto	l1229
  4630   007696                     l1231:
  4631   007696  A050               	btfss	___fladd@grs^(0+1280),0,c
  4632   007698  EF50  F03B         	goto	u2561
  4633   00769C  EF52  F03B         	goto	u2560
  4634   0076A0                     u2561:
  4635   0076A0  EF58  F03B         	goto	l3235
  4636   0076A4                     u2560:
  4637   0076A4  90D8               	bcf	status,0,c
  4638   0076A6  3050               	rrcf	___fladd@grs^(0+1280),w,c
  4639   0076A8  0901               	iorlw	1
  4640   0076AA  6E50               	movwf	___fladd@grs^(0+1280),c
  4641   0076AC  EF5A  F03B         	goto	l3237
  4642   0076B0                     l3235:
  4643   0076B0  90D8               	bcf	status,0,c
  4644   0076B2  3250               	rrcf	___fladd@grs^(0+1280),f,c
  4645   0076B4                     l3237:
  4646   0076B4  A041               	btfss	___fladd@b^(0+1280),0,c
  4647   0076B6  EF5F  F03B         	goto	u2571
  4648   0076BA  EF61  F03B         	goto	u2570
  4649   0076BE                     u2571:
  4650   0076BE  EF62  F03B         	goto	l3241
  4651   0076C2                     u2570:
  4652   0076C2  8E50               	bsf	___fladd@grs^(0+1280),7,c
  4653   0076C4                     l3241:
  4654   0076C4  3444               	rlcf	(___fladd@b+3)^(0+1280),w,c
  4655   0076C6  3244               	rrcf	(___fladd@b+3)^(0+1280),f,c
  4656   0076C8  3243               	rrcf	(___fladd@b+2)^(0+1280),f,c
  4657   0076CA  3242               	rrcf	(___fladd@b+1)^(0+1280),f,c
  4658   0076CC  3241               	rrcf	___fladd@b^(0+1280),f,c
  4659   0076CE  2A4F               	incf	___fladd@bexp^(0+1280),f,c
  4660   0076D0                     l1230:
  4661   0076D0  504E               	movf	___fladd@aexp^(0+1280),w,c
  4662   0076D2  5C4F               	subwf	___fladd@bexp^(0+1280),w,c
  4663   0076D4  A0D8               	btfss	status,0,c
  4664   0076D6  EF6F  F03B         	goto	u2581
  4665   0076DA  EF71  F03B         	goto	u2580
  4666   0076DE                     u2581:
  4667   0076DE  EF4B  F03B         	goto	l1231
  4668   0076E2                     u2580:
  4669   0076E2                     l1229:
  4670   0076E2  BC4D               	btfsc	___fladd@signs^(0+1280),6,c
  4671   0076E4  EF76  F03B         	goto	u2591
  4672   0076E8  EF78  F03B         	goto	u2590
  4673   0076EC                     u2591:
  4674   0076EC  EFB8  F03B         	goto	l3269
  4675   0076F0                     u2590:
  4676   0076F0  504F               	movf	___fladd@bexp^(0+1280),w,c
  4677   0076F2  A4D8               	btfss	status,2,c
  4678   0076F4  EF7E  F03B         	goto	u2601
  4679   0076F8  EF80  F03B         	goto	u2600
  4680   0076FC                     u2601:
  4681   0076FC  EF8A  F03B         	goto	l3251
  4682   007700                     u2600:
  4683   007700  0E00               	movlw	0
  4684   007702  6E41               	movwf	?___fladd^(0+1280),c
  4685   007704  0E00               	movlw	0
  4686   007706  6E42               	movwf	(?___fladd+1)^(0+1280),c
  4687   007708  0E00               	movlw	0
  4688   00770A  6E43               	movwf	(?___fladd+2)^(0+1280),c
  4689   00770C  0E00               	movlw	0
  4690   00770E  6E44               	movwf	(?___fladd+3)^(0+1280),c
  4691   007710  EFD9  F03C         	goto	l1238
  4692   007714                     l3251:
  4693   007714  5045               	movf	___fladd@a^(0+1280),w,c
  4694   007716  2641               	addwf	___fladd@b^(0+1280),f,c
  4695   007718  5046               	movf	(___fladd@a+1)^(0+1280),w,c
  4696   00771A  2242               	addwfc	(___fladd@b+1)^(0+1280),f,c
  4697   00771C  5047               	movf	(___fladd@a+2)^(0+1280),w,c
  4698   00771E  2243               	addwfc	(___fladd@b+2)^(0+1280),f,c
  4699   007720  5048               	movf	(___fladd@a+3)^(0+1280),w,c
  4700   007722  2244               	addwfc	(___fladd@b+3)^(0+1280),f,c
  4701   007724  A044               	btfss	(___fladd@b+3)^(0+1280),0,c
  4702   007726  EF97  F03B         	goto	u2611
  4703   00772A  EF99  F03B         	goto	u2610
  4704   00772E                     u2611:
  4705   00772E  EF45  F03C         	goto	l3305
  4706   007732                     u2610:
  4707   007732  A050               	btfss	___fladd@grs^(0+1280),0,c
  4708   007734  EF9E  F03B         	goto	u2621
  4709   007738  EFA0  F03B         	goto	u2620
  4710   00773C                     u2621:
  4711   00773C  EFA6  F03B         	goto	l3259
  4712   007740                     u2620:
  4713   007740  90D8               	bcf	status,0,c
  4714   007742  3050               	rrcf	___fladd@grs^(0+1280),w,c
  4715   007744  0901               	iorlw	1
  4716   007746  6E50               	movwf	___fladd@grs^(0+1280),c
  4717   007748  EFA8  F03B         	goto	l3261
  4718   00774C                     l3259:
  4719   00774C  90D8               	bcf	status,0,c
  4720   00774E  3250               	rrcf	___fladd@grs^(0+1280),f,c
  4721   007750                     l3261:
  4722   007750  A041               	btfss	___fladd@b^(0+1280),0,c
  4723   007752  EFAD  F03B         	goto	u2631
  4724   007756  EFAF  F03B         	goto	u2630
  4725   00775A                     u2631:
  4726   00775A  EFB0  F03B         	goto	l3265
  4727   00775E                     u2630:
  4728   00775E  8E50               	bsf	___fladd@grs^(0+1280),7,c
  4729   007760                     l3265:
  4730   007760  3444               	rlcf	(___fladd@b+3)^(0+1280),w,c
  4731   007762  3244               	rrcf	(___fladd@b+3)^(0+1280),f,c
  4732   007764  3243               	rrcf	(___fladd@b+2)^(0+1280),f,c
  4733   007766  3242               	rrcf	(___fladd@b+1)^(0+1280),f,c
  4734   007768  3241               	rrcf	___fladd@b^(0+1280),f,c
  4735   00776A  2A4F               	incf	___fladd@bexp^(0+1280),f,c
  4736   00776C  EF45  F03C         	goto	l3305
  4737   007770                     l3269:
  4738   007770  5045               	movf	___fladd@a^(0+1280),w,c
  4739   007772  5C41               	subwf	___fladd@b^(0+1280),w,c
  4740   007774  5046               	movf	(___fladd@a+1)^(0+1280),w,c
  4741   007776  5842               	subwfb	(___fladd@b+1)^(0+1280),w,c
  4742   007778  5047               	movf	(___fladd@a+2)^(0+1280),w,c
  4743   00777A  5843               	subwfb	(___fladd@b+2)^(0+1280),w,c
  4744   00777C  5044               	movf	(___fladd@b+3)^(0+1280),w,c
  4745   00777E  0A80               	xorlw	128
  4746   007780  6E49               	movwf	??___fladd^(0+1280),c
  4747   007782  5048               	movf	(___fladd@a+3)^(0+1280),w,c
  4748   007784  0A80               	xorlw	128
  4749   007786  5849               	subwfb	??___fladd^(0+1280),w,c
  4750   007788  B0D8               	btfsc	status,0,c
  4751   00778A  EFC9  F03B         	goto	u2641
  4752   00778E  EFCB  F03B         	goto	u2640
  4753   007792                     u2641:
  4754   007792  EFF6  F03B         	goto	l3279
  4755   007796                     u2640:
  4756   007796  5041               	movf	___fladd@b^(0+1280),w,c
  4757   007798  5C45               	subwf	___fladd@a^(0+1280),w,c
  4758   00779A  6E49               	movwf	??___fladd^(0+1280),c
  4759   00779C  5042               	movf	(___fladd@b+1)^(0+1280),w,c
  4760   00779E  5846               	subwfb	(___fladd@a+1)^(0+1280),w,c
  4761   0077A0  6E4A               	movwf	(??___fladd+1)^(0+1280),c
  4762   0077A2  5043               	movf	(___fladd@b+2)^(0+1280),w,c
  4763   0077A4  5847               	subwfb	(___fladd@a+2)^(0+1280),w,c
  4764   0077A6  6E4B               	movwf	(??___fladd+2)^(0+1280),c
  4765   0077A8  5044               	movf	(___fladd@b+3)^(0+1280),w,c
  4766   0077AA  5848               	subwfb	(___fladd@a+3)^(0+1280),w,c
  4767   0077AC  6E4C               	movwf	(??___fladd+3)^(0+1280),c
  4768   0077AE  0EFF               	movlw	255
  4769   0077B0  2449               	addwf	??___fladd^(0+1280),w,c
  4770   0077B2  6E41               	movwf	___fladd@b^(0+1280),c
  4771   0077B4  0EFF               	movlw	255
  4772   0077B6  204A               	addwfc	(??___fladd+1)^(0+1280),w,c
  4773   0077B8  6E42               	movwf	(___fladd@b+1)^(0+1280),c
  4774   0077BA  0EFF               	movlw	255
  4775   0077BC  204B               	addwfc	(??___fladd+2)^(0+1280),w,c
  4776   0077BE  6E43               	movwf	(___fladd@b+2)^(0+1280),c
  4777   0077C0  0EFF               	movlw	255
  4778   0077C2  204C               	addwfc	(??___fladd+3)^(0+1280),w,c
  4779   0077C4  6E44               	movwf	(___fladd@b+3)^(0+1280),c
  4780   0077C6  0E80               	movlw	128
  4781   0077C8  1A4D               	xorwf	___fladd@signs^(0+1280),f,c
  4782   0077CA  6C50               	negf	___fladd@grs^(0+1280),c
  4783   0077CC  5050               	movf	___fladd@grs^(0+1280),w,c
  4784   0077CE  A4D8               	btfss	status,2,c
  4785   0077D0  EFEC  F03B         	goto	u2651
  4786   0077D4  EFEE  F03B         	goto	u2650
  4787   0077D8                     u2651:
  4788   0077D8  EFFE  F03B         	goto	l1246
  4789   0077DC                     u2650:
  4790   0077DC  0E01               	movlw	1
  4791   0077DE  2641               	addwf	___fladd@b^(0+1280),f,c
  4792   0077E0  0E00               	movlw	0
  4793   0077E2  2242               	addwfc	(___fladd@b+1)^(0+1280),f,c
  4794   0077E4  2243               	addwfc	(___fladd@b+2)^(0+1280),f,c
  4795   0077E6  2244               	addwfc	(___fladd@b+3)^(0+1280),f,c
  4796   0077E8  EFFE  F03B         	goto	l1246
  4797   0077EC                     l3279:
  4798   0077EC  5045               	movf	___fladd@a^(0+1280),w,c
  4799   0077EE  5E41               	subwf	___fladd@b^(0+1280),f,c
  4800   0077F0  5046               	movf	(___fladd@a+1)^(0+1280),w,c
  4801   0077F2  5A42               	subwfb	(___fladd@b+1)^(0+1280),f,c
  4802   0077F4  5047               	movf	(___fladd@a+2)^(0+1280),w,c
  4803   0077F6  5A43               	subwfb	(___fladd@b+2)^(0+1280),f,c
  4804   0077F8  5048               	movf	(___fladd@a+3)^(0+1280),w,c
  4805   0077FA  5A44               	subwfb	(___fladd@b+3)^(0+1280),f,c
  4806   0077FC                     l1246:
  4807   0077FC  5041               	movf	___fladd@b^(0+1280),w,c
  4808   0077FE  1042               	iorwf	(___fladd@b+1)^(0+1280),w,c
  4809   007800  1043               	iorwf	(___fladd@b+2)^(0+1280),w,c
  4810   007802  1044               	iorwf	(___fladd@b+3)^(0+1280),w,c
  4811   007804  A4D8               	btfss	status,2,c
  4812   007806  EF07  F03C         	goto	u2661
  4813   00780A  EF09  F03C         	goto	u2660
  4814   00780E                     u2661:
  4815   00780E  EF3E  F03C         	goto	l3303
  4816   007812                     u2660:
  4817   007812  5050               	movf	___fladd@grs^(0+1280),w,c
  4818   007814  A4D8               	btfss	status,2,c
  4819   007816  EF0F  F03C         	goto	u2671
  4820   00781A  EF11  F03C         	goto	u2670
  4821   00781E                     u2671:
  4822   00781E  EF3E  F03C         	goto	l3303
  4823   007822                     u2670:
  4824   007822  0E00               	movlw	0
  4825   007824  6E41               	movwf	?___fladd^(0+1280),c
  4826   007826  0E00               	movlw	0
  4827   007828  6E42               	movwf	(?___fladd+1)^(0+1280),c
  4828   00782A  0E00               	movlw	0
  4829   00782C  6E43               	movwf	(?___fladd+2)^(0+1280),c
  4830   00782E  0E00               	movlw	0
  4831   007830  6E44               	movwf	(?___fladd+3)^(0+1280),c
  4832   007832  EFD9  F03C         	goto	l1238
  4833   007836                     l3287:
  4834   007836  90D8               	bcf	status,0,c
  4835   007838  3641               	rlcf	___fladd@b^(0+1280),f,c
  4836   00783A  3642               	rlcf	(___fladd@b+1)^(0+1280),f,c
  4837   00783C  3643               	rlcf	(___fladd@b+2)^(0+1280),f,c
  4838   00783E  3644               	rlcf	(___fladd@b+3)^(0+1280),f,c
  4839   007840  AE50               	btfss	___fladd@grs^(0+1280),7,c
  4840   007842  EF25  F03C         	goto	u2681
  4841   007846  EF27  F03C         	goto	u2680
  4842   00784A                     u2681:
  4843   00784A  EF28  F03C         	goto	l3293
  4844   00784E                     u2680:
  4845   00784E  8041               	bsf	___fladd@b^(0+1280),0,c
  4846   007850                     l3293:
  4847   007850  A050               	btfss	___fladd@grs^(0+1280),0,c
  4848   007852  EF2D  F03C         	goto	u2691
  4849   007856  EF2F  F03C         	goto	u2690
  4850   00785A                     u2691:
  4851   00785A  EF33  F03C         	goto	l3297
  4852   00785E                     u2690:
  4853   00785E  80D8               	bsf	status,0,c
  4854   007860  3650               	rlcf	___fladd@grs^(0+1280),f,c
  4855   007862  EF35  F03C         	goto	l3299
  4856   007866                     l3297:
  4857   007866  90D8               	bcf	status,0,c
  4858   007868  3650               	rlcf	___fladd@grs^(0+1280),f,c
  4859   00786A                     l3299:
  4860   00786A  504F               	movf	___fladd@bexp^(0+1280),w,c
  4861   00786C  B4D8               	btfsc	status,2,c
  4862   00786E  EF3B  F03C         	goto	u2701
  4863   007872  EF3D  F03C         	goto	u2700
  4864   007876                     u2701:
  4865   007876  EF3E  F03C         	goto	l3303
  4866   00787A                     u2700:
  4867   00787A  064F               	decf	___fladd@bexp^(0+1280),f,c
  4868   00787C                     l3303:
  4869   00787C  AE43               	btfss	(___fladd@b+2)^(0+1280),7,c
  4870   00787E  EF43  F03C         	goto	u2711
  4871   007882  EF45  F03C         	goto	u2710
  4872   007886                     u2711:
  4873   007886  EF1B  F03C         	goto	l3287
  4874   00788A                     u2710:
  4875   00788A                     l3305:
  4876   00788A  0E00               	movlw	0
  4877   00788C  6E4E               	movwf	___fladd@aexp^(0+1280),c
  4878   00788E  AE50               	btfss	___fladd@grs^(0+1280),7,c
  4879   007890  EF4C  F03C         	goto	u2721
  4880   007894  EF4E  F03C         	goto	u2720
  4881   007898                     u2721:
  4882   007898  EF66  F03C         	goto	l1255
  4883   00789C                     u2720:
  4884   00789C  C550  F549         	movff	___fladd@grs,??___fladd
  4885   0078A0  0E7F               	movlw	127
  4886   0078A2  1649               	andwf	??___fladd^(0+1280),f,c
  4887   0078A4  B4D8               	btfsc	status,2,c
  4888   0078A6  EF57  F03C         	goto	u2731
  4889   0078AA  EF59  F03C         	goto	u2730
  4890   0078AE                     u2731:
  4891   0078AE  EF5D  F03C         	goto	l1256
  4892   0078B2                     u2730:
  4893   0078B2                     l3311:
  4894   0078B2  0E01               	movlw	1
  4895   0078B4  6E4E               	movwf	___fladd@aexp^(0+1280),c
  4896   0078B6  EF66  F03C         	goto	l1255
  4897   0078BA                     l1256:
  4898   0078BA  A041               	btfss	___fladd@b^(0+1280),0,c
  4899   0078BC  EF62  F03C         	goto	u2741
  4900   0078C0  EF64  F03C         	goto	u2740
  4901   0078C4                     u2741:
  4902   0078C4  EF66  F03C         	goto	l1255
  4903   0078C8                     u2740:
  4904   0078C8  EF59  F03C         	goto	l3311
  4905   0078CC                     l1255:
  4906   0078CC  504E               	movf	___fladd@aexp^(0+1280),w,c
  4907   0078CE  B4D8               	btfsc	status,2,c
  4908   0078D0  EF6C  F03C         	goto	u2751
  4909   0078D4  EF6E  F03C         	goto	u2750
  4910   0078D8                     u2751:
  4911   0078D8  EF99  F03C         	goto	l3323
  4912   0078DC                     u2750:
  4913   0078DC  0E01               	movlw	1
  4914   0078DE  2641               	addwf	___fladd@b^(0+1280),f,c
  4915   0078E0  0E00               	movlw	0
  4916   0078E2  2242               	addwfc	(___fladd@b+1)^(0+1280),f,c
  4917   0078E4  2243               	addwfc	(___fladd@b+2)^(0+1280),f,c
  4918   0078E6  2244               	addwfc	(___fladd@b+3)^(0+1280),f,c
  4919   0078E8  A044               	btfss	(___fladd@b+3)^(0+1280),0,c
  4920   0078EA  EF79  F03C         	goto	u2761
  4921   0078EE  EF7B  F03C         	goto	u2760
  4922   0078F2                     u2761:
  4923   0078F2  EF99  F03C         	goto	l3323
  4924   0078F6                     u2760:
  4925   0078F6  C541  F549         	movff	___fladd@b,??___fladd
  4926   0078FA  C542  F54A         	movff	___fladd@b+1,??___fladd+1
  4927   0078FE  C543  F54B         	movff	___fladd@b+2,??___fladd+2
  4928   007902  C544  F54C         	movff	___fladd@b+3,??___fladd+3
  4929   007906  344C               	rlcf	(??___fladd+3)^(0+1280),w,c
  4930   007908  324C               	rrcf	(??___fladd+3)^(0+1280),f,c
  4931   00790A  324B               	rrcf	(??___fladd+2)^(0+1280),f,c
  4932   00790C  324A               	rrcf	(??___fladd+1)^(0+1280),f,c
  4933   00790E  3249               	rrcf	??___fladd^(0+1280),f,c
  4934   007910  C549  F541         	movff	??___fladd,___fladd@b
  4935   007914  C54A  F542         	movff	??___fladd+1,___fladd@b+1
  4936   007918  C54B  F543         	movff	??___fladd+2,___fladd@b+2
  4937   00791C  C54C  F544         	movff	??___fladd+3,___fladd@b+3
  4938   007920  284F               	incf	___fladd@bexp^(0+1280),w,c
  4939   007922  B4D8               	btfsc	status,2,c
  4940   007924  EF96  F03C         	goto	u2771
  4941   007928  EF98  F03C         	goto	u2770
  4942   00792C                     u2771:
  4943   00792C  EF99  F03C         	goto	l3323
  4944   007930                     u2770:
  4945   007930  2A4F               	incf	___fladd@bexp^(0+1280),f,c
  4946   007932                     l3323:
  4947   007932  284F               	incf	___fladd@bexp^(0+1280),w,c
  4948   007934  B4D8               	btfsc	status,2,c
  4949   007936  EF9F  F03C         	goto	u2781
  4950   00793A  EFA1  F03C         	goto	u2780
  4951   00793E                     u2781:
  4952   00793E  EFA9  F03C         	goto	l3327
  4953   007942                     u2780:
  4954   007942  504F               	movf	___fladd@bexp^(0+1280),w,c
  4955   007944  A4D8               	btfss	status,2,c
  4956   007946  EFA7  F03C         	goto	u2791
  4957   00794A  EFA9  F03C         	goto	u2790
  4958   00794E                     u2791:
  4959   00794E  EFBB  F03C         	goto	l3331
  4960   007952                     u2790:
  4961   007952                     l3327:
  4962   007952  0E00               	movlw	0
  4963   007954  6E41               	movwf	___fladd@b^(0+1280),c
  4964   007956  0E00               	movlw	0
  4965   007958  6E42               	movwf	(___fladd@b+1)^(0+1280),c
  4966   00795A  0E00               	movlw	0
  4967   00795C  6E43               	movwf	(___fladd@b+2)^(0+1280),c
  4968   00795E  0E00               	movlw	0
  4969   007960  6E44               	movwf	(___fladd@b+3)^(0+1280),c
  4970   007962  504F               	movf	___fladd@bexp^(0+1280),w,c
  4971   007964  A4D8               	btfss	status,2,c
  4972   007966  EFB7  F03C         	goto	u2801
  4973   00796A  EFB9  F03C         	goto	u2800
  4974   00796E                     u2801:
  4975   00796E  EFBB  F03C         	goto	l3331
  4976   007972                     u2800:
  4977   007972  0E00               	movlw	0
  4978   007974  6E4D               	movwf	___fladd@signs^(0+1280),c
  4979   007976                     l3331:
  4980   007976  A04F               	btfss	___fladd@bexp^(0+1280),0,c
  4981   007978  EFC0  F03C         	goto	u2811
  4982   00797C  EFC2  F03C         	goto	u2810
  4983   007980                     u2811:
  4984   007980  EFC5  F03C         	goto	l3335
  4985   007984                     u2810:
  4986   007984  8E43               	bsf	(___fladd@b+2)^(0+1280),7,c
  4987   007986  EFC6  F03C         	goto	l3337
  4988   00798A                     l3335:
  4989   00798A  9E43               	bcf	(___fladd@b+2)^(0+1280),7,c
  4990   00798C                     l3337:
  4991   00798C  90D8               	bcf	status,0,c
  4992   00798E  304F               	rrcf	___fladd@bexp^(0+1280),w,c
  4993   007990  6E44               	movwf	(___fladd@b+3)^(0+1280),c
  4994   007992  AE4D               	btfss	___fladd@signs^(0+1280),7,c
  4995   007994  EFCE  F03C         	goto	u2821
  4996   007998  EFD0  F03C         	goto	u2820
  4997   00799C                     u2821:
  4998   00799C  EFD1  F03C         	goto	l3343
  4999   0079A0                     u2820:
  5000   0079A0  8E44               	bsf	(___fladd@b+3)^(0+1280),7,c
  5001   0079A2                     l3343:
  5002   0079A2  C541  F541         	movff	___fladd@b,?___fladd
  5003   0079A6  C542  F542         	movff	___fladd@b+1,?___fladd+1
  5004   0079AA  C543  F543         	movff	___fladd@b+2,?___fladd+2
  5005   0079AE  C544  F544         	movff	___fladd@b+3,?___fladd+3
  5006   0079B2                     l1238:
  5007   0079B2  0012               	return		;funcret
  5008   0079B4                     __end_of___fladd:
  5009                           	callstack 0
  5010                           
  5011 ;; *************** function ___fldiv *****************
  5012 ;; Defined at:
  5013 ;;		line 11 in file "S:\XC8C\pic\sources\c99\common\sprcdiv.c"
  5014 ;; Parameters:    Size  Location     Type
  5015 ;;  b               4   39[COMRAM] unsigned char 
  5016 ;;  a               4   43[COMRAM] unsigned char 
  5017 ;; Auto vars:     Size  Location     Type
  5018 ;;  grs             4   58[COMRAM] unsigned long 
  5019 ;;  rem             4   51[COMRAM] unsigned long 
  5020 ;;  new_exp         2   56[COMRAM] short 
  5021 ;;  aexp            1   63[COMRAM] unsigned char 
  5022 ;;  bexp            1   62[COMRAM] unsigned char 
  5023 ;;  sign            1   55[COMRAM] unsigned char 
  5024 ;; Return value:  Size  Location     Type
  5025 ;;                  4   39[COMRAM] unsigned char 
  5026 ;; Registers used:
  5027 ;;		wreg, status,2, status,0
  5028 ;; Tracked objects:
  5029 ;;		On entry : 0/0
  5030 ;;		On exit  : 0/0
  5031 ;;		Unchanged: 0/0
  5032 ;; Data sizes:     COMRAM   BANK5   BANK6   BANK7   BANK8   BANK9  BANK10  BANK11  BANK12
  5033 ;;      Params:         8       0       0       0       0       0       0       0       0
  5034 ;;      Locals:        13       0       0       0       0       0       0       0       0
  5035 ;;      Temps:          4       0       0       0       0       0       0       0       0
  5036 ;;      Totals:        25       0       0       0       0       0       0       0       0
  5037 ;;Total ram usage:       25 bytes
  5038 ;; Hardware stack levels used: 1
  5039 ;; This function calls:
  5040 ;;		Nothing
  5041 ;; This function is called by:
  5042 ;;		_vGenerateSinus
  5043 ;; This function uses a non-reentrant model
  5044 ;;
  5045                           
  5046                           	psect	text14
  5047   006966                     __ptext14:
  5048                           	callstack 0
  5049   006966                     ___fldiv:
  5050                           	callstack 125
  5051   006966  502B               	movf	(___fldiv@b+3)^(0+1280),w,c
  5052   006968  0B80               	andlw	128
  5053   00696A  6E38               	movwf	___fldiv@sign^(0+1280),c
  5054   00696C  502B               	movf	(___fldiv@b+3)^(0+1280),w,c
  5055   00696E  242B               	addwf	(___fldiv@b+3)^(0+1280),w,c
  5056   006970  6E3F               	movwf	___fldiv@bexp^(0+1280),c
  5057   006972  AE2A               	btfss	(___fldiv@b+2)^(0+1280),7,c
  5058   006974  EFBE  F034         	goto	u3581
  5059   006978  EFC0  F034         	goto	u3580
  5060   00697C                     u3581:
  5061   00697C  EFC1  F034         	goto	l3957
  5062   006980                     u3580:
  5063   006980  803F               	bsf	___fldiv@bexp^(0+1280),0,c
  5064   006982                     l3957:
  5065   006982  503F               	movf	___fldiv@bexp^(0+1280),w,c
  5066   006984  B4D8               	btfsc	status,2,c
  5067   006986  EFC7  F034         	goto	u3591
  5068   00698A  EFC9  F034         	goto	u3590
  5069   00698E                     u3591:
  5070   00698E  EFDE  F034         	goto	l3967
  5071   006992                     u3590:
  5072   006992  283F               	incf	___fldiv@bexp^(0+1280),w,c
  5073   006994  A4D8               	btfss	status,2,c
  5074   006996  EFCF  F034         	goto	u3601
  5075   00699A  EFD1  F034         	goto	u3600
  5076   00699E                     u3601:
  5077   00699E  EFD9  F034         	goto	l3963
  5078   0069A2                     u3600:
  5079   0069A2  0E00               	movlw	0
  5080   0069A4  6E28               	movwf	___fldiv@b^(0+1280),c
  5081   0069A6  0E00               	movlw	0
  5082   0069A8  6E29               	movwf	(___fldiv@b+1)^(0+1280),c
  5083   0069AA  0E00               	movlw	0
  5084   0069AC  6E2A               	movwf	(___fldiv@b+2)^(0+1280),c
  5085   0069AE  0E00               	movlw	0
  5086   0069B0  6E2B               	movwf	(___fldiv@b+3)^(0+1280),c
  5087   0069B2                     l3963:
  5088   0069B2  8E2A               	bsf	(___fldiv@b+2)^(0+1280),7,c
  5089   0069B4  0E00               	movlw	0
  5090   0069B6  6E2B               	movwf	(___fldiv@b+3)^(0+1280),c
  5091   0069B8  EFE6  F034         	goto	l3969
  5092   0069BC                     l3967:
  5093   0069BC  0E00               	movlw	0
  5094   0069BE  6E28               	movwf	___fldiv@b^(0+1280),c
  5095   0069C0  0E00               	movlw	0
  5096   0069C2  6E29               	movwf	(___fldiv@b+1)^(0+1280),c
  5097   0069C4  0E00               	movlw	0
  5098   0069C6  6E2A               	movwf	(___fldiv@b+2)^(0+1280),c
  5099   0069C8  0E00               	movlw	0
  5100   0069CA  6E2B               	movwf	(___fldiv@b+3)^(0+1280),c
  5101   0069CC                     l3969:
  5102   0069CC  502F               	movf	(___fldiv@a+3)^(0+1280),w,c
  5103   0069CE  0B80               	andlw	128
  5104   0069D0  1A38               	xorwf	___fldiv@sign^(0+1280),f,c
  5105   0069D2  502F               	movf	(___fldiv@a+3)^(0+1280),w,c
  5106   0069D4  242F               	addwf	(___fldiv@a+3)^(0+1280),w,c
  5107   0069D6  6E40               	movwf	___fldiv@aexp^(0+1280),c
  5108   0069D8  AE2E               	btfss	(___fldiv@a+2)^(0+1280),7,c
  5109   0069DA  EFF1  F034         	goto	u3611
  5110   0069DE  EFF3  F034         	goto	u3610
  5111   0069E2                     u3611:
  5112   0069E2  EFF4  F034         	goto	l3977
  5113   0069E6                     u3610:
  5114   0069E6  8040               	bsf	___fldiv@aexp^(0+1280),0,c
  5115   0069E8                     l3977:
  5116   0069E8  5040               	movf	___fldiv@aexp^(0+1280),w,c
  5117   0069EA  B4D8               	btfsc	status,2,c
  5118   0069EC  EFFA  F034         	goto	u3621
  5119   0069F0  EFFC  F034         	goto	u3620
  5120   0069F4                     u3621:
  5121   0069F4  EF11  F035         	goto	l3987
  5122   0069F8                     u3620:
  5123   0069F8  2840               	incf	___fldiv@aexp^(0+1280),w,c
  5124   0069FA  A4D8               	btfss	status,2,c
  5125   0069FC  EF02  F035         	goto	u3631
  5126   006A00  EF04  F035         	goto	u3630
  5127   006A04                     u3631:
  5128   006A04  EF0C  F035         	goto	l3983
  5129   006A08                     u3630:
  5130   006A08  0E00               	movlw	0
  5131   006A0A  6E2C               	movwf	___fldiv@a^(0+1280),c
  5132   006A0C  0E00               	movlw	0
  5133   006A0E  6E2D               	movwf	(___fldiv@a+1)^(0+1280),c
  5134   006A10  0E00               	movlw	0
  5135   006A12  6E2E               	movwf	(___fldiv@a+2)^(0+1280),c
  5136   006A14  0E00               	movlw	0
  5137   006A16  6E2F               	movwf	(___fldiv@a+3)^(0+1280),c
  5138   006A18                     l3983:
  5139   006A18  8E2E               	bsf	(___fldiv@a+2)^(0+1280),7,c
  5140   006A1A  0E00               	movlw	0
  5141   006A1C  6E2F               	movwf	(___fldiv@a+3)^(0+1280),c
  5142   006A1E  EF19  F035         	goto	l3989
  5143   006A22                     l3987:
  5144   006A22  0E00               	movlw	0
  5145   006A24  6E2C               	movwf	___fldiv@a^(0+1280),c
  5146   006A26  0E00               	movlw	0
  5147   006A28  6E2D               	movwf	(___fldiv@a+1)^(0+1280),c
  5148   006A2A  0E00               	movlw	0
  5149   006A2C  6E2E               	movwf	(___fldiv@a+2)^(0+1280),c
  5150   006A2E  0E00               	movlw	0
  5151   006A30  6E2F               	movwf	(___fldiv@a+3)^(0+1280),c
  5152   006A32                     l3989:
  5153   006A32  502C               	movf	___fldiv@a^(0+1280),w,c
  5154   006A34  102D               	iorwf	(___fldiv@a+1)^(0+1280),w,c
  5155   006A36  102E               	iorwf	(___fldiv@a+2)^(0+1280),w,c
  5156   006A38  102F               	iorwf	(___fldiv@a+3)^(0+1280),w,c
  5157   006A3A  A4D8               	btfss	status,2,c
  5158   006A3C  EF22  F035         	goto	u3641
  5159   006A40  EF24  F035         	goto	u3640
  5160   006A44                     u3641:
  5161   006A44  EF3C  F035         	goto	l4001
  5162   006A48                     u3640:
  5163   006A48  0E00               	movlw	0
  5164   006A4A  6E28               	movwf	___fldiv@b^(0+1280),c
  5165   006A4C  0E00               	movlw	0
  5166   006A4E  6E29               	movwf	(___fldiv@b+1)^(0+1280),c
  5167   006A50  0E00               	movlw	0
  5168   006A52  6E2A               	movwf	(___fldiv@b+2)^(0+1280),c
  5169   006A54  0E00               	movlw	0
  5170   006A56  6E2B               	movwf	(___fldiv@b+3)^(0+1280),c
  5171   006A58  0E80               	movlw	128
  5172   006A5A  122A               	iorwf	(___fldiv@b+2)^(0+1280),f,c
  5173   006A5C  0E7F               	movlw	127
  5174   006A5E  122B               	iorwf	(___fldiv@b+3)^(0+1280),f,c
  5175   006A60                     l3995:
  5176   006A60  5038               	movf	___fldiv@sign^(0+1280),w,c
  5177   006A62  122B               	iorwf	(___fldiv@b+3)^(0+1280),f,c
  5178   006A64  C528  F528         	movff	___fldiv@b,?___fldiv
  5179   006A68  C529  F529         	movff	___fldiv@b+1,?___fldiv+1
  5180   006A6C  C52A  F52A         	movff	___fldiv@b+2,?___fldiv+2
  5181   006A70  C52B  F52B         	movff	___fldiv@b+3,?___fldiv+3
  5182   006A74  EF7F  F036         	goto	l1283
  5183   006A78                     l4001:
  5184   006A78  503F               	movf	___fldiv@bexp^(0+1280),w,c
  5185   006A7A  A4D8               	btfss	status,2,c
  5186   006A7C  EF42  F035         	goto	u3651
  5187   006A80  EF44  F035         	goto	u3650
  5188   006A84                     u3651:
  5189   006A84  EF4E  F035         	goto	l4009
  5190   006A88                     u3650:
  5191   006A88  0E00               	movlw	0
  5192   006A8A  6E28               	movwf	?___fldiv^(0+1280),c
  5193   006A8C  0E00               	movlw	0
  5194   006A8E  6E29               	movwf	(?___fldiv+1)^(0+1280),c
  5195   006A90  0E00               	movlw	0
  5196   006A92  6E2A               	movwf	(?___fldiv+2)^(0+1280),c
  5197   006A94  0E00               	movlw	0
  5198   006A96  6E2B               	movwf	(?___fldiv+3)^(0+1280),c
  5199   006A98  EF7F  F036         	goto	l1283
  5200   006A9C                     l4009:
  5201   006A9C  5040               	movf	___fldiv@aexp^(0+1280),w,c
  5202   006A9E  C53F  F530         	movff	___fldiv@bexp,??___fldiv
  5203   006AA2  6A31               	clrf	(??___fldiv+1)^(0+1280),c
  5204   006AA4  5E30               	subwf	??___fldiv^(0+1280),f,c
  5205   006AA6  0E00               	movlw	0
  5206   006AA8  5A31               	subwfb	(??___fldiv+1)^(0+1280),f,c
  5207   006AAA  0E7F               	movlw	127
  5208   006AAC  2430               	addwf	??___fldiv^(0+1280),w,c
  5209   006AAE  6E39               	movwf	___fldiv@new_exp^(0+1280),c
  5210   006AB0  0E00               	movlw	0
  5211   006AB2  2031               	addwfc	(??___fldiv+1)^(0+1280),w,c
  5212   006AB4  6E3A               	movwf	(___fldiv@new_exp+1)^(0+1280),c
  5213   006AB6  C528  F534         	movff	___fldiv@b,___fldiv@rem
  5214   006ABA  C529  F535         	movff	___fldiv@b+1,___fldiv@rem+1
  5215   006ABE  C52A  F536         	movff	___fldiv@b+2,___fldiv@rem+2
  5216   006AC2  C52B  F537         	movff	___fldiv@b+3,___fldiv@rem+3
  5217   006AC6  0E00               	movlw	0
  5218   006AC8  6E28               	movwf	___fldiv@b^(0+1280),c
  5219   006ACA  0E00               	movlw	0
  5220   006ACC  6E29               	movwf	(___fldiv@b+1)^(0+1280),c
  5221   006ACE  0E00               	movlw	0
  5222   006AD0  6E2A               	movwf	(___fldiv@b+2)^(0+1280),c
  5223   006AD2  0E00               	movlw	0
  5224   006AD4  6E2B               	movwf	(___fldiv@b+3)^(0+1280),c
  5225   006AD6  0E00               	movlw	0
  5226   006AD8  6E3B               	movwf	___fldiv@grs^(0+1280),c
  5227   006ADA  0E00               	movlw	0
  5228   006ADC  6E3C               	movwf	(___fldiv@grs+1)^(0+1280),c
  5229   006ADE  0E00               	movlw	0
  5230   006AE0  6E3D               	movwf	(___fldiv@grs+2)^(0+1280),c
  5231   006AE2  0E00               	movlw	0
  5232   006AE4  6E3E               	movwf	(___fldiv@grs+3)^(0+1280),c
  5233   006AE6  0E00               	movlw	0
  5234   006AE8  6E40               	movwf	___fldiv@aexp^(0+1280),c
  5235   006AEA  EFAF  F035         	goto	l1285
  5236   006AEE                     l4019:
  5237   006AEE  5040               	movf	___fldiv@aexp^(0+1280),w,c
  5238   006AF0  B4D8               	btfsc	status,2,c
  5239   006AF2  EF7D  F035         	goto	u3661
  5240   006AF6  EF7F  F035         	goto	u3660
  5241   006AFA                     u3661:
  5242   006AFA  EF96  F035         	goto	l4027
  5243   006AFE                     u3660:
  5244   006AFE  90D8               	bcf	status,0,c
  5245   006B00  3634               	rlcf	___fldiv@rem^(0+1280),f,c
  5246   006B02  3635               	rlcf	(___fldiv@rem+1)^(0+1280),f,c
  5247   006B04  3636               	rlcf	(___fldiv@rem+2)^(0+1280),f,c
  5248   006B06  3637               	rlcf	(___fldiv@rem+3)^(0+1280),f,c
  5249   006B08  90D8               	bcf	status,0,c
  5250   006B0A  3628               	rlcf	___fldiv@b^(0+1280),f,c
  5251   006B0C  3629               	rlcf	(___fldiv@b+1)^(0+1280),f,c
  5252   006B0E  362A               	rlcf	(___fldiv@b+2)^(0+1280),f,c
  5253   006B10  362B               	rlcf	(___fldiv@b+3)^(0+1280),f,c
  5254   006B12  AE3E               	btfss	(___fldiv@grs+3)^(0+1280),7,c
  5255   006B14  EF8E  F035         	goto	u3671
  5256   006B18  EF90  F035         	goto	u3670
  5257   006B1C                     u3671:
  5258   006B1C  EF91  F035         	goto	l1288
  5259   006B20                     u3670:
  5260   006B20  8028               	bsf	___fldiv@b^(0+1280),0,c
  5261   006B22                     l1288:
  5262   006B22  90D8               	bcf	status,0,c
  5263   006B24  363B               	rlcf	___fldiv@grs^(0+1280),f,c
  5264   006B26  363C               	rlcf	(___fldiv@grs+1)^(0+1280),f,c
  5265   006B28  363D               	rlcf	(___fldiv@grs+2)^(0+1280),f,c
  5266   006B2A  363E               	rlcf	(___fldiv@grs+3)^(0+1280),f,c
  5267   006B2C                     l4027:
  5268   006B2C  502C               	movf	___fldiv@a^(0+1280),w,c
  5269   006B2E  5C34               	subwf	___fldiv@rem^(0+1280),w,c
  5270   006B30  502D               	movf	(___fldiv@a+1)^(0+1280),w,c
  5271   006B32  5835               	subwfb	(___fldiv@rem+1)^(0+1280),w,c
  5272   006B34  502E               	movf	(___fldiv@a+2)^(0+1280),w,c
  5273   006B36  5836               	subwfb	(___fldiv@rem+2)^(0+1280),w,c
  5274   006B38  502F               	movf	(___fldiv@a+3)^(0+1280),w,c
  5275   006B3A  5837               	subwfb	(___fldiv@rem+3)^(0+1280),w,c
  5276   006B3C  A0D8               	btfss	status,0,c
  5277   006B3E  EFA3  F035         	goto	u3681
  5278   006B42  EFA5  F035         	goto	u3680
  5279   006B46                     u3681:
  5280   006B46  EFAE  F035         	goto	l4033
  5281   006B4A                     u3680:
  5282   006B4A  8C3E               	bsf	(___fldiv@grs+3)^(0+1280),6,c
  5283   006B4C  502C               	movf	___fldiv@a^(0+1280),w,c
  5284   006B4E  5E34               	subwf	___fldiv@rem^(0+1280),f,c
  5285   006B50  502D               	movf	(___fldiv@a+1)^(0+1280),w,c
  5286   006B52  5A35               	subwfb	(___fldiv@rem+1)^(0+1280),f,c
  5287   006B54  502E               	movf	(___fldiv@a+2)^(0+1280),w,c
  5288   006B56  5A36               	subwfb	(___fldiv@rem+2)^(0+1280),f,c
  5289   006B58  502F               	movf	(___fldiv@a+3)^(0+1280),w,c
  5290   006B5A  5A37               	subwfb	(___fldiv@rem+3)^(0+1280),f,c
  5291   006B5C                     l4033:
  5292   006B5C  2A40               	incf	___fldiv@aexp^(0+1280),f,c
  5293   006B5E                     l1285:
  5294   006B5E  0E19               	movlw	25
  5295   006B60  6440               	cpfsgt	___fldiv@aexp^(0+1280),c
  5296   006B62  EFB5  F035         	goto	u3691
  5297   006B66  EFB7  F035         	goto	u3690
  5298   006B6A                     u3691:
  5299   006B6A  EF77  F035         	goto	l4019
  5300   006B6E                     u3690:
  5301   006B6E  5034               	movf	___fldiv@rem^(0+1280),w,c
  5302   006B70  1035               	iorwf	(___fldiv@rem+1)^(0+1280),w,c
  5303   006B72  1036               	iorwf	(___fldiv@rem+2)^(0+1280),w,c
  5304   006B74  1037               	iorwf	(___fldiv@rem+3)^(0+1280),w,c
  5305   006B76  B4D8               	btfsc	status,2,c
  5306   006B78  EFC0  F035         	goto	u3701
  5307   006B7C  EFC2  F035         	goto	u3700
  5308   006B80                     u3701:
  5309   006B80  EFDA  F035         	goto	l4045
  5310   006B84                     u3700:
  5311   006B84  803B               	bsf	___fldiv@grs^(0+1280),0,c
  5312   006B86  EFDA  F035         	goto	l4045
  5313   006B8A                     l4039:
  5314   006B8A  90D8               	bcf	status,0,c
  5315   006B8C  3628               	rlcf	___fldiv@b^(0+1280),f,c
  5316   006B8E  3629               	rlcf	(___fldiv@b+1)^(0+1280),f,c
  5317   006B90  362A               	rlcf	(___fldiv@b+2)^(0+1280),f,c
  5318   006B92  362B               	rlcf	(___fldiv@b+3)^(0+1280),f,c
  5319   006B94  AE3E               	btfss	(___fldiv@grs+3)^(0+1280),7,c
  5320   006B96  EFCF  F035         	goto	u3711
  5321   006B9A  EFD1  F035         	goto	u3710
  5322   006B9E                     u3711:
  5323   006B9E  EFD2  F035         	goto	l1294
  5324   006BA2                     u3710:
  5325   006BA2  8028               	bsf	___fldiv@b^(0+1280),0,c
  5326   006BA4                     l1294:
  5327   006BA4  90D8               	bcf	status,0,c
  5328   006BA6  363B               	rlcf	___fldiv@grs^(0+1280),f,c
  5329   006BA8  363C               	rlcf	(___fldiv@grs+1)^(0+1280),f,c
  5330   006BAA  363D               	rlcf	(___fldiv@grs+2)^(0+1280),f,c
  5331   006BAC  363E               	rlcf	(___fldiv@grs+3)^(0+1280),f,c
  5332   006BAE  0639               	decf	___fldiv@new_exp^(0+1280),f,c
  5333   006BB0  A0D8               	btfss	status,0,c
  5334   006BB2  063A               	decf	(___fldiv@new_exp+1)^(0+1280),f,c
  5335   006BB4                     l4045:
  5336   006BB4  AE2A               	btfss	(___fldiv@b+2)^(0+1280),7,c
  5337   006BB6  EFDF  F035         	goto	u3721
  5338   006BBA  EFE1  F035         	goto	u3720
  5339   006BBE                     u3721:
  5340   006BBE  EFC5  F035         	goto	l4039
  5341   006BC2                     u3720:
  5342   006BC2  0E00               	movlw	0
  5343   006BC4  6E40               	movwf	___fldiv@aexp^(0+1280),c
  5344   006BC6  AE3E               	btfss	(___fldiv@grs+3)^(0+1280),7,c
  5345   006BC8  EFE8  F035         	goto	u3731
  5346   006BCC  EFEA  F035         	goto	u3730
  5347   006BD0                     u3731:
  5348   006BD0  EF0E  F036         	goto	l1296
  5349   006BD4                     u3730:
  5350   006BD4  0EFF               	movlw	255
  5351   006BD6  143B               	andwf	___fldiv@grs^(0+1280),w,c
  5352   006BD8  6E30               	movwf	??___fldiv^(0+1280),c
  5353   006BDA  0EFF               	movlw	255
  5354   006BDC  143C               	andwf	(___fldiv@grs+1)^(0+1280),w,c
  5355   006BDE  6E31               	movwf	(??___fldiv+1)^(0+1280),c
  5356   006BE0  0EFF               	movlw	255
  5357   006BE2  143D               	andwf	(___fldiv@grs+2)^(0+1280),w,c
  5358   006BE4  6E32               	movwf	(??___fldiv+2)^(0+1280),c
  5359   006BE6  0E7F               	movlw	127
  5360   006BE8  143E               	andwf	(___fldiv@grs+3)^(0+1280),w,c
  5361   006BEA  6E33               	movwf	(??___fldiv+3)^(0+1280),c
  5362   006BEC  5030               	movf	??___fldiv^(0+1280),w,c
  5363   006BEE  1031               	iorwf	(??___fldiv+1)^(0+1280),w,c
  5364   006BF0  1032               	iorwf	(??___fldiv+2)^(0+1280),w,c
  5365   006BF2  1033               	iorwf	(??___fldiv+3)^(0+1280),w,c
  5366   006BF4  B4D8               	btfsc	status,2,c
  5367   006BF6  EFFF  F035         	goto	u3741
  5368   006BFA  EF01  F036         	goto	u3740
  5369   006BFE                     u3741:
  5370   006BFE  EF05  F036         	goto	l1297
  5371   006C02                     u3740:
  5372   006C02                     l4053:
  5373   006C02  0E01               	movlw	1
  5374   006C04  6E40               	movwf	___fldiv@aexp^(0+1280),c
  5375   006C06  EF0E  F036         	goto	l1296
  5376   006C0A                     l1297:
  5377   006C0A  A028               	btfss	___fldiv@b^(0+1280),0,c
  5378   006C0C  EF0A  F036         	goto	u3751
  5379   006C10  EF0C  F036         	goto	u3750
  5380   006C14                     u3751:
  5381   006C14  EF0E  F036         	goto	l1296
  5382   006C18                     u3750:
  5383   006C18  EF01  F036         	goto	l4053
  5384   006C1C                     l1296:
  5385   006C1C  5040               	movf	___fldiv@aexp^(0+1280),w,c
  5386   006C1E  B4D8               	btfsc	status,2,c
  5387   006C20  EF14  F036         	goto	u3761
  5388   006C24  EF16  F036         	goto	u3760
  5389   006C28                     u3761:
  5390   006C28  EF3A  F036         	goto	l4065
  5391   006C2C                     u3760:
  5392   006C2C  0E01               	movlw	1
  5393   006C2E  2628               	addwf	___fldiv@b^(0+1280),f,c
  5394   006C30  0E00               	movlw	0
  5395   006C32  2229               	addwfc	(___fldiv@b+1)^(0+1280),f,c
  5396   006C34  222A               	addwfc	(___fldiv@b+2)^(0+1280),f,c
  5397   006C36  222B               	addwfc	(___fldiv@b+3)^(0+1280),f,c
  5398   006C38  A02B               	btfss	(___fldiv@b+3)^(0+1280),0,c
  5399   006C3A  EF21  F036         	goto	u3771
  5400   006C3E  EF23  F036         	goto	u3770
  5401   006C42                     u3771:
  5402   006C42  EF3A  F036         	goto	l4065
  5403   006C46                     u3770:
  5404   006C46  C528  F530         	movff	___fldiv@b,??___fldiv
  5405   006C4A  C529  F531         	movff	___fldiv@b+1,??___fldiv+1
  5406   006C4E  C52A  F532         	movff	___fldiv@b+2,??___fldiv+2
  5407   006C52  C52B  F533         	movff	___fldiv@b+3,??___fldiv+3
  5408   006C56  3433               	rlcf	(??___fldiv+3)^(0+1280),w,c
  5409   006C58  3233               	rrcf	(??___fldiv+3)^(0+1280),f,c
  5410   006C5A  3232               	rrcf	(??___fldiv+2)^(0+1280),f,c
  5411   006C5C  3231               	rrcf	(??___fldiv+1)^(0+1280),f,c
  5412   006C5E  3230               	rrcf	??___fldiv^(0+1280),f,c
  5413   006C60  C530  F528         	movff	??___fldiv,___fldiv@b
  5414   006C64  C531  F529         	movff	??___fldiv+1,___fldiv@b+1
  5415   006C68  C532  F52A         	movff	??___fldiv+2,___fldiv@b+2
  5416   006C6C  C533  F52B         	movff	??___fldiv+3,___fldiv@b+3
  5417   006C70  4A39               	infsnz	___fldiv@new_exp^(0+1280),f,c
  5418   006C72  2A3A               	incf	(___fldiv@new_exp+1)^(0+1280),f,c
  5419   006C74                     l4065:
  5420   006C74  BE3A               	btfsc	(___fldiv@new_exp+1)^(0+1280),7,c
  5421   006C76  EF45  F036         	goto	u3781
  5422   006C7A  503A               	movf	(___fldiv@new_exp+1)^(0+1280),w,c
  5423   006C7C  E108               	bnz	u3780
  5424   006C7E  2839               	incf	___fldiv@new_exp^(0+1280),w,c
  5425   006C80  A0D8               	btfss	status,0,c
  5426   006C82  EF45  F036         	goto	u3781
  5427   006C86  EF47  F036         	goto	u3780
  5428   006C8A                     u3781:
  5429   006C8A  EF52  F036         	goto	l4069
  5430   006C8E                     u3780:
  5431   006C8E  0E00               	movlw	0
  5432   006C90  6E3A               	movwf	(___fldiv@new_exp+1)^(0+1280),c
  5433   006C92  6839               	setf	___fldiv@new_exp^(0+1280),c
  5434   006C94  0E00               	movlw	0
  5435   006C96  6E28               	movwf	___fldiv@b^(0+1280),c
  5436   006C98  0E00               	movlw	0
  5437   006C9A  6E29               	movwf	(___fldiv@b+1)^(0+1280),c
  5438   006C9C  0E00               	movlw	0
  5439   006C9E  6E2A               	movwf	(___fldiv@b+2)^(0+1280),c
  5440   006CA0  0E00               	movlw	0
  5441   006CA2  6E2B               	movwf	(___fldiv@b+3)^(0+1280),c
  5442   006CA4                     l4069:
  5443   006CA4  BE3A               	btfsc	(___fldiv@new_exp+1)^(0+1280),7,c
  5444   006CA6  EF5F  F036         	goto	u3790
  5445   006CAA  503A               	movf	(___fldiv@new_exp+1)^(0+1280),w,c
  5446   006CAC  E106               	bnz	u3791
  5447   006CAE  0439               	decf	___fldiv@new_exp^(0+1280),w,c
  5448   006CB0  B0D8               	btfsc	status,0,c
  5449   006CB2  EF5D  F036         	goto	u3791
  5450   006CB6  EF5F  F036         	goto	u3790
  5451   006CBA                     u3791:
  5452   006CBA  EF6D  F036         	goto	l4073
  5453   006CBE                     u3790:
  5454   006CBE  0E00               	movlw	0
  5455   006CC0  6E3A               	movwf	(___fldiv@new_exp+1)^(0+1280),c
  5456   006CC2  0E00               	movlw	0
  5457   006CC4  6E39               	movwf	___fldiv@new_exp^(0+1280),c
  5458   006CC6  0E00               	movlw	0
  5459   006CC8  6E28               	movwf	___fldiv@b^(0+1280),c
  5460   006CCA  0E00               	movlw	0
  5461   006CCC  6E29               	movwf	(___fldiv@b+1)^(0+1280),c
  5462   006CCE  0E00               	movlw	0
  5463   006CD0  6E2A               	movwf	(___fldiv@b+2)^(0+1280),c
  5464   006CD2  0E00               	movlw	0
  5465   006CD4  6E2B               	movwf	(___fldiv@b+3)^(0+1280),c
  5466   006CD6  0E00               	movlw	0
  5467   006CD8  6E38               	movwf	___fldiv@sign^(0+1280),c
  5468   006CDA                     l4073:
  5469   006CDA  C539  F53F         	movff	___fldiv@new_exp,___fldiv@bexp
  5470   006CDE  A03F               	btfss	___fldiv@bexp^(0+1280),0,c
  5471   006CE0  EF74  F036         	goto	u3801
  5472   006CE4  EF76  F036         	goto	u3800
  5473   006CE8                     u3801:
  5474   006CE8  EF79  F036         	goto	l4079
  5475   006CEC                     u3800:
  5476   006CEC  8E2A               	bsf	(___fldiv@b+2)^(0+1280),7,c
  5477   006CEE  EF7A  F036         	goto	l4081
  5478   006CF2                     l4079:
  5479   006CF2  9E2A               	bcf	(___fldiv@b+2)^(0+1280),7,c
  5480   006CF4                     l4081:
  5481   006CF4  90D8               	bcf	status,0,c
  5482   006CF6  303F               	rrcf	___fldiv@bexp^(0+1280),w,c
  5483   006CF8  6E2B               	movwf	(___fldiv@b+3)^(0+1280),c
  5484   006CFA  EF30  F035         	goto	l3995
  5485   006CFE                     l1283:
  5486   006CFE  0012               	return		;funcret
  5487   006D00                     __end_of___fldiv:
  5488                           	callstack 0
  5489                           
  5490 ;; *************** function _vGPIO_Set *****************
  5491 ;; Defined at:
  5492 ;;		line 161 in file "main.c"
  5493 ;; Parameters:    Size  Location     Type
  5494 ;;  pu8GPIO_Port    2    0[COMRAM] const PTR volatile unsig
  5495 ;;		 -> PORTB(1), 
  5496 ;;  u8GPIO_Pin      1    2[COMRAM] unsigned char 
  5497 ;; Auto vars:     Size  Location     Type
  5498 ;;		None
  5499 ;; Return value:  Size  Location     Type
  5500 ;;                  1    wreg      void 
  5501 ;; Registers used:
  5502 ;;		wreg, fsr2l, fsr2h, status,2, status,0
  5503 ;; Tracked objects:
  5504 ;;		On entry : 0/0
  5505 ;;		On exit  : 0/0
  5506 ;;		Unchanged: 0/0
  5507 ;; Data sizes:     COMRAM   BANK5   BANK6   BANK7   BANK8   BANK9  BANK10  BANK11  BANK12
  5508 ;;      Params:         3       0       0       0       0       0       0       0       0
  5509 ;;      Locals:         0       0       0       0       0       0       0       0       0
  5510 ;;      Temps:          2       0       0       0       0       0       0       0       0
  5511 ;;      Totals:         5       0       0       0       0       0       0       0       0
  5512 ;;Total ram usage:        5 bytes
  5513 ;; Hardware stack levels used: 1
  5514 ;; This function calls:
  5515 ;;		Nothing
  5516 ;; This function is called by:
  5517 ;;		_main
  5518 ;; This function uses a non-reentrant model
  5519 ;;
  5520                           
  5521                           	psect	text15
  5522   00539C                     __ptext15:
  5523                           	callstack 0
  5524   00539C                     _vGPIO_Set:
  5525                           	callstack 126
  5526   00539C                     
  5527                           ;main.c: 161: static void vGPIO_Set(volatile uint8_t* const pu8GPIO_Port, uint8_t u8GPIO
      +                          _Pin);main.c: 162: {;main.c: 163:     *pu8GPIO_Port |= (1U << u8GPIO_Pin);
  5528   00539C  C503  F504         	movff	vGPIO_Set@u8GPIO_Pin,??_vGPIO_Set
  5529   0053A0  0E01               	movlw	1
  5530   0053A2  6E05               	movwf	(??_vGPIO_Set+1)^(0+1280),c
  5531   0053A4  2A04               	incf	??_vGPIO_Set^(0+1280),f,c
  5532   0053A6  EFD7  F029         	goto	u3874
  5533   0053AA                     u3875:
  5534   0053AA  90D8               	bcf	status,0,c
  5535   0053AC  3605               	rlcf	(??_vGPIO_Set+1)^(0+1280),f,c
  5536   0053AE                     u3874:
  5537   0053AE  2E04               	decfsz	??_vGPIO_Set^(0+1280),f,c
  5538   0053B0  EFD5  F029         	goto	u3875
  5539   0053B4  C501  F4D9         	movff	vGPIO_Set@pu8GPIO_Port,fsr2l
  5540   0053B8  C502  F4DA         	movff	vGPIO_Set@pu8GPIO_Port+1,fsr2h
  5541   0053BC  5005               	movf	(??_vGPIO_Set+1)^(0+1280),w,c
  5542   0053BE  12DF               	iorwf	indf2,f,c
  5543   0053C0  0012               	return		;funcret
  5544   0053C2                     __end_of_vGPIO_Set:
  5545                           	callstack 0
  5546                           
  5547 ;; *************** function _vGPIO_Reset *****************
  5548 ;; Defined at:
  5549 ;;		line 166 in file "main.c"
  5550 ;; Parameters:    Size  Location     Type
  5551 ;;  pu8GPIO_Port    2    0[COMRAM] const PTR volatile unsig
  5552 ;;		 -> PORTB(1), 
  5553 ;;  u8GPIO_Pin      1    2[COMRAM] unsigned char 
  5554 ;; Auto vars:     Size  Location     Type
  5555 ;;		None
  5556 ;; Return value:  Size  Location     Type
  5557 ;;                  1    wreg      void 
  5558 ;; Registers used:
  5559 ;;		wreg, fsr2l, fsr2h, status,2, status,0
  5560 ;; Tracked objects:
  5561 ;;		On entry : 0/0
  5562 ;;		On exit  : 0/0
  5563 ;;		Unchanged: 0/0
  5564 ;; Data sizes:     COMRAM   BANK5   BANK6   BANK7   BANK8   BANK9  BANK10  BANK11  BANK12
  5565 ;;      Params:         3       0       0       0       0       0       0       0       0
  5566 ;;      Locals:         0       0       0       0       0       0       0       0       0
  5567 ;;      Temps:          3       0       0       0       0       0       0       0       0
  5568 ;;      Totals:         6       0       0       0       0       0       0       0       0
  5569 ;;Total ram usage:        6 bytes
  5570 ;; Hardware stack levels used: 1
  5571 ;; This function calls:
  5572 ;;		Nothing
  5573 ;; This function is called by:
  5574 ;;		_main
  5575 ;; This function uses a non-reentrant model
  5576 ;;
  5577                           
  5578                           	psect	text16
  5579   0053C2                     __ptext16:
  5580                           	callstack 0
  5581   0053C2                     _vGPIO_Reset:
  5582                           	callstack 126
  5583   0053C2                     
  5584                           ;main.c: 166: static void vGPIO_Reset(volatile uint8_t* const pu8GPIO_Port, uint8_t u8GP
      +                          IO_Pin);main.c: 167: {;main.c: 168:     *pu8GPIO_Port &= ~(1U << u8GPIO_Pin);
  5585   0053C2  C503  F504         	movff	vGPIO_Reset@u8GPIO_Pin,??_vGPIO_Reset
  5586   0053C6  0E01               	movlw	1
  5587   0053C8  6E05               	movwf	(??_vGPIO_Reset+1)^(0+1280),c
  5588   0053CA  2A04               	incf	??_vGPIO_Reset^(0+1280),f,c
  5589   0053CC  EFEA  F029         	goto	u3884
  5590   0053D0                     u3885:
  5591   0053D0  90D8               	bcf	status,0,c
  5592   0053D2  3605               	rlcf	(??_vGPIO_Reset+1)^(0+1280),f,c
  5593   0053D4                     u3884:
  5594   0053D4  2E04               	decfsz	??_vGPIO_Reset^(0+1280),f,c
  5595   0053D6  EFE8  F029         	goto	u3885
  5596   0053DA  5005               	movf	(??_vGPIO_Reset+1)^(0+1280),w,c
  5597   0053DC  0AFF               	xorlw	255
  5598   0053DE  6E06               	movwf	(??_vGPIO_Reset+2)^(0+1280),c
  5599   0053E0  C501  F4D9         	movff	vGPIO_Reset@pu8GPIO_Port,fsr2l
  5600   0053E4  C502  F4DA         	movff	vGPIO_Reset@pu8GPIO_Port+1,fsr2h
  5601   0053E8  5006               	movf	(??_vGPIO_Reset+2)^(0+1280),w,c
  5602   0053EA  16DF               	andwf	indf2,f,c
  5603   0053EC  0012               	return		;funcret
  5604   0053EE                     __end_of_vGPIO_Reset:
  5605                           	callstack 0
  5606                           
  5607 ;; *************** function _s8SPI_Master_Init *****************
  5608 ;; Defined at:
  5609 ;;		line 20 in file "SPI/SPI_Master.c"
  5610 ;; Parameters:    Size  Location     Type
  5611 ;;  psSPI_Handle    2   56[COMRAM] const PTR volatile struc
  5612 ;;		 -> RAM(3327), 
  5613 ;;  psConfig        2   58[COMRAM] const PTR const struct .
  5614 ;;		 -> main@sConfig(4), 
  5615 ;; Auto vars:     Size  Location     Type
  5616 ;;		None
  5617 ;; Return value:  Size  Location     Type
  5618 ;;                  1    wreg      char 
  5619 ;; Registers used:
  5620 ;;		wreg, fsr0l, fsr0h, fsr1l, fsr1h, fsr2l, fsr2h, status,2, status,0, tblptrl, tblptrh, tblptru, cstack
  5621 ;; Tracked objects:
  5622 ;;		On entry : 0/0
  5623 ;;		On exit  : 0/0
  5624 ;;		Unchanged: 0/0
  5625 ;; Data sizes:     COMRAM   BANK5   BANK6   BANK7   BANK8   BANK9  BANK10  BANK11  BANK12
  5626 ;;      Params:         4       0       0       0       0       0       0       0       0
  5627 ;;      Locals:         0       0       0       0       0       0       0       0       0
  5628 ;;      Temps:          2       0       0       0       0       0       0       0       0
  5629 ;;      Totals:         6       0       0       0       0       0       0       0       0
  5630 ;;Total ram usage:        6 bytes
  5631 ;; Hardware stack levels used: 1
  5632 ;; Hardware stack levels required when called: 6
  5633 ;; This function calls:
  5634 ;;		___assert_fail
  5635 ;;		_vSPI_ClearFIFOs
  5636 ;;		_vSPI_Disable
  5637 ;;		_vSPI_Enable
  5638 ;; This function is called by:
  5639 ;;		_main
  5640 ;; This function uses a non-reentrant model
  5641 ;;
  5642                           
  5643                           	psect	text17
  5644   005A8C                     __ptext17:
  5645                           	callstack 0
  5646   005A8C                     _s8SPI_Master_Init:
  5647                           	callstack 120
  5648   005A8C                     
  5649                           ;SPI/SPI_Master.c: 20: int8_t s8SPI_Master_Init(sSPI_Handler_t* const psSPI_Handler, sSP
      +                          I_Config const* const psConfig);SPI/SPI_Master.c: 21: {;SPI/SPI_Master.c: 22:     ((void
      +                          )((psSPI_Handler) || (__assert_fail("psSPI_Handler", "SPI/SPI_Master.c", 22, __func__),0
      +                          )));
  5650   005A8C  5039               	movf	s8SPI_Master_Init@psSPI_Handler^(0+1280),w,c
  5651   005A8E  103A               	iorwf	(s8SPI_Master_Init@psSPI_Handler+1)^(0+1280),w,c
  5652   005A90  A4D8               	btfss	status,2,c
  5653   005A92  EF4D  F02D         	goto	u3821
  5654   005A96  EF4F  F02D         	goto	u3820
  5655   005A9A                     u3821:
  5656   005A9A  EF61  F02D         	goto	l4123
  5657   005A9E                     u3820:
  5658   005A9E  0EC7               	movlw	low STR_1
  5659   005AA0  6E31               	movwf	___assert_fail@expr^(0+1280),c
  5660   005AA2  0E7F               	movlw	high STR_1
  5661   005AA4  6E32               	movwf	(___assert_fail@expr+1)^(0+1280),c
  5662   005AA6  0EB6               	movlw	low STR_2
  5663   005AA8  6E33               	movwf	___assert_fail@file^(0+1280),c
  5664   005AAA  0E7F               	movlw	high STR_2
  5665   005AAC  6E34               	movwf	(___assert_fail@file+1)^(0+1280),c
  5666   005AAE  0E00               	movlw	0
  5667   005AB0  6E36               	movwf	(___assert_fail@line+1)^(0+1280),c
  5668   005AB2  0E16               	movlw	22
  5669   005AB4  6E35               	movwf	___assert_fail@line^(0+1280),c
  5670   005AB6  0EA4               	movlw	low STR_3
  5671   005AB8  6E37               	movwf	___assert_fail@func^(0+1280),c
  5672   005ABA  0E7F               	movlw	high STR_3
  5673   005ABC  6E38               	movwf	(___assert_fail@func+1)^(0+1280),c
  5674   005ABE  ECF7  F029         	call	___assert_fail	;wreg free
  5675   005AC2                     l4123:
  5676                           
  5677                           ;SPI/SPI_Master.c: 23:     ((void)((psConfig) || (__assert_fail("psConfig", "SPI/SPI_Mas
      +                          ter.c", 23, __func__),0)));
  5678   005AC2  503B               	movf	s8SPI_Master_Init@psConfig^(0+1280),w,c
  5679   005AC4  103C               	iorwf	(s8SPI_Master_Init@psConfig+1)^(0+1280),w,c
  5680   005AC6  A4D8               	btfss	status,2,c
  5681   005AC8  EF68  F02D         	goto	u3831
  5682   005ACC  EF6A  F02D         	goto	u3830
  5683   005AD0                     u3831:
  5684   005AD0  EF7C  F02D         	goto	l4127
  5685   005AD4                     u3830:
  5686   005AD4  0EE9               	movlw	low STR_7
  5687   005AD6  6E31               	movwf	___assert_fail@expr^(0+1280),c
  5688   005AD8  0E7F               	movlw	high STR_7
  5689   005ADA  6E32               	movwf	(___assert_fail@expr+1)^(0+1280),c
  5690   005ADC  0EB6               	movlw	low STR_2
  5691   005ADE  6E33               	movwf	___assert_fail@file^(0+1280),c
  5692   005AE0  0E7F               	movlw	high STR_2
  5693   005AE2  6E34               	movwf	(___assert_fail@file+1)^(0+1280),c
  5694   005AE4  0E00               	movlw	0
  5695   005AE6  6E36               	movwf	(___assert_fail@line+1)^(0+1280),c
  5696   005AE8  0E17               	movlw	23
  5697   005AEA  6E35               	movwf	___assert_fail@line^(0+1280),c
  5698   005AEC  0EA4               	movlw	low STR_3
  5699   005AEE  6E37               	movwf	___assert_fail@func^(0+1280),c
  5700   005AF0  0E7F               	movlw	high STR_3
  5701   005AF2  6E38               	movwf	(___assert_fail@func+1)^(0+1280),c
  5702   005AF4  ECF7  F029         	call	___assert_fail	;wreg free
  5703   005AF8                     l4127:
  5704                           
  5705                           ;SPI/SPI_Master.c: 28:     vSPI_Disable(psSPI_Handler);
  5706   005AF8  C539  F501         	movff	s8SPI_Master_Init@psSPI_Handler,vSPI_Disable@psSPI_Handler
  5707   005AFC  C53A  F502         	movff	s8SPI_Master_Init@psSPI_Handler+1,vSPI_Disable@psSPI_Handler+1
  5708   005B00  EC77  F029         	call	_vSPI_Disable	;wreg free
  5709   005B04                     
  5710                           ;SPI/SPI_Master.c: 35:     psSPI_Handler->SPIxCON0 = ( (psSPI_Handler->SPIxCON0 & (~((1U
      +                           << (2U)) | (1U << (1U))))) |
  5711   005B04  EE20 F004          	lfsr	2,4
  5712   005B08  5039               	movf	s8SPI_Master_Init@psSPI_Handler^(0+1280),w,c
  5713   005B0A  26D9               	addwf	fsr2l,f,c
  5714   005B0C  503A               	movf	(s8SPI_Master_Init@psSPI_Handler+1)^(0+1280),w,c
  5715   005B0E  22DA               	addwfc	fsr2h,f,c
  5716   005B10  EE10 F003          	lfsr	1,3
  5717   005B14  503B               	movf	s8SPI_Master_Init@psConfig^(0+1280),w,c
  5718   005B16  26E1               	addwf	fsr1l,f,c
  5719   005B18  503C               	movf	(s8SPI_Master_Init@psConfig+1)^(0+1280),w,c
  5720   005B1A  22E2               	addwfc	fsr1h,f,c
  5721   005B1C  50E7               	movf	indf1,w,c
  5722   005B1E  B4D8               	btfsc	status,2,c
  5723   005B20  EF94  F02D         	goto	u3841
  5724   005B24  EF98  F02D         	goto	u3840
  5725   005B28                     u3841:
  5726   005B28  6A3D               	clrf	??_s8SPI_Master_Init^(0+1280),c
  5727   005B2A  2A3D               	incf	??_s8SPI_Master_Init^(0+1280),f,c
  5728   005B2C  EF99  F02D         	goto	u3858
  5729   005B30                     u3840:
  5730   005B30  6A3D               	clrf	??_s8SPI_Master_Init^(0+1280),c
  5731   005B32                     u3858:
  5732   005B32  0E03               	movlw	3
  5733   005B34  123D               	iorwf	??_s8SPI_Master_Init^(0+1280),f,c
  5734   005B36  EE10 F004          	lfsr	1,4
  5735   005B3A  5039               	movf	s8SPI_Master_Init@psSPI_Handler^(0+1280),w,c
  5736   005B3C  26E1               	addwf	fsr1l,f,c
  5737   005B3E  503A               	movf	(s8SPI_Master_Init@psSPI_Handler+1)^(0+1280),w,c
  5738   005B40  22E2               	addwfc	fsr1h,f,c
  5739   005B42  50E7               	movf	indf1,w,c
  5740   005B44  0BF9               	andlw	249
  5741   005B46  103D               	iorwf	??_s8SPI_Master_Init^(0+1280),w,c
  5742   005B48  6EDF               	movwf	indf2,c
  5743   005B4A                     
  5744                           ;SPI/SPI_Master.c: 41:     psSPI_Handler->SPIxTWIDTH = (psSPI_Handler->SPIxTWIDTH & ~(7U
      +                           << (0U)));
  5745   005B4A  EE20 F008          	lfsr	2,8
  5746   005B4E  5039               	movf	s8SPI_Master_Init@psSPI_Handler^(0+1280),w,c
  5747   005B50  26D9               	addwf	fsr2l,f,c
  5748   005B52  503A               	movf	(s8SPI_Master_Init@psSPI_Handler+1)^(0+1280),w,c
  5749   005B54  22DA               	addwfc	fsr2h,f,c
  5750   005B56  EE10 F008          	lfsr	1,8
  5751   005B5A  5039               	movf	s8SPI_Master_Init@psSPI_Handler^(0+1280),w,c
  5752   005B5C  26E1               	addwf	fsr1l,f,c
  5753   005B5E  503A               	movf	(s8SPI_Master_Init@psSPI_Handler+1)^(0+1280),w,c
  5754   005B60  22E2               	addwfc	fsr1h,f,c
  5755   005B62  50E7               	movf	indf1,w,c
  5756   005B64  0BF8               	andlw	248
  5757   005B66  6EDF               	movwf	indf2,c
  5758   005B68                     
  5759                           ;SPI/SPI_Master.c: 49:     psSPI_Handler->SPIxCON1 = ( (psSPI_Handler->SPIxCON1 & (~((((
      +                          1U << (6U)) | (1U << (5U)))) | (1U << (1U)) | (1U << (0U))))) |
  5760   005B68  EE20 F005          	lfsr	2,5
  5761   005B6C  5039               	movf	s8SPI_Master_Init@psSPI_Handler^(0+1280),w,c
  5762   005B6E  26D9               	addwf	fsr2l,f,c
  5763   005B70  503A               	movf	(s8SPI_Master_Init@psSPI_Handler+1)^(0+1280),w,c
  5764   005B72  22DA               	addwfc	fsr2h,f,c
  5765   005B74  C53B  F4E1         	movff	s8SPI_Master_Init@psConfig,fsr1l
  5766   005B78  C53C  F4E2         	movff	s8SPI_Master_Init@psConfig+1,fsr1h
  5767   005B7C  50E7               	movf	indf1,w,c
  5768   005B7E  6E3D               	movwf	??_s8SPI_Master_Init^(0+1280),c
  5769   005B80  0E05               	movlw	5
  5770   005B82  6E3E               	movwf	(??_s8SPI_Master_Init+1)^(0+1280),c
  5771   005B84                     u3865:
  5772   005B84  90D8               	bcf	status,0,c
  5773   005B86  363D               	rlcf	??_s8SPI_Master_Init^(0+1280),f,c
  5774   005B88  2E3E               	decfsz	(??_s8SPI_Master_Init+1)^(0+1280),f,c
  5775   005B8A  EFC2  F02D         	goto	u3865
  5776   005B8E  0E04               	movlw	4
  5777   005B90  123D               	iorwf	??_s8SPI_Master_Init^(0+1280),f,c
  5778   005B92  EE10 F005          	lfsr	1,5
  5779   005B96  5039               	movf	s8SPI_Master_Init@psSPI_Handler^(0+1280),w,c
  5780   005B98  26E1               	addwf	fsr1l,f,c
  5781   005B9A  503A               	movf	(s8SPI_Master_Init@psSPI_Handler+1)^(0+1280),w,c
  5782   005B9C  22E2               	addwfc	fsr1h,f,c
  5783   005B9E  50E7               	movf	indf1,w,c
  5784   005BA0  0B9C               	andlw	156
  5785   005BA2  103D               	iorwf	??_s8SPI_Master_Init^(0+1280),w,c
  5786   005BA4  6EDF               	movwf	indf2,c
  5787   005BA6                     
  5788                           ;SPI/SPI_Master.c: 55:     psSPI_Handler->SPIxCLK = ( (psSPI_Handler->SPIxCLK & (~(0x0F 
      +                          << (0U)))) |
  5789   005BA6  EE20 F00C          	lfsr	2,12
  5790   005BAA  5039               	movf	s8SPI_Master_Init@psSPI_Handler^(0+1280),w,c
  5791   005BAC  26D9               	addwf	fsr2l,f,c
  5792   005BAE  503A               	movf	(s8SPI_Master_Init@psSPI_Handler+1)^(0+1280),w,c
  5793   005BB0  22DA               	addwfc	fsr2h,f,c
  5794   005BB2  EE10 F001          	lfsr	1,1
  5795   005BB6  503B               	movf	s8SPI_Master_Init@psConfig^(0+1280),w,c
  5796   005BB8  26E1               	addwf	fsr1l,f,c
  5797   005BBA  503C               	movf	(s8SPI_Master_Init@psConfig+1)^(0+1280),w,c
  5798   005BBC  22E2               	addwfc	fsr1h,f,c
  5799   005BBE  50E7               	movf	indf1,w,c
  5800   005BC0  6E3D               	movwf	??_s8SPI_Master_Init^(0+1280),c
  5801   005BC2  EE10 F00C          	lfsr	1,12
  5802   005BC6  5039               	movf	s8SPI_Master_Init@psSPI_Handler^(0+1280),w,c
  5803   005BC8  26E1               	addwf	fsr1l,f,c
  5804   005BCA  503A               	movf	(s8SPI_Master_Init@psSPI_Handler+1)^(0+1280),w,c
  5805   005BCC  22E2               	addwfc	fsr1h,f,c
  5806   005BCE  50E7               	movf	indf1,w,c
  5807   005BD0  0BF0               	andlw	240
  5808   005BD2  103D               	iorwf	??_s8SPI_Master_Init^(0+1280),w,c
  5809   005BD4  6EDF               	movwf	indf2,c
  5810   005BD6                     
  5811                           ;SPI/SPI_Master.c: 61:     psSPI_Handler->SPIxBAUD = ( (psSPI_Handler->SPIxBAUD & (0xFF 
      +                          << (0U))) |
  5812   005BD6  EE20 F009          	lfsr	2,9
  5813   005BDA  5039               	movf	s8SPI_Master_Init@psSPI_Handler^(0+1280),w,c
  5814   005BDC  26D9               	addwf	fsr2l,f,c
  5815   005BDE  503A               	movf	(s8SPI_Master_Init@psSPI_Handler+1)^(0+1280),w,c
  5816   005BE0  22DA               	addwfc	fsr2h,f,c
  5817   005BE2  EE10 F002          	lfsr	1,2
  5818   005BE6  503B               	movf	s8SPI_Master_Init@psConfig^(0+1280),w,c
  5819   005BE8  26E1               	addwf	fsr1l,f,c
  5820   005BEA  503C               	movf	(s8SPI_Master_Init@psConfig+1)^(0+1280),w,c
  5821   005BEC  22E2               	addwfc	fsr1h,f,c
  5822   005BEE  50E7               	movf	indf1,w,c
  5823   005BF0  6E3D               	movwf	??_s8SPI_Master_Init^(0+1280),c
  5824   005BF2  EE10 F009          	lfsr	1,9
  5825   005BF6  5039               	movf	s8SPI_Master_Init@psSPI_Handler^(0+1280),w,c
  5826   005BF8  26E1               	addwf	fsr1l,f,c
  5827   005BFA  503A               	movf	(s8SPI_Master_Init@psSPI_Handler+1)^(0+1280),w,c
  5828   005BFC  22E2               	addwfc	fsr1h,f,c
  5829   005BFE  50E7               	movf	indf1,w,c
  5830   005C00  103D               	iorwf	??_s8SPI_Master_Init^(0+1280),w,c
  5831   005C02  6EDF               	movwf	indf2,c
  5832   005C04                     
  5833                           ;SPI/SPI_Master.c: 64:     vSPI_ClearFIFOs(psSPI_Handler);
  5834   005C04  C539  F501         	movff	s8SPI_Master_Init@psSPI_Handler,vSPI_ClearFIFOs@psSPI_Handler
  5835   005C08  C53A  F502         	movff	s8SPI_Master_Init@psSPI_Handler+1,vSPI_ClearFIFOs@psSPI_Handler+1
  5836   005C0C  EC6E  F029         	call	_vSPI_ClearFIFOs	;wreg free
  5837   005C10                     
  5838                           ;SPI/SPI_Master.c: 65:     vSPI_Enable(psSPI_Handler);
  5839   005C10  C539  F501         	movff	s8SPI_Master_Init@psSPI_Handler,vSPI_Enable@psSPI_Handler
  5840   005C14  C53A  F502         	movff	s8SPI_Master_Init@psSPI_Handler+1,vSPI_Enable@psSPI_Handler+1
  5841   005C18  EC80  F029         	call	_vSPI_Enable	;wreg free
  5842   005C1C  0012               	return		;funcret
  5843   005C1E                     __end_of_s8SPI_Master_Init:
  5844                           	callstack 0
  5845                           
  5846 ;; *************** function _vSPI_Enable *****************
  5847 ;; Defined at:
  5848 ;;		line 132 in file "SPI/SPI_Master.c"
  5849 ;; Parameters:    Size  Location     Type
  5850 ;;  psSPI_Handle    2    0[COMRAM] const PTR volatile struc
  5851 ;;		 -> RAM(3327), 
  5852 ;; Auto vars:     Size  Location     Type
  5853 ;;		None
  5854 ;; Return value:  Size  Location     Type
  5855 ;;                  1    wreg      void 
  5856 ;; Registers used:
  5857 ;;		wreg, fsr2l, fsr2h, status,2, status,0
  5858 ;; Tracked objects:
  5859 ;;		On entry : 0/0
  5860 ;;		On exit  : 0/0
  5861 ;;		Unchanged: 0/0
  5862 ;; Data sizes:     COMRAM   BANK5   BANK6   BANK7   BANK8   BANK9  BANK10  BANK11  BANK12
  5863 ;;      Params:         2       0       0       0       0       0       0       0       0
  5864 ;;      Locals:         0       0       0       0       0       0       0       0       0
  5865 ;;      Temps:          0       0       0       0       0       0       0       0       0
  5866 ;;      Totals:         2       0       0       0       0       0       0       0       0
  5867 ;;Total ram usage:        2 bytes
  5868 ;; Hardware stack levels used: 1
  5869 ;; This function calls:
  5870 ;;		Nothing
  5871 ;; This function is called by:
  5872 ;;		_s8SPI_Master_Init
  5873 ;; This function uses a non-reentrant model
  5874 ;;
  5875                           
  5876                           	psect	text18
  5877   005300                     __ptext18:
  5878                           	callstack 0
  5879   005300                     _vSPI_Enable:
  5880                           	callstack 125
  5881   005300                     
  5882                           ;SPI/SPI_Master.c: 132: __inline static void vSPI_Enable(sSPI_Handler_t* const psSPI_Han
      +                          dler);SPI/SPI_Master.c: 133: {;SPI/SPI_Master.c: 134:     psSPI_Handler->SPIxCON0 |= (1U
      +                           << (7U));
  5883   005300  EE20 F004          	lfsr	2,4
  5884   005304  5001               	movf	vSPI_Enable@psSPI_Handler^(0+1280),w,c
  5885   005306  26D9               	addwf	fsr2l,f,c
  5886   005308  5002               	movf	(vSPI_Enable@psSPI_Handler+1)^(0+1280),w,c
  5887   00530A  22DA               	addwfc	fsr2h,f,c
  5888   00530C  0E00               	movlw	0
  5889   00530E  8EDB               	bsf	plusw2,7,c
  5890   005310  0012               	return		;funcret
  5891   005312                     __end_of_vSPI_Enable:
  5892                           	callstack 0
  5893                           
  5894 ;; *************** function _vSPI_Disable *****************
  5895 ;; Defined at:
  5896 ;;		line 137 in file "SPI/SPI_Master.c"
  5897 ;; Parameters:    Size  Location     Type
  5898 ;;  psSPI_Handle    2    0[COMRAM] const PTR volatile struc
  5899 ;;		 -> RAM(3327), 
  5900 ;; Auto vars:     Size  Location     Type
  5901 ;;		None
  5902 ;; Return value:  Size  Location     Type
  5903 ;;                  1    wreg      void 
  5904 ;; Registers used:
  5905 ;;		wreg, fsr2l, fsr2h, status,2, status,0
  5906 ;; Tracked objects:
  5907 ;;		On entry : 0/0
  5908 ;;		On exit  : 0/0
  5909 ;;		Unchanged: 0/0
  5910 ;; Data sizes:     COMRAM   BANK5   BANK6   BANK7   BANK8   BANK9  BANK10  BANK11  BANK12
  5911 ;;      Params:         2       0       0       0       0       0       0       0       0
  5912 ;;      Locals:         0       0       0       0       0       0       0       0       0
  5913 ;;      Temps:          0       0       0       0       0       0       0       0       0
  5914 ;;      Totals:         2       0       0       0       0       0       0       0       0
  5915 ;;Total ram usage:        2 bytes
  5916 ;; Hardware stack levels used: 1
  5917 ;; This function calls:
  5918 ;;		Nothing
  5919 ;; This function is called by:
  5920 ;;		_s8SPI_Master_Init
  5921 ;; This function uses a non-reentrant model
  5922 ;;
  5923                           
  5924                           	psect	text19
  5925   0052EE                     __ptext19:
  5926                           	callstack 0
  5927   0052EE                     _vSPI_Disable:
  5928                           	callstack 125
  5929   0052EE                     
  5930                           ;SPI/SPI_Master.c: 137: __inline static void vSPI_Disable(sSPI_Handler_t* const psSPI_Ha
      +                          ndler);SPI/SPI_Master.c: 138: {;SPI/SPI_Master.c: 139:     psSPI_Handler->SPIxCON0 &= (1
      +                          U << (7U));
  5931   0052EE  EE20 F004          	lfsr	2,4
  5932   0052F2  5001               	movf	vSPI_Disable@psSPI_Handler^(0+1280),w,c
  5933   0052F4  26D9               	addwf	fsr2l,f,c
  5934   0052F6  5002               	movf	(vSPI_Disable@psSPI_Handler+1)^(0+1280),w,c
  5935   0052F8  22DA               	addwfc	fsr2h,f,c
  5936   0052FA  0E80               	movlw	128
  5937   0052FC  16DF               	andwf	indf2,f,c
  5938   0052FE  0012               	return		;funcret
  5939   005300                     __end_of_vSPI_Disable:
  5940                           	callstack 0
  5941                           
  5942 ;; *************** function _vSPI_ClearFIFOs *****************
  5943 ;; Defined at:
  5944 ;;		line 142 in file "SPI/SPI_Master.c"
  5945 ;; Parameters:    Size  Location     Type
  5946 ;;  psSPI_Handle    2    0[COMRAM] const PTR volatile struc
  5947 ;;		 -> RAM(3327), 
  5948 ;; Auto vars:     Size  Location     Type
  5949 ;;		None
  5950 ;; Return value:  Size  Location     Type
  5951 ;;                  1    wreg      void 
  5952 ;; Registers used:
  5953 ;;		wreg, fsr2l, fsr2h, status,2, status,0
  5954 ;; Tracked objects:
  5955 ;;		On entry : 0/0
  5956 ;;		On exit  : 0/0
  5957 ;;		Unchanged: 0/0
  5958 ;; Data sizes:     COMRAM   BANK5   BANK6   BANK7   BANK8   BANK9  BANK10  BANK11  BANK12
  5959 ;;      Params:         2       0       0       0       0       0       0       0       0
  5960 ;;      Locals:         0       0       0       0       0       0       0       0       0
  5961 ;;      Temps:          0       0       0       0       0       0       0       0       0
  5962 ;;      Totals:         2       0       0       0       0       0       0       0       0
  5963 ;;Total ram usage:        2 bytes
  5964 ;; Hardware stack levels used: 1
  5965 ;; This function calls:
  5966 ;;		Nothing
  5967 ;; This function is called by:
  5968 ;;		_s8SPI_Master_Init
  5969 ;;		_s8SPI_Master_TransmitData
  5970 ;;		_s8SPI_Master_ReceiveData
  5971 ;;		_s8SPI_Master_TransmitReceiveData
  5972 ;; This function uses a non-reentrant model
  5973 ;;
  5974                           
  5975                           	psect	text20
  5976   0052DC                     __ptext20:
  5977                           	callstack 0
  5978   0052DC                     _vSPI_ClearFIFOs:
  5979                           	callstack 125
  5980   0052DC                     
  5981                           ;SPI/SPI_Master.c: 142: __inline static void vSPI_ClearFIFOs(sSPI_Handler_t* const psSPI
      +                          _Handler);SPI/SPI_Master.c: 143: {;SPI/SPI_Master.c: 144:     psSPI_Handler->SPIxSTATUS 
      +                          |= (1U << (2U));
  5982   0052DC  EE20 F007          	lfsr	2,7
  5983   0052E0  5001               	movf	vSPI_ClearFIFOs@psSPI_Handler^(0+1280),w,c
  5984   0052E2  26D9               	addwf	fsr2l,f,c
  5985   0052E4  5002               	movf	(vSPI_ClearFIFOs@psSPI_Handler+1)^(0+1280),w,c
  5986   0052E6  22DA               	addwfc	fsr2h,f,c
  5987   0052E8  0E00               	movlw	0
  5988   0052EA  84DB               	bsf	plusw2,2,c
  5989   0052EC  0012               	return		;funcret
  5990   0052EE                     __end_of_vSPI_ClearFIFOs:
  5991                           	callstack 0
  5992                           
  5993 ;; *************** function ___assert_fail *****************
  5994 ;; Defined at:
  5995 ;;		line 8 in file "S:\XC8C\pic\sources\c99\common\assert.c"
  5996 ;; Parameters:    Size  Location     Type
  5997 ;;  expr            2   48[COMRAM] PTR const unsigned char 
  5998 ;;		 -> STR_52(10), STR_46(10), STR_40(14), STR_34(8), 
  5999 ;;		 -> STR_28(14), STR_22(8), STR_16(14), STR_10(9), 
  6000 ;;		 -> STR_4(14), 
  6001 ;;  file            2   50[COMRAM] PTR const unsigned char 
  6002 ;;		 -> STR_53(17), STR_47(17), STR_41(17), STR_35(17), 
  6003 ;;		 -> STR_29(17), STR_23(17), STR_17(17), STR_11(17), 
  6004 ;;		 -> STR_5(17), 
  6005 ;;  line            2   52[COMRAM] int 
  6006 ;;  func            2   54[COMRAM] PTR const unsigned char 
  6007 ;;		 -> STR_54(33), STR_48(33), STR_42(33), STR_36(25), 
  6008 ;;		 -> STR_30(25), STR_24(26), STR_18(26), STR_12(18), 
  6009 ;;		 -> STR_6(18), 
  6010 ;; Auto vars:     Size  Location     Type
  6011 ;;		None
  6012 ;; Return value:  Size  Location     Type
  6013 ;;                  1    wreg      void 
  6014 ;; Registers used:
  6015 ;;		wreg, fsr0l, fsr0h, fsr1l, fsr1h, fsr2l, fsr2h, status,2, status,0, tblptrl, tblptrh, tblptru, cstack
  6016 ;; Tracked objects:
  6017 ;;		On entry : 0/0
  6018 ;;		On exit  : 0/0
  6019 ;;		Unchanged: 0/0
  6020 ;; Data sizes:     COMRAM   BANK5   BANK6   BANK7   BANK8   BANK9  BANK10  BANK11  BANK12
  6021 ;;      Params:         8       0       0       0       0       0       0       0       0
  6022 ;;      Locals:         0       0       0       0       0       0       0       0       0
  6023 ;;      Temps:          0       0       0       0       0       0       0       0       0
  6024 ;;      Totals:         8       0       0       0       0       0       0       0       0
  6025 ;;Total ram usage:        8 bytes
  6026 ;; Hardware stack levels used: 1
  6027 ;; Hardware stack levels required when called: 5
  6028 ;; This function calls:
  6029 ;;		_abort
  6030 ;;		_printf
  6031 ;; This function is called by:
  6032 ;;		_s8SPI_Master_Init
  6033 ;;		_s8SPI_Master_TransmitData
  6034 ;;		_s8SPI_Master_ReceiveData
  6035 ;;		_s8SPI_Master_TransmitReceiveData
  6036 ;; This function uses a non-reentrant model
  6037 ;;
  6038                           
  6039                           	psect	text21
  6040   0053EE                     __ptext21:
  6041                           	callstack 0
  6042   0053EE                     ___assert_fail:
  6043                           	callstack 120
  6044   0053EE  0E2D               	movlw	low STR_55
  6045   0053F0  6E25               	movwf	printf@fmt^(0+1280),c
  6046   0053F2  0E7F               	movlw	high STR_55
  6047   0053F4  6E26               	movwf	(printf@fmt+1)^(0+1280),c
  6048   0053F6  C531  F527         	movff	___assert_fail@expr,?_printf+2
  6049   0053FA  C532  F528         	movff	___assert_fail@expr+1,?_printf+3
  6050   0053FE  C533  F529         	movff	___assert_fail@file,?_printf+4
  6051   005402  C534  F52A         	movff	___assert_fail@file+1,?_printf+5
  6052   005406  C537  F52B         	movff	___assert_fail@func,?_printf+6
  6053   00540A  C538  F52C         	movff	___assert_fail@func+1,?_printf+7
  6054   00540E  C535  F52D         	movff	___assert_fail@line,?_printf+8
  6055   005412  C536  F52E         	movff	___assert_fail@line+1,?_printf+9
  6056   005416  ECBB  F029         	call	_printf	;wreg free
  6057   00541A  EC5F  F029         	call	_abort	;wreg free
  6058   00541E  0012               	return		;funcret
  6059   005420                     __end_of___assert_fail:
  6060                           	callstack 0
  6061                           
  6062 ;; *************** function _printf *****************
  6063 ;; Defined at:
  6064 ;;		line 5 in file "S:\XC8C\pic\sources\c99\common\printf.c"
  6065 ;; Parameters:    Size  Location     Type
  6066 ;;  fmt             2   36[COMRAM] PTR const unsigned char 
  6067 ;;		 -> STR_55(35), 
  6068 ;; Auto vars:     Size  Location     Type
  6069 ;;  ap              2   46[COMRAM] PTR void [1]
  6070 ;;		 -> ?_printf(2), 
  6071 ;;  ret             2    0        int 
  6072 ;; Return value:  Size  Location     Type
  6073 ;;                  2   36[COMRAM] int 
  6074 ;; Registers used:
  6075 ;;		wreg, fsr0l, fsr0h, fsr1l, fsr1h, fsr2l, fsr2h, status,2, status,0, tblptrl, tblptrh, tblptru, cstack
  6076 ;; Tracked objects:
  6077 ;;		On entry : 0/0
  6078 ;;		On exit  : 0/0
  6079 ;;		Unchanged: 0/0
  6080 ;; Data sizes:     COMRAM   BANK5   BANK6   BANK7   BANK8   BANK9  BANK10  BANK11  BANK12
  6081 ;;      Params:        10       0       0       0       0       0       0       0       0
  6082 ;;      Locals:         2       0       0       0       0       0       0       0       0
  6083 ;;      Temps:          0       0       0       0       0       0       0       0       0
  6084 ;;      Totals:        12       0       0       0       0       0       0       0       0
  6085 ;;Total ram usage:       12 bytes
  6086 ;; Hardware stack levels used: 1
  6087 ;; Hardware stack levels required when called: 4
  6088 ;; This function calls:
  6089 ;;		_vfprintf
  6090 ;; This function is called by:
  6091 ;;		___assert_fail
  6092 ;; This function uses a non-reentrant model
  6093 ;;
  6094                           
  6095                           	psect	text22
  6096   005376                     __ptext22:
  6097                           	callstack 0
  6098   005376                     _printf:
  6099                           	callstack 120
  6100   005376  0E27               	movlw	low (?_printf+2)
  6101   005378  6E2F               	movwf	printf@ap^(0+1280),c
  6102   00537A  0E05               	movlw	high (?_printf+2)
  6103   00537C  6E30               	movwf	(printf@ap+1)^(0+1280),c
  6104   00537E  0E00               	movlw	0
  6105   005380  6E1D               	movwf	vfprintf@fp^(0+1280),c
  6106   005382  0E00               	movlw	0
  6107   005384  6E1E               	movwf	(vfprintf@fp+1)^(0+1280),c
  6108   005386  C525  F51F         	movff	printf@fmt,vfprintf@fmt
  6109   00538A  C526  F520         	movff	printf@fmt+1,vfprintf@fmt+1
  6110   00538E  0E2F               	movlw	low printf@ap
  6111   005390  6E21               	movwf	vfprintf@ap^(0+1280),c
  6112   005392  0E05               	movlw	high printf@ap
  6113   005394  6E22               	movwf	(vfprintf@ap+1)^(0+1280),c
  6114   005396  ECC1  F02A         	call	_vfprintf	;wreg free
  6115   00539A  0012               	return		;funcret
  6116   00539C                     __end_of_printf:
  6117                           	callstack 0
  6118                           
  6119 ;; *************** function _vfprintf *****************
  6120 ;; Defined at:
  6121 ;;		line 1817 in file "S:\XC8C\pic\sources\c99\common\doprnt.c"
  6122 ;; Parameters:    Size  Location     Type
  6123 ;;  fp              2   28[COMRAM] PTR struct _IO_FILE
  6124 ;;		 -> NULL(0), 
  6125 ;;  fmt             2   30[COMRAM] PTR const unsigned char 
  6126 ;;		 -> STR_55(35), 
  6127 ;;  ap              2   32[COMRAM] PTR PTR void 
  6128 ;;		 -> printf@ap(2), 
  6129 ;; Auto vars:     Size  Location     Type
  6130 ;;  cfmt            2   34[COMRAM] PTR unsigned char 
  6131 ;;		 -> STR_55(35), 
  6132 ;; Return value:  Size  Location     Type
  6133 ;;                  2   28[COMRAM] int 
  6134 ;; Registers used:
  6135 ;;		wreg, fsr0l, fsr0h, fsr1l, fsr1h, fsr2l, fsr2h, status,2, status,0, tblptrl, tblptrh, tblptru, cstack
  6136 ;; Tracked objects:
  6137 ;;		On entry : 0/0
  6138 ;;		On exit  : 0/0
  6139 ;;		Unchanged: 0/0
  6140 ;; Data sizes:     COMRAM   BANK5   BANK6   BANK7   BANK8   BANK9  BANK10  BANK11  BANK12
  6141 ;;      Params:         6       0       0       0       0       0       0       0       0
  6142 ;;      Locals:         2       0       0       0       0       0       0       0       0
  6143 ;;      Temps:          0       0       0       0       0       0       0       0       0
  6144 ;;      Totals:         8       0       0       0       0       0       0       0       0
  6145 ;;Total ram usage:        8 bytes
  6146 ;; Hardware stack levels used: 1
  6147 ;; Hardware stack levels required when called: 3
  6148 ;; This function calls:
  6149 ;;		_vfpfcnvrt
  6150 ;; This function is called by:
  6151 ;;		_printf
  6152 ;; This function uses a non-reentrant model
  6153 ;;
  6154                           
  6155                           	psect	text23
  6156   005582                     __ptext23:
  6157                           	callstack 0
  6158   005582                     _vfprintf:
  6159                           	callstack 120
  6160   005582                     
  6161                           ;S:\XC8C\pic\sources\c99\common\doprnt.c: 1817: int vfprintf(FILE *fp, const char *fmt, 
      +                          va_list ap);S:\XC8C\pic\sources\c99\common\doprnt.c: 1818: {;S:\XC8C\pic\sources\c99\com
      +                          mon\doprnt.c: 1820:     char *cfmt;;S:\XC8C\pic\sources\c99\common\doprnt.c: 1822:     c
      +                          fmt = (char *)fmt;
  6162   005582  C51F  F523         	movff	vfprintf@fmt,vfprintf@cfmt
  6163   005586  C520  F524         	movff	vfprintf@fmt+1,vfprintf@cfmt+1
  6164                           
  6165                           ;S:\XC8C\pic\sources\c99\common\doprnt.c: 1826:     while (*cfmt) {
  6166   00558A  EFD5  F02A         	goto	l3673
  6167   00558E                     l3671:
  6168                           
  6169                           ;S:\XC8C\pic\sources\c99\common\doprnt.c: 1830:    vfpfcnvrt(fp, &cfmt, ap);
  6170   00558E  C51D  F50B         	movff	vfprintf@fp,vfpfcnvrt@fp
  6171   005592  C51E  F50C         	movff	vfprintf@fp+1,vfpfcnvrt@fp+1
  6172   005596  0E23               	movlw	low vfprintf@cfmt
  6173   005598  6E0D               	movwf	vfpfcnvrt@fmt^(0+1280),c
  6174   00559A  0E05               	movlw	high vfprintf@cfmt
  6175   00559C  6E0E               	movwf	(vfpfcnvrt@fmt+1)^(0+1280),c
  6176   00559E  C521  F50F         	movff	vfprintf@ap,vfpfcnvrt@ap
  6177   0055A2  C522  F510         	movff	vfprintf@ap+1,vfpfcnvrt@ap+1
  6178   0055A6  ECED  F032         	call	_vfpfcnvrt	;wreg free
  6179   0055AA                     l3673:
  6180                           
  6181                           ;S:\XC8C\pic\sources\c99\common\doprnt.c: 1826:     while (*cfmt) {
  6182   0055AA  C523  F4F6         	movff	vfprintf@cfmt,tblptrl
  6183   0055AE  C524  F4F7         	movff	vfprintf@cfmt+1,tblptrh
  6184   0055B2                     	if	0	;tblptru may be non-zero
  6185   0055B2                     	endif
  6186   0055B2                     	if	0	;tblptru may be non-zero
  6187   0055B2                     	endif
  6188   0055B2  0008               	tblrd		*
  6189   0055B4  50F5               	movf	tablat,w,c
  6190   0055B6  0900               	iorlw	0
  6191   0055B8  A4D8               	btfss	status,2,c
  6192   0055BA  EFE1  F02A         	goto	u3391
  6193   0055BE  EFE3  F02A         	goto	u3390
  6194   0055C2                     u3391:
  6195   0055C2  EFC7  F02A         	goto	l3671
  6196   0055C6                     u3390:
  6197   0055C6                     
  6198                           ;S:\XC8C\pic\sources\c99\common\doprnt.c: 1835:  return 0;
  6199   0055C6  0E00               	movlw	0
  6200   0055C8  6E1E               	movwf	(?_vfprintf+1)^(0+1280),c
  6201   0055CA  0E00               	movlw	0
  6202   0055CC  6E1D               	movwf	?_vfprintf^(0+1280),c
  6203   0055CE  0012               	return		;funcret
  6204   0055D0                     __end_of_vfprintf:
  6205                           	callstack 0
  6206                           
  6207 ;; *************** function _vfpfcnvrt *****************
  6208 ;; Defined at:
  6209 ;;		line 1177 in file "S:\XC8C\pic\sources\c99\common\doprnt.c"
  6210 ;; Parameters:    Size  Location     Type
  6211 ;;  fp              2   10[COMRAM] PTR struct _IO_FILE
  6212 ;;		 -> NULL(0), 
  6213 ;;  fmt             2   12[COMRAM] PTR PTR unsigned char 
  6214 ;;		 -> vfprintf@cfmt(2), 
  6215 ;;  ap              2   14[COMRAM] PTR PTR void 
  6216 ;;		 -> printf@ap(2), 
  6217 ;; Auto vars:     Size  Location     Type
  6218 ;;  cp              2   18[COMRAM] PTR unsigned char 
  6219 ;;		 -> ?_printf(2), STR_54(33), STR_53(17), STR_52(10), 
  6220 ;;		 -> STR_48(33), STR_47(17), STR_46(10), STR_42(33), 
  6221 ;;		 -> STR_41(17), STR_40(14), STR_36(25), STR_35(17), 
  6222 ;;		 -> STR_34(8), STR_30(25), STR_29(17), STR_28(14), 
  6223 ;;		 -> STR_24(26), STR_23(17), STR_22(8), STR_18(26), 
  6224 ;;		 -> STR_17(17), STR_16(14), STR_12(18), STR_11(17), 
  6225 ;;		 -> STR_10(9), STR_6(18), STR_5(17), STR_4(14), 
  6226 ;;  convarg         4   23[COMRAM] struct .
  6227 ;;  cp              2   20[COMRAM] PTR unsigned char 
  6228 ;;		 -> STR_55(35), 
  6229 ;;  c               1   27[COMRAM] unsigned char 
  6230 ;;  done            1   22[COMRAM] _Bool 
  6231 ;; Return value:  Size  Location     Type
  6232 ;;                  1    wreg      void 
  6233 ;; Registers used:
  6234 ;;		wreg, fsr0l, fsr0h, fsr1l, fsr1h, fsr2l, fsr2h, status,2, status,0, tblptrl, tblptrh, tblptru, cstack
  6235 ;; Tracked objects:
  6236 ;;		On entry : 0/0
  6237 ;;		On exit  : 0/0
  6238 ;;		Unchanged: 0/0
  6239 ;; Data sizes:     COMRAM   BANK5   BANK6   BANK7   BANK8   BANK9  BANK10  BANK11  BANK12
  6240 ;;      Params:         6       0       0       0       0       0       0       0       0
  6241 ;;      Locals:        10       0       0       0       0       0       0       0       0
  6242 ;;      Temps:          2       0       0       0       0       0       0       0       0
  6243 ;;      Totals:        18       0       0       0       0       0       0       0       0
  6244 ;;Total ram usage:       18 bytes
  6245 ;; Hardware stack levels used: 1
  6246 ;; Hardware stack levels required when called: 2
  6247 ;; This function calls:
  6248 ;;		___awdiv
  6249 ;;		___awmod
  6250 ;;		_abs
  6251 ;;		_fputc
  6252 ;; This function is called by:
  6253 ;;		_vfprintf
  6254 ;; This function uses a non-reentrant model
  6255 ;;
  6256                           
  6257                           	psect	text24
  6258   0065DA                     __ptext24:
  6259                           	callstack 0
  6260   0065DA                     _vfpfcnvrt:
  6261                           	callstack 120
  6262   0065DA                     
  6263                           ;S:\XC8C\pic\sources\c99\common\doprnt.c: 1177: vfpfcnvrt(FILE *fp, char *fmt[], va_list
      +                           ap);S:\XC8C\pic\sources\c99\common\doprnt.c: 1178: {;S:\XC8C\pic\sources\c99\common\dop
      +                          rnt.c: 1179:     char c, *cp;;S:\XC8C\pic\sources\c99\common\doprnt.c: 1180:     _Bool d
      +                          one;;S:\XC8C\pic\sources\c99\common\doprnt.c: 1188:  } convarg;;S:\XC8C\pic\sources\c99\
      +                          common\doprnt.c: 1201:     if ((*fmt)[0] == '%') {
  6264   0065DA  C50D  F4D9         	movff	vfpfcnvrt@fmt,fsr2l
  6265   0065DE  C50E  F4DA         	movff	vfpfcnvrt@fmt+1,fsr2h
  6266   0065E2  C4DE F4F6          	movff	postinc2,tblptrl
  6267   0065E6  C4DD F4F7          	movff	postdec2,tblptrh
  6268   0065EA                     	if	0	;tblptru may be non-zero
  6269   0065EA                     	endif
  6270   0065EA                     	if	0	;tblptru may be non-zero
  6271   0065EA                     	endif
  6272   0065EA  0008               	tblrd		*
  6273   0065EC  50F5               	movf	tablat,w,c
  6274   0065EE  0A25               	xorlw	37
  6275   0065F0  A4D8               	btfss	status,2,c
  6276   0065F2  EFFD  F032         	goto	u2841
  6277   0065F6  EFFF  F032         	goto	u2840
  6278   0065FA                     u2841:
  6279   0065FA  EF9E  F034         	goto	l3425
  6280   0065FE                     u2840:
  6281   0065FE                     
  6282                           ;S:\XC8C\pic\sources\c99\common\doprnt.c: 1202:         ++*fmt;
  6283   0065FE  C50D  F4D9         	movff	vfpfcnvrt@fmt,fsr2l
  6284   006602  C50E  F4DA         	movff	vfpfcnvrt@fmt+1,fsr2h
  6285   006606  2ADE               	incf	postinc2,f,c
  6286   006608  0E00               	movlw	0
  6287   00660A  22DD               	addwfc	postdec2,f,c
  6288   00660C                     
  6289                           ;S:\XC8C\pic\sources\c99\common\doprnt.c: 1204:         flags = width = 0;
  6290   00660C  0E00               	movlw	0
  6291   00660E  0105               	movlb	5	; () banked
  6292   006610  6FF4               	movwf	(_width+1)& (0+255),b
  6293   006612  0E00               	movlw	0
  6294   006614  6FF3               	movwf	_width& (0+255),b
  6295   006616  C5F3  F55D         	movff	_width,_flags
  6296   00661A                     
  6297                           ; BSR set to: 5
  6298                           ;S:\XC8C\pic\sources\c99\common\doprnt.c: 1205:         prec = -1;
  6299   00661A  69F5               	setf	_prec& (0+255),b
  6300   00661C  69F6               	setf	(_prec+1)& (0+255),b
  6301   00661E                     
  6302                           ; BSR set to: 5
  6303                           ;S:\XC8C\pic\sources\c99\common\doprnt.c: 1291:   cp = *fmt;
  6304   00661E  C50D  F4D9         	movff	vfpfcnvrt@fmt,fsr2l
  6305   006622  C50E  F4DA         	movff	vfpfcnvrt@fmt+1,fsr2h
  6306   006626  C4DE F515          	movff	postinc2,vfpfcnvrt@cp
  6307   00662A  C4DD F516          	movff	postdec2,vfpfcnvrt@cp+1
  6308   00662E                     
  6309                           ; BSR set to: 5
  6310                           ;S:\XC8C\pic\sources\c99\common\doprnt.c: 1361:   if (*cp == 'd' || *cp == 'i') {
  6311   00662E  C515  F4F6         	movff	vfpfcnvrt@cp,tblptrl
  6312   006632  C516  F4F7         	movff	vfpfcnvrt@cp+1,tblptrh
  6313   006636                     	if	0	;tblptru may be non-zero
  6314   006636                     	endif
  6315   006636                     	if	0	;tblptru may be non-zero
  6316   006636                     	endif
  6317   006636  0008               	tblrd		*
  6318   006638  50F5               	movf	tablat,w,c
  6319   00663A  0A64               	xorlw	100
  6320   00663C  B4D8               	btfsc	status,2,c
  6321   00663E  EF23  F033         	goto	u2851
  6322   006642  EF25  F033         	goto	u2850
  6323   006646                     u2851:
  6324   006646  EF33  F033         	goto	l3367
  6325   00664A                     u2850:
  6326   00664A                     
  6327                           ; BSR set to: 5
  6328   00664A  C515  F4F6         	movff	vfpfcnvrt@cp,tblptrl
  6329   00664E  C516  F4F7         	movff	vfpfcnvrt@cp+1,tblptrh
  6330   006652                     	if	0	;tblptru may be non-zero
  6331   006652                     	endif
  6332   006652                     	if	0	;tblptru may be non-zero
  6333   006652                     	endif
  6334   006652  0008               	tblrd		*
  6335   006654  50F5               	movf	tablat,w,c
  6336   006656  0A69               	xorlw	105
  6337   006658  A4D8               	btfss	status,2,c
  6338   00665A  EF31  F033         	goto	u2861
  6339   00665E  EF33  F033         	goto	u2860
  6340   006662                     u2861:
  6341   006662  EFD2  F033         	goto	l3393
  6342   006666                     u2860:
  6343   006666                     l3367:
  6344                           
  6345                           ; BSR set to: 5
  6346                           ;S:\XC8C\pic\sources\c99\common\doprnt.c: 1404:    convarg.sint = (vfpf_sint_t)(int)(*(i
      +                          nt *)__va_arg(*(int **)ap, (int)0));
  6347   006666  C50F  F4D9         	movff	vfpfcnvrt@ap,fsr2l
  6348   00666A  C510  F4DA         	movff	vfpfcnvrt@ap+1,fsr2h
  6349   00666E  C4DF F511          	movff	indf2,??_vfpfcnvrt
  6350   006672  0E02               	movlw	2
  6351   006674  26DE               	addwf	postinc2,f,c
  6352   006676  C4DF F512          	movff	indf2,??_vfpfcnvrt+1
  6353   00667A  0E00               	movlw	0
  6354   00667C  22DD               	addwfc	postdec2,f,c
  6355   00667E  C511  F4D9         	movff	??_vfpfcnvrt,fsr2l
  6356   006682  C512  F4DA         	movff	??_vfpfcnvrt+1,fsr2h
  6357   006686  C4DE F518          	movff	postinc2,vfpfcnvrt@convarg
  6358   00668A  C4DD F519          	movff	postdec2,vfpfcnvrt@convarg+1
  6359                           
  6360                           ;S:\XC8C\pic\sources\c99\common\doprnt.c: 1406:    *fmt = cp+1;
  6361   00668E  0E01               	movlw	1
  6362   006690  2415               	addwf	vfpfcnvrt@cp^(0+1280),w,c
  6363   006692  6E11               	movwf	??_vfpfcnvrt^(0+1280),c
  6364   006694  0E00               	movlw	0
  6365   006696  2016               	addwfc	(vfpfcnvrt@cp+1)^(0+1280),w,c
  6366   006698  6E12               	movwf	(??_vfpfcnvrt+1)^(0+1280),c
  6367   00669A  C50D  F4D9         	movff	vfpfcnvrt@fmt,fsr2l
  6368   00669E  C50E  F4DA         	movff	vfpfcnvrt@fmt+1,fsr2h
  6369   0066A2  C511  F4DE         	movff	??_vfpfcnvrt,postinc2
  6370   0066A6  C512  F4DD         	movff	??_vfpfcnvrt+1,postdec2
  6371   0066AA                     
  6372                           ; BSR set to: 5
  6373                           ;S:\XC8C\pic\sources\c99\common\doprnt.c: 1408:    c = sizeof(dbuf);
  6374   0066AA  0E20               	movlw	32
  6375   0066AC  6E1C               	movwf	vfpfcnvrt@c^(0+1280),c
  6376   0066AE                     
  6377                           ; BSR set to: 5
  6378                           ;S:\XC8C\pic\sources\c99\common\doprnt.c: 1409:    done = convarg.sint < 0;
  6379   0066AE  BE19               	btfsc	(vfpfcnvrt@convarg+1)^(0+1280),7,c
  6380   0066B0  EF5C  F033         	goto	u2871
  6381   0066B4  EF5F  F033         	goto	u2870
  6382   0066B8                     u2871:
  6383   0066B8  0E01               	movlw	1
  6384   0066BA  EF60  F033         	goto	u2880
  6385   0066BE                     u2870:
  6386   0066BE  0E00               	movlw	0
  6387   0066C0                     u2880:
  6388   0066C0  6E17               	movwf	vfpfcnvrt@done^(0+1280),c
  6389   0066C2                     l3373:
  6390                           
  6391                           ;S:\XC8C\pic\sources\c99\common\doprnt.c: 1411:     dbuf[--c] = abs(convarg.sint % 10) +
      +                           '0';
  6392   0066C2  061C               	decf	vfpfcnvrt@c^(0+1280),f,c
  6393   0066C4  0E00               	movlw	low _dbuf
  6394   0066C6  241C               	addwf	vfpfcnvrt@c^(0+1280),w,c
  6395   0066C8  6ED9               	movwf	fsr2l,c
  6396   0066CA  6ADA               	clrf	fsr2h,c
  6397   0066CC  0E06               	movlw	high _dbuf
  6398   0066CE  22DA               	addwfc	fsr2h,f,c
  6399   0066D0  C518  F501         	movff	vfpfcnvrt@convarg,___awmod@dividend
  6400   0066D4  C519  F502         	movff	vfpfcnvrt@convarg+1,___awmod@dividend+1
  6401   0066D8  0E00               	movlw	0
  6402   0066DA  6E04               	movwf	(___awmod@divisor+1)^(0+1280),c
  6403   0066DC  0E0A               	movlw	10
  6404   0066DE  6E03               	movwf	___awmod@divisor^(0+1280),c
  6405   0066E0  ECA4  F02B         	call	___awmod	;wreg free
  6406   0066E4  C501  F507         	movff	?___awmod,abs@a
  6407   0066E8  C502  F508         	movff	?___awmod+1,abs@a+1
  6408   0066EC  EC2A  F02A         	call	_abs	;wreg free
  6409   0066F0  5007               	movf	?_abs^(0+1280),w,c
  6410   0066F2  0F30               	addlw	48
  6411   0066F4  6EDF               	movwf	indf2,c
  6412   0066F6                     
  6413                           ;S:\XC8C\pic\sources\c99\common\doprnt.c: 1412:     convarg.sint /= 10;
  6414   0066F6  C518  F501         	movff	vfpfcnvrt@convarg,___awdiv@dividend
  6415   0066FA  C519  F502         	movff	vfpfcnvrt@convarg+1,___awdiv@dividend+1
  6416   0066FE  0E00               	movlw	0
  6417   006700  6E04               	movwf	(___awdiv@divisor+1)^(0+1280),c
  6418   006702  0E0A               	movlw	10
  6419   006704  6E03               	movwf	___awdiv@divisor^(0+1280),c
  6420   006706  ECFC  F02B         	call	___awdiv	;wreg free
  6421   00670A  C501  F518         	movff	?___awdiv,vfpfcnvrt@convarg
  6422   00670E  C502  F519         	movff	?___awdiv+1,vfpfcnvrt@convarg+1
  6423   006712                     
  6424                           ;S:\XC8C\pic\sources\c99\common\doprnt.c: 1416:    } while (convarg.sint != 0 && c != 0)
      +                          ;
  6425   006712  5018               	movf	vfpfcnvrt@convarg^(0+1280),w,c
  6426   006714  1019               	iorwf	(vfpfcnvrt@convarg+1)^(0+1280),w,c
  6427   006716  B4D8               	btfsc	status,2,c
  6428   006718  EF90  F033         	goto	u2891
  6429   00671C  EF92  F033         	goto	u2890
  6430   006720                     u2891:
  6431   006720  EF9A  F033         	goto	l3381
  6432   006724                     u2890:
  6433   006724  501C               	movf	vfpfcnvrt@c^(0+1280),w,c
  6434   006726  A4D8               	btfss	status,2,c
  6435   006728  EF98  F033         	goto	u2901
  6436   00672C  EF9A  F033         	goto	u2900
  6437   006730                     u2901:
  6438   006730  EF61  F033         	goto	l3373
  6439   006734                     u2900:
  6440   006734                     l3381:
  6441                           
  6442                           ;S:\XC8C\pic\sources\c99\common\doprnt.c: 1417:    if (c != 0 && done) {
  6443   006734  501C               	movf	vfpfcnvrt@c^(0+1280),w,c
  6444   006736  B4D8               	btfsc	status,2,c
  6445   006738  EFA0  F033         	goto	u2911
  6446   00673C  EFA2  F033         	goto	u2910
  6447   006740                     u2911:
  6448   006740  EFC7  F033         	goto	l3391
  6449   006744                     u2910:
  6450   006744  5017               	movf	vfpfcnvrt@done^(0+1280),w,c
  6451   006746  B4D8               	btfsc	status,2,c
  6452   006748  EFA8  F033         	goto	u2921
  6453   00674C  EFAA  F033         	goto	u2920
  6454   006750                     u2921:
  6455   006750  EFC7  F033         	goto	l3391
  6456   006754                     u2920:
  6457   006754                     
  6458                           ;S:\XC8C\pic\sources\c99\common\doprnt.c: 1418:     dbuf[--c] = '-';
  6459   006754  061C               	decf	vfpfcnvrt@c^(0+1280),f,c
  6460   006756  0E00               	movlw	low _dbuf
  6461   006758  241C               	addwf	vfpfcnvrt@c^(0+1280),w,c
  6462   00675A  6ED9               	movwf	fsr2l,c
  6463   00675C  6ADA               	clrf	fsr2h,c
  6464   00675E  0E06               	movlw	high _dbuf
  6465   006760  22DA               	addwfc	fsr2h,f,c
  6466   006762  0E2D               	movlw	45
  6467   006764  6EDF               	movwf	indf2,c
  6468   006766  EFC7  F033         	goto	l3391
  6469   00676A                     l3387:
  6470                           
  6471                           ;S:\XC8C\pic\sources\c99\common\doprnt.c: 1424:     fputc(dbuf[c++], fp);
  6472   00676A  0E00               	movlw	low _dbuf
  6473   00676C  241C               	addwf	vfpfcnvrt@c^(0+1280),w,c
  6474   00676E  6ED9               	movwf	fsr2l,c
  6475   006770  6ADA               	clrf	fsr2h,c
  6476   006772  0E06               	movlw	high _dbuf
  6477   006774  22DA               	addwfc	fsr2h,f,c
  6478   006776  50DF               	movf	indf2,w,c
  6479   006778  6E11               	movwf	??_vfpfcnvrt^(0+1280),c
  6480   00677A  5011               	movf	??_vfpfcnvrt^(0+1280),w,c
  6481   00677C  6E01               	movwf	fputc@c^(0+1280),c
  6482   00677E  6A02               	clrf	(fputc@c+1)^(0+1280),c
  6483   006780  C50B  F503         	movff	vfpfcnvrt@fp,fputc@fp
  6484   006784  C50C  F504         	movff	vfpfcnvrt@fp+1,fputc@fp+1
  6485   006788  EC5E  F02C         	call	_fputc	;wreg free
  6486   00678C  2A1C               	incf	vfpfcnvrt@c^(0+1280),f,c
  6487   00678E                     l3391:
  6488                           
  6489                           ;S:\XC8C\pic\sources\c99\common\doprnt.c: 1423:    while (c != sizeof(dbuf)) {
  6490   00678E  0E20               	movlw	32
  6491   006790  181C               	xorwf	vfpfcnvrt@c^(0+1280),w,c
  6492   006792  A4D8               	btfss	status,2,c
  6493   006794  EFCE  F033         	goto	u2931
  6494   006798  EFD0  F033         	goto	u2930
  6495   00679C                     u2931:
  6496   00679C  EFB5  F033         	goto	l3387
  6497   0067A0                     u2930:
  6498   0067A0  EFB2  F034         	goto	l1455
  6499   0067A4                     l3393:
  6500                           
  6501                           ; BSR set to: 5
  6502                           ;S:\XC8C\pic\sources\c99\common\doprnt.c: 1656:   done = 0;
  6503   0067A4  0E00               	movlw	0
  6504   0067A6  6E17               	movwf	vfpfcnvrt@done^(0+1280),c
  6505   0067A8                     
  6506                           ; BSR set to: 5
  6507                           ;S:\XC8C\pic\sources\c99\common\doprnt.c: 1657:   if ((*fmt)[0] == 's') {
  6508   0067A8  C50D  F4D9         	movff	vfpfcnvrt@fmt,fsr2l
  6509   0067AC  C50E  F4DA         	movff	vfpfcnvrt@fmt+1,fsr2h
  6510   0067B0  C4DE F4F6          	movff	postinc2,tblptrl
  6511   0067B4  C4DD F4F7          	movff	postdec2,tblptrh
  6512   0067B8                     	if	0	;tblptru may be non-zero
  6513   0067B8                     	endif
  6514   0067B8                     	if	0	;tblptru may be non-zero
  6515   0067B8                     	endif
  6516   0067B8  0008               	tblrd		*
  6517   0067BA  50F5               	movf	tablat,w,c
  6518   0067BC  0A73               	xorlw	115
  6519   0067BE  A4D8               	btfss	status,2,c
  6520   0067C0  EFE4  F033         	goto	u2941
  6521   0067C4  EFE6  F033         	goto	u2940
  6522   0067C8                     u2941:
  6523   0067C8  EFF1  F033         	goto	l3401
  6524   0067CC                     u2940:
  6525   0067CC                     
  6526                           ; BSR set to: 5
  6527                           ;S:\XC8C\pic\sources\c99\common\doprnt.c: 1658:    ++*fmt;
  6528   0067CC  C50D  F4D9         	movff	vfpfcnvrt@fmt,fsr2l
  6529   0067D0  C50E  F4DA         	movff	vfpfcnvrt@fmt+1,fsr2h
  6530   0067D4  2ADE               	incf	postinc2,f,c
  6531   0067D6  0E00               	movlw	0
  6532   0067D8  22DD               	addwfc	postdec2,f,c
  6533   0067DA                     l3399:
  6534                           
  6535                           ; BSR set to: 5
  6536                           ;S:\XC8C\pic\sources\c99\common\doprnt.c: 1659:    done = 1;
  6537   0067DA  0E01               	movlw	1
  6538   0067DC  6E17               	movwf	vfpfcnvrt@done^(0+1280),c
  6539                           
  6540                           ;S:\XC8C\pic\sources\c99\common\doprnt.c: 1660:   }
  6541   0067DE  EF41  F034         	goto	l3411
  6542   0067E2                     l3401:
  6543                           
  6544                           ; BSR set to: 5
  6545   0067E2  C50D  F4D9         	movff	vfpfcnvrt@fmt,fsr2l
  6546   0067E6  C50E  F4DA         	movff	vfpfcnvrt@fmt+1,fsr2h
  6547   0067EA  C4DE F4F6          	movff	postinc2,tblptrl
  6548   0067EE  C4DD F4F7          	movff	postdec2,tblptrh
  6549   0067F2                     	if	0	;tblptru may be non-zero
  6550   0067F2                     	endif
  6551   0067F2                     	if	0	;tblptru may be non-zero
  6552   0067F2                     	endif
  6553   0067F2  0008               	tblrd		*
  6554   0067F4  50F5               	movf	tablat,w,c
  6555   0067F6  0A6C               	xorlw	108
  6556   0067F8  A4D8               	btfss	status,2,c
  6557   0067FA  EF01  F034         	goto	u2951
  6558   0067FE  EF03  F034         	goto	u2950
  6559   006802                     u2951:
  6560   006802  EF41  F034         	goto	l3411
  6561   006806                     u2950:
  6562   006806                     
  6563                           ; BSR set to: 5
  6564   006806  C50D  F4D9         	movff	vfpfcnvrt@fmt,fsr2l
  6565   00680A  C50E  F4DA         	movff	vfpfcnvrt@fmt+1,fsr2h
  6566   00680E  C4DE F511          	movff	postinc2,??_vfpfcnvrt
  6567   006812  C4DD F512          	movff	postdec2,??_vfpfcnvrt+1
  6568   006816  0E01               	movlw	1
  6569   006818  2611               	addwf	??_vfpfcnvrt^(0+1280),f,c
  6570   00681A  0E00               	movlw	0
  6571   00681C  2212               	addwfc	(??_vfpfcnvrt+1)^(0+1280),f,c
  6572   00681E  C511  F4F6         	movff	??_vfpfcnvrt,tblptrl
  6573   006822  C512  F4F7         	movff	??_vfpfcnvrt+1,tblptrh
  6574   006826                     	if	0	;tblptru may be non-zero
  6575   006826                     	endif
  6576   006826                     	if	0	;tblptru may be non-zero
  6577   006826                     	endif
  6578   006826  0008               	tblrd		*
  6579   006828  50F5               	movf	tablat,w,c
  6580   00682A  0A6C               	xorlw	108
  6581   00682C  A4D8               	btfss	status,2,c
  6582   00682E  EF1B  F034         	goto	u2961
  6583   006832  EF1D  F034         	goto	u2960
  6584   006836                     u2961:
  6585   006836  EF41  F034         	goto	l3411
  6586   00683A                     u2960:
  6587   00683A                     
  6588                           ; BSR set to: 5
  6589   00683A  C50D  F4D9         	movff	vfpfcnvrt@fmt,fsr2l
  6590   00683E  C50E  F4DA         	movff	vfpfcnvrt@fmt+1,fsr2h
  6591   006842  C4DE F511          	movff	postinc2,??_vfpfcnvrt
  6592   006846  C4DD F512          	movff	postdec2,??_vfpfcnvrt+1
  6593   00684A  0E02               	movlw	2
  6594   00684C  2611               	addwf	??_vfpfcnvrt^(0+1280),f,c
  6595   00684E  0E00               	movlw	0
  6596   006850  2212               	addwfc	(??_vfpfcnvrt+1)^(0+1280),f,c
  6597   006852  C511  F4F6         	movff	??_vfpfcnvrt,tblptrl
  6598   006856  C512  F4F7         	movff	??_vfpfcnvrt+1,tblptrh
  6599   00685A                     	if	0	;tblptru may be non-zero
  6600   00685A                     	endif
  6601   00685A                     	if	0	;tblptru may be non-zero
  6602   00685A                     	endif
  6603   00685A  0008               	tblrd		*
  6604   00685C  50F5               	movf	tablat,w,c
  6605   00685E  0A73               	xorlw	115
  6606   006860  A4D8               	btfss	status,2,c
  6607   006862  EF35  F034         	goto	u2971
  6608   006866  EF37  F034         	goto	u2970
  6609   00686A                     u2971:
  6610   00686A  EF41  F034         	goto	l3411
  6611   00686E                     u2970:
  6612   00686E                     
  6613                           ; BSR set to: 5
  6614                           ;S:\XC8C\pic\sources\c99\common\doprnt.c: 1662:    *fmt += 3;
  6615   00686E  0E03               	movlw	3
  6616   006870  C50D  F4D9         	movff	vfpfcnvrt@fmt,fsr2l
  6617   006874  C50E  F4DA         	movff	vfpfcnvrt@fmt+1,fsr2h
  6618   006878  26DE               	addwf	postinc2,f,c
  6619   00687A  0E00               	movlw	0
  6620   00687C  22DD               	addwfc	postdec2,f,c
  6621   00687E  EFED  F033         	goto	l3399
  6622   006882                     l3411:
  6623                           
  6624                           ; BSR set to: 5
  6625                           ;S:\XC8C\pic\sources\c99\common\doprnt.c: 1665:   if (done) {
  6626   006882  5017               	movf	vfpfcnvrt@done^(0+1280),w,c
  6627   006884  B4D8               	btfsc	status,2,c
  6628   006886  EF47  F034         	goto	u2981
  6629   00688A  EF49  F034         	goto	u2980
  6630   00688E                     u2981:
  6631   00688E  EF95  F034         	goto	l3421
  6632   006892                     u2980:
  6633   006892                     
  6634                           ; BSR set to: 5
  6635                           ;S:\XC8C\pic\sources\c99\common\doprnt.c: 1669:    for (char * cp = (*(char * *)__va_arg
      +                          (*(char * **)ap, (char *)0)); *cp != '\0'; cp++) {
  6636   006892  C50F  F4D9         	movff	vfpfcnvrt@ap,fsr2l
  6637   006896  C510  F4DA         	movff	vfpfcnvrt@ap+1,fsr2h
  6638   00689A  C4DF F511          	movff	indf2,??_vfpfcnvrt
  6639   00689E  0E02               	movlw	2
  6640   0068A0  26DE               	addwf	postinc2,f,c
  6641   0068A2  C4DF F512          	movff	indf2,??_vfpfcnvrt+1
  6642   0068A6  0E00               	movlw	0
  6643   0068A8  22DD               	addwfc	postdec2,f,c
  6644   0068AA  C511  F4D9         	movff	??_vfpfcnvrt,fsr2l
  6645   0068AE  C512  F4DA         	movff	??_vfpfcnvrt+1,fsr2h
  6646   0068B2  C4DE F513          	movff	postinc2,vfpfcnvrt@cp_1964
  6647   0068B6  C4DD F514          	movff	postdec2,vfpfcnvrt@cp_1964+1
  6648   0068BA  EF7B  F034         	goto	l3419
  6649   0068BE                     l3415:
  6650                           
  6651                           ;S:\XC8C\pic\sources\c99\common\doprnt.c: 1670:     fputc(*cp, fp);
  6652   0068BE  C513  F4F6         	movff	vfpfcnvrt@cp_1964,tblptrl
  6653   0068C2  C514  F4F7         	movff	vfpfcnvrt@cp_1964+1,tblptrh
  6654   0068C6  6AF8               	clrf	tblptru,c
  6655   0068C8  0E0C               	movlw	(high __ramtop+-1)
  6656   0068CA  64F7               	cpfsgt	tblptrh,c
  6657   0068CC  D003               	bra	u2997
  6658   0068CE  0008               	tblrd		*
  6659   0068D0  50F5               	movf	tablat,w,c
  6660   0068D2  D005               	bra	u2990
  6661   0068D4                     u2997:
  6662   0068D4  C4F6 F4E9          	movff	tblptrl,fsr0l
  6663   0068D8  C4F7 F4EA          	movff	tblptrh,fsr0h
  6664   0068DC  50EF               	movf	indf0,w,c
  6665   0068DE                     u2990:
  6666   0068DE  6E11               	movwf	??_vfpfcnvrt^(0+1280),c
  6667   0068E0  5011               	movf	??_vfpfcnvrt^(0+1280),w,c
  6668   0068E2  6E01               	movwf	fputc@c^(0+1280),c
  6669   0068E4  6A02               	clrf	(fputc@c+1)^(0+1280),c
  6670   0068E6  C50B  F503         	movff	vfpfcnvrt@fp,fputc@fp
  6671   0068EA  C50C  F504         	movff	vfpfcnvrt@fp+1,fputc@fp+1
  6672   0068EE  EC5E  F02C         	call	_fputc	;wreg free
  6673   0068F2                     
  6674                           ;S:\XC8C\pic\sources\c99\common\doprnt.c: 1674:    }
  6675   0068F2  4A13               	infsnz	vfpfcnvrt@cp_1964^(0+1280),f,c
  6676   0068F4  2A14               	incf	(vfpfcnvrt@cp_1964+1)^(0+1280),f,c
  6677   0068F6                     l3419:
  6678   0068F6  C513  F4F6         	movff	vfpfcnvrt@cp_1964,tblptrl
  6679   0068FA  C514  F4F7         	movff	vfpfcnvrt@cp_1964+1,tblptrh
  6680   0068FE  6AF8               	clrf	tblptru,c
  6681   006900  0E0C               	movlw	(high __ramtop+-1)
  6682   006902  64F7               	cpfsgt	tblptrh,c
  6683   006904  D003               	bra	u3007
  6684   006906  0008               	tblrd		*
  6685   006908  50F5               	movf	tablat,w,c
  6686   00690A  D005               	bra	u3000
  6687   00690C                     u3007:
  6688   00690C  C4F6 F4E9          	movff	tblptrl,fsr0l
  6689   006910  C4F7 F4EA          	movff	tblptrh,fsr0h
  6690   006914  50EF               	movf	indf0,w,c
  6691   006916                     u3000:
  6692   006916  0900               	iorlw	0
  6693   006918  A4D8               	btfss	status,2,c
  6694   00691A  EF91  F034         	goto	u3011
  6695   00691E  EF93  F034         	goto	u3010
  6696   006922                     u3011:
  6697   006922  EF5F  F034         	goto	l3415
  6698   006926                     u3010:
  6699   006926  EFB2  F034         	goto	l1455
  6700   00692A                     l3421:
  6701                           
  6702                           ;S:\XC8C\pic\sources\c99\common\doprnt.c: 1806:         ++*fmt;
  6703   00692A  C50D  F4D9         	movff	vfpfcnvrt@fmt,fsr2l
  6704   00692E  C50E  F4DA         	movff	vfpfcnvrt@fmt+1,fsr2h
  6705   006932  2ADE               	incf	postinc2,f,c
  6706   006934  0E00               	movlw	0
  6707   006936  22DD               	addwfc	postdec2,f,c
  6708   006938  EFB2  F034         	goto	l1455
  6709   00693C                     l3425:
  6710                           
  6711                           ;S:\XC8C\pic\sources\c99\common\doprnt.c: 1811:     fputc((int)(*fmt)[0], fp);
  6712   00693C  C50D  F4D9         	movff	vfpfcnvrt@fmt,fsr2l
  6713   006940  C50E  F4DA         	movff	vfpfcnvrt@fmt+1,fsr2h
  6714   006944  C4DE F4F6          	movff	postinc2,tblptrl
  6715   006948  C4DD F4F7          	movff	postdec2,tblptrh
  6716   00694C                     	if	0	;tblptru may be non-zero
  6717   00694C                     	endif
  6718   00694C                     	if	0	;tblptru may be non-zero
  6719   00694C                     	endif
  6720   00694C  0008               	tblrd		*
  6721   00694E  50F5               	movf	tablat,w,c
  6722   006950  6E01               	movwf	fputc@c^(0+1280),c
  6723   006952  6A02               	clrf	(fputc@c+1)^(0+1280),c
  6724   006954  C50B  F503         	movff	vfpfcnvrt@fp,fputc@fp
  6725   006958  C50C  F504         	movff	vfpfcnvrt@fp+1,fputc@fp+1
  6726   00695C  EC5E  F02C         	call	_fputc	;wreg free
  6727   006960  EF95  F034         	goto	l3421
  6728   006964                     l1455:
  6729   006964  0012               	return		;funcret
  6730   006966                     __end_of_vfpfcnvrt:
  6731                           	callstack 0
  6732                           
  6733 ;; *************** function _fputc *****************
  6734 ;; Defined at:
  6735 ;;		line 8 in file "S:\XC8C\pic\sources\c99\common\nf_fputc.c"
  6736 ;; Parameters:    Size  Location     Type
  6737 ;;  c               2    0[COMRAM] int 
  6738 ;;  fp              2    2[COMRAM] PTR struct _IO_FILE
  6739 ;;		 -> NULL(0), 
  6740 ;; Auto vars:     Size  Location     Type
  6741 ;;		None
  6742 ;; Return value:  Size  Location     Type
  6743 ;;                  2    0[COMRAM] int 
  6744 ;; Registers used:
  6745 ;;		wreg, fsr1l, fsr1h, fsr2l, fsr2h, status,2, status,0, cstack
  6746 ;; Tracked objects:
  6747 ;;		On entry : 0/0
  6748 ;;		On exit  : 0/0
  6749 ;;		Unchanged: 0/0
  6750 ;; Data sizes:     COMRAM   BANK5   BANK6   BANK7   BANK8   BANK9  BANK10  BANK11  BANK12
  6751 ;;      Params:         4       0       0       0       0       0       0       0       0
  6752 ;;      Locals:         0       0       0       0       0       0       0       0       0
  6753 ;;      Temps:          5       0       0       0       0       0       0       0       0
  6754 ;;      Totals:         9       0       0       0       0       0       0       0       0
  6755 ;;Total ram usage:        9 bytes
  6756 ;; Hardware stack levels used: 1
  6757 ;; Hardware stack levels required when called: 1
  6758 ;; This function calls:
  6759 ;;		_putch
  6760 ;; This function is called by:
  6761 ;;		_vfpfcnvrt
  6762 ;; This function uses a non-reentrant model
  6763 ;;
  6764                           
  6765                           	psect	text25
  6766   0058BC                     __ptext25:
  6767                           	callstack 0
  6768   0058BC                     _fputc:
  6769                           	callstack 120
  6770   0058BC  5003               	movf	fputc@fp^(0+1280),w,c
  6771   0058BE  1004               	iorwf	(fputc@fp+1)^(0+1280),w,c
  6772   0058C0  B4D8               	btfsc	status,2,c
  6773   0058C2  EF65  F02C         	goto	u2391
  6774   0058C6  EF67  F02C         	goto	u2390
  6775   0058CA                     u2391:
  6776   0058CA  EF70  F02C         	goto	l3131
  6777   0058CE                     u2390:
  6778   0058CE  5003               	movf	fputc@fp^(0+1280),w,c
  6779   0058D0  1004               	iorwf	(fputc@fp+1)^(0+1280),w,c
  6780   0058D2  A4D8               	btfss	status,2,c
  6781   0058D4  EF6E  F02C         	goto	u2401
  6782   0058D8  EF70  F02C         	goto	u2400
  6783   0058DC                     u2401:
  6784   0058DC  EF75  F02C         	goto	l3133
  6785   0058E0                     u2400:
  6786   0058E0                     l3131:
  6787   0058E0  5001               	movf	fputc@c^(0+1280),w,c
  6788   0058E2  EC22  F029         	call	_putch
  6789   0058E6  EFC2  F02C         	goto	l1487
  6790   0058EA                     l3133:
  6791   0058EA  EE20 F00A          	lfsr	2,10
  6792   0058EE  5003               	movf	fputc@fp^(0+1280),w,c
  6793   0058F0  26D9               	addwf	fsr2l,f,c
  6794   0058F2  5004               	movf	(fputc@fp+1)^(0+1280),w,c
  6795   0058F4  22DA               	addwfc	fsr2h,f,c
  6796   0058F6  50DE               	movf	postinc2,w,c
  6797   0058F8  10DE               	iorwf	postinc2,w,c
  6798   0058FA  B4D8               	btfsc	status,2,c
  6799   0058FC  EF82  F02C         	goto	u2411
  6800   005900  EF84  F02C         	goto	u2410
  6801   005904                     u2411:
  6802   005904  EF9F  F02C         	goto	l3137
  6803   005908                     u2410:
  6804   005908  EE20 F00A          	lfsr	2,10
  6805   00590C  5003               	movf	fputc@fp^(0+1280),w,c
  6806   00590E  26D9               	addwf	fsr2l,f,c
  6807   005910  5004               	movf	(fputc@fp+1)^(0+1280),w,c
  6808   005912  22DA               	addwfc	fsr2h,f,c
  6809   005914  EE10 F003          	lfsr	1,3
  6810   005918  5003               	movf	fputc@fp^(0+1280),w,c
  6811   00591A  26E1               	addwf	fsr1l,f,c
  6812   00591C  5004               	movf	(fputc@fp+1)^(0+1280),w,c
  6813   00591E  22E2               	addwfc	fsr1h,f,c
  6814   005920  50DE               	movf	postinc2,w,c
  6815   005922  5CE6               	subwf	postinc1,w,c
  6816   005924  50E6               	movf	postinc1,w,c
  6817   005926  0A80               	xorlw	128
  6818   005928  6E09               	movwf	(??_fputc+4)^(0+1280),c
  6819   00592A  50DE               	movf	postinc2,w,c
  6820   00592C  0A80               	xorlw	128
  6821   00592E  5809               	subwfb	(??_fputc+4)^(0+1280),w,c
  6822   005930  B0D8               	btfsc	status,0,c
  6823   005932  EF9D  F02C         	goto	u2421
  6824   005936  EF9F  F02C         	goto	u2420
  6825   00593A                     u2421:
  6826   00593A  EFC2  F02C         	goto	l1487
  6827   00593E                     u2420:
  6828   00593E                     l3137:
  6829   00593E  EE20 F003          	lfsr	2,3
  6830   005942  5003               	movf	fputc@fp^(0+1280),w,c
  6831   005944  26D9               	addwf	fsr2l,f,c
  6832   005946  5004               	movf	(fputc@fp+1)^(0+1280),w,c
  6833   005948  22DA               	addwfc	fsr2h,f,c
  6834   00594A  C4DE F505          	movff	postinc2,??_fputc
  6835   00594E  C4DD F506          	movff	postdec2,??_fputc+1
  6836   005952  C503  F4D9         	movff	fputc@fp,fsr2l
  6837   005956  C504  F4DA         	movff	fputc@fp+1,fsr2h
  6838   00595A  C4DE F507          	movff	postinc2,??_fputc+2
  6839   00595E  C4DD F508          	movff	postdec2,??_fputc+3
  6840   005962  5005               	movf	??_fputc^(0+1280),w,c
  6841   005964  2407               	addwf	(??_fputc+2)^(0+1280),w,c
  6842   005966  6ED9               	movwf	fsr2l,c
  6843   005968  5006               	movf	(??_fputc+1)^(0+1280),w,c
  6844   00596A  2008               	addwfc	(??_fputc+3)^(0+1280),w,c
  6845   00596C  6EDA               	movwf	fsr2h,c
  6846   00596E  C501  F4DF         	movff	fputc@c,indf2
  6847   005972  EE20 F003          	lfsr	2,3
  6848   005976  5003               	movf	fputc@fp^(0+1280),w,c
  6849   005978  26D9               	addwf	fsr2l,f,c
  6850   00597A  5004               	movf	(fputc@fp+1)^(0+1280),w,c
  6851   00597C  22DA               	addwfc	fsr2h,f,c
  6852   00597E  2ADE               	incf	postinc2,f,c
  6853   005980  0E00               	movlw	0
  6854   005982  22DD               	addwfc	postdec2,f,c
  6855   005984                     l1487:
  6856   005984  0012               	return		;funcret
  6857   005986                     __end_of_fputc:
  6858                           	callstack 0
  6859                           
  6860 ;; *************** function _putch *****************
  6861 ;; Defined at:
  6862 ;;		line 7 in file "S:\XC8C\pic\sources\c99\common\putch.c"
  6863 ;; Parameters:    Size  Location     Type
  6864 ;;  c               1    wreg     unsigned char 
  6865 ;; Auto vars:     Size  Location     Type
  6866 ;;  c               1    0[COMRAM] unsigned char 
  6867 ;; Return value:  Size  Location     Type
  6868 ;;                  1    wreg      void 
  6869 ;; Registers used:
  6870 ;;		wreg
  6871 ;; Tracked objects:
  6872 ;;		On entry : 0/0
  6873 ;;		On exit  : 0/0
  6874 ;;		Unchanged: 0/0
  6875 ;; Data sizes:     COMRAM   BANK5   BANK6   BANK7   BANK8   BANK9  BANK10  BANK11  BANK12
  6876 ;;      Params:         0       0       0       0       0       0       0       0       0
  6877 ;;      Locals:         0       0       0       0       0       0       0       0       0
  6878 ;;      Temps:          0       0       0       0       0       0       0       0       0
  6879 ;;      Totals:         0       0       0       0       0       0       0       0       0
  6880 ;;Total ram usage:        0 bytes
  6881 ;; Hardware stack levels used: 1
  6882 ;; This function calls:
  6883 ;;		Nothing
  6884 ;; This function is called by:
  6885 ;;		_fputc
  6886 ;; This function uses a non-reentrant model
  6887 ;;
  6888                           
  6889                           	psect	text26
  6890   005244                     __ptext26:
  6891                           	callstack 0
  6892   005244                     _putch:
  6893                           	callstack 120
  6894   005244  0012               	return		;funcret
  6895   005246                     __end_of_putch:
  6896                           	callstack 0
  6897                           
  6898 ;; *************** function _abs *****************
  6899 ;; Defined at:
  6900 ;;		line 1 in file "S:\XC8C\pic\sources\c99\common\abs.c"
  6901 ;; Parameters:    Size  Location     Type
  6902 ;;  a               2    6[COMRAM] int 
  6903 ;; Auto vars:     Size  Location     Type
  6904 ;;		None
  6905 ;; Return value:  Size  Location     Type
  6906 ;;                  2    6[COMRAM] int 
  6907 ;; Registers used:
  6908 ;;		wreg, status,2, status,0
  6909 ;; Tracked objects:
  6910 ;;		On entry : 0/0
  6911 ;;		On exit  : 0/0
  6912 ;;		Unchanged: 0/0
  6913 ;; Data sizes:     COMRAM   BANK5   BANK6   BANK7   BANK8   BANK9  BANK10  BANK11  BANK12
  6914 ;;      Params:         2       0       0       0       0       0       0       0       0
  6915 ;;      Locals:         0       0       0       0       0       0       0       0       0
  6916 ;;      Temps:          2       0       0       0       0       0       0       0       0
  6917 ;;      Totals:         4       0       0       0       0       0       0       0       0
  6918 ;;Total ram usage:        4 bytes
  6919 ;; Hardware stack levels used: 1
  6920 ;; This function calls:
  6921 ;;		Nothing
  6922 ;; This function is called by:
  6923 ;;		_vfpfcnvrt
  6924 ;; This function uses a non-reentrant model
  6925 ;;
  6926                           
  6927                           	psect	text27
  6928   005454                     __ptext27:
  6929                           	callstack 0
  6930   005454                     _abs:
  6931                           	callstack 121
  6932   005454  BE08               	btfsc	(abs@a+1)^(0+1280),7,c
  6933   005456  EF2F  F02A         	goto	u2431
  6934   00545A  EF31  F02A         	goto	u2430
  6935   00545E                     u2431:
  6936   00545E  EF37  F02A         	goto	l1472
  6937   005462                     u2430:
  6938   005462  C507  F507         	movff	abs@a,?_abs
  6939   005466  C508  F508         	movff	abs@a+1,?_abs+1
  6940   00546A  EF43  F02A         	goto	l1475
  6941   00546E                     l1472:
  6942   00546E  C507  F509         	movff	abs@a,??_abs
  6943   005472  C508  F50A         	movff	abs@a+1,??_abs+1
  6944   005476  1E09               	comf	??_abs^(0+1280),f,c
  6945   005478  1E0A               	comf	(??_abs+1)^(0+1280),f,c
  6946   00547A  4A09               	infsnz	??_abs^(0+1280),f,c
  6947   00547C  2A0A               	incf	(??_abs+1)^(0+1280),f,c
  6948   00547E  C509  F507         	movff	??_abs,?_abs
  6949   005482  C50A  F508         	movff	??_abs+1,?_abs+1
  6950   005486                     l1475:
  6951   005486  0012               	return		;funcret
  6952   005488                     __end_of_abs:
  6953                           	callstack 0
  6954                           
  6955 ;; *************** function ___awmod *****************
  6956 ;; Defined at:
  6957 ;;		line 7 in file "S:\XC8C\pic\sources\c99\common\awmod.c"
  6958 ;; Parameters:    Size  Location     Type
  6959 ;;  dividend        2    0[COMRAM] int 
  6960 ;;  divisor         2    2[COMRAM] int 
  6961 ;; Auto vars:     Size  Location     Type
  6962 ;;  sign            1    5[COMRAM] unsigned char 
  6963 ;;  counter         1    4[COMRAM] unsigned char 
  6964 ;; Return value:  Size  Location     Type
  6965 ;;                  2    0[COMRAM] int 
  6966 ;; Registers used:
  6967 ;;		wreg, status,2, status,0
  6968 ;; Tracked objects:
  6969 ;;		On entry : 0/0
  6970 ;;		On exit  : 0/0
  6971 ;;		Unchanged: 0/0
  6972 ;; Data sizes:     COMRAM   BANK5   BANK6   BANK7   BANK8   BANK9  BANK10  BANK11  BANK12
  6973 ;;      Params:         4       0       0       0       0       0       0       0       0
  6974 ;;      Locals:         2       0       0       0       0       0       0       0       0
  6975 ;;      Temps:          0       0       0       0       0       0       0       0       0
  6976 ;;      Totals:         6       0       0       0       0       0       0       0       0
  6977 ;;Total ram usage:        6 bytes
  6978 ;; Hardware stack levels used: 1
  6979 ;; This function calls:
  6980 ;;		Nothing
  6981 ;; This function is called by:
  6982 ;;		_vfpfcnvrt
  6983 ;; This function uses a non-reentrant model
  6984 ;;
  6985                           
  6986                           	psect	text28
  6987   005748                     __ptext28:
  6988                           	callstack 0
  6989   005748                     ___awmod:
  6990                           	callstack 121
  6991   005748  0E00               	movlw	0
  6992   00574A  6E06               	movwf	___awmod@sign^(0+1280),c
  6993   00574C  BE02               	btfsc	(___awmod@dividend+1)^(0+1280),7,c
  6994   00574E  EFAD  F02B         	goto	u2330
  6995   005752  EFAB  F02B         	goto	u2331
  6996   005756                     u2331:
  6997   005756  EFB3  F02B         	goto	l3099
  6998   00575A                     u2330:
  6999   00575A  6C01               	negf	___awmod@dividend^(0+1280),c
  7000   00575C  1E02               	comf	(___awmod@dividend+1)^(0+1280),f,c
  7001   00575E  B0D8               	btfsc	status,0,c
  7002   005760  2A02               	incf	(___awmod@dividend+1)^(0+1280),f,c
  7003   005762  0E01               	movlw	1
  7004   005764  6E06               	movwf	___awmod@sign^(0+1280),c
  7005   005766                     l3099:
  7006   005766  BE04               	btfsc	(___awmod@divisor+1)^(0+1280),7,c
  7007   005768  EFBA  F02B         	goto	u2340
  7008   00576C  EFB8  F02B         	goto	u2341
  7009   005770                     u2341:
  7010   005770  EFBE  F02B         	goto	l3103
  7011   005774                     u2340:
  7012   005774  6C03               	negf	___awmod@divisor^(0+1280),c
  7013   005776  1E04               	comf	(___awmod@divisor+1)^(0+1280),f,c
  7014   005778  B0D8               	btfsc	status,0,c
  7015   00577A  2A04               	incf	(___awmod@divisor+1)^(0+1280),f,c
  7016   00577C                     l3103:
  7017   00577C  5003               	movf	___awmod@divisor^(0+1280),w,c
  7018   00577E  1004               	iorwf	(___awmod@divisor+1)^(0+1280),w,c
  7019   005780  B4D8               	btfsc	status,2,c
  7020   005782  EFC5  F02B         	goto	u2351
  7021   005786  EFC7  F02B         	goto	u2350
  7022   00578A                     u2351:
  7023   00578A  EFEB  F02B         	goto	l3119
  7024   00578E                     u2350:
  7025   00578E  0E01               	movlw	1
  7026   005790  6E05               	movwf	___awmod@counter^(0+1280),c
  7027   005792  EFCF  F02B         	goto	l3109
  7028   005796                     l3107:
  7029   005796  90D8               	bcf	status,0,c
  7030   005798  3603               	rlcf	___awmod@divisor^(0+1280),f,c
  7031   00579A  3604               	rlcf	(___awmod@divisor+1)^(0+1280),f,c
  7032   00579C  2A05               	incf	___awmod@counter^(0+1280),f,c
  7033   00579E                     l3109:
  7034   00579E  AE04               	btfss	(___awmod@divisor+1)^(0+1280),7,c
  7035   0057A0  EFD4  F02B         	goto	u2361
  7036   0057A4  EFD6  F02B         	goto	u2360
  7037   0057A8                     u2361:
  7038   0057A8  EFCB  F02B         	goto	l3107
  7039   0057AC                     u2360:
  7040   0057AC                     l3111:
  7041   0057AC  5003               	movf	___awmod@divisor^(0+1280),w,c
  7042   0057AE  5C01               	subwf	___awmod@dividend^(0+1280),w,c
  7043   0057B0  5004               	movf	(___awmod@divisor+1)^(0+1280),w,c
  7044   0057B2  5802               	subwfb	(___awmod@dividend+1)^(0+1280),w,c
  7045   0057B4  A0D8               	btfss	status,0,c
  7046   0057B6  EFDF  F02B         	goto	u2371
  7047   0057BA  EFE1  F02B         	goto	u2370
  7048   0057BE                     u2371:
  7049   0057BE  EFE5  F02B         	goto	l3115
  7050   0057C2                     u2370:
  7051   0057C2  5003               	movf	___awmod@divisor^(0+1280),w,c
  7052   0057C4  5E01               	subwf	___awmod@dividend^(0+1280),f,c
  7053   0057C6  5004               	movf	(___awmod@divisor+1)^(0+1280),w,c
  7054   0057C8  5A02               	subwfb	(___awmod@dividend+1)^(0+1280),f,c
  7055   0057CA                     l3115:
  7056   0057CA  90D8               	bcf	status,0,c
  7057   0057CC  3204               	rrcf	(___awmod@divisor+1)^(0+1280),f,c
  7058   0057CE  3203               	rrcf	___awmod@divisor^(0+1280),f,c
  7059   0057D0  2E05               	decfsz	___awmod@counter^(0+1280),f,c
  7060   0057D2  EFD6  F02B         	goto	l3111
  7061   0057D6                     l3119:
  7062   0057D6  5006               	movf	___awmod@sign^(0+1280),w,c
  7063   0057D8  B4D8               	btfsc	status,2,c
  7064   0057DA  EFF1  F02B         	goto	u2381
  7065   0057DE  EFF3  F02B         	goto	u2380
  7066   0057E2                     u2381:
  7067   0057E2  EFF7  F02B         	goto	l3123
  7068   0057E6                     u2380:
  7069   0057E6  6C01               	negf	___awmod@dividend^(0+1280),c
  7070   0057E8  1E02               	comf	(___awmod@dividend+1)^(0+1280),f,c
  7071   0057EA  B0D8               	btfsc	status,0,c
  7072   0057EC  2A02               	incf	(___awmod@dividend+1)^(0+1280),f,c
  7073   0057EE                     l3123:
  7074   0057EE  C501  F501         	movff	___awmod@dividend,?___awmod
  7075   0057F2  C502  F502         	movff	___awmod@dividend+1,?___awmod+1
  7076   0057F6  0012               	return		;funcret
  7077   0057F8                     __end_of___awmod:
  7078                           	callstack 0
  7079                           
  7080 ;; *************** function ___awdiv *****************
  7081 ;; Defined at:
  7082 ;;		line 7 in file "S:\XC8C\pic\sources\c99\common\awdiv.c"
  7083 ;; Parameters:    Size  Location     Type
  7084 ;;  dividend        2    0[COMRAM] int 
  7085 ;;  divisor         2    2[COMRAM] int 
  7086 ;; Auto vars:     Size  Location     Type
  7087 ;;  quotient        2    6[COMRAM] int 
  7088 ;;  sign            1    5[COMRAM] unsigned char 
  7089 ;;  counter         1    4[COMRAM] unsigned char 
  7090 ;; Return value:  Size  Location     Type
  7091 ;;                  2    0[COMRAM] int 
  7092 ;; Registers used:
  7093 ;;		wreg, status,2, status,0
  7094 ;; Tracked objects:
  7095 ;;		On entry : 0/0
  7096 ;;		On exit  : 0/0
  7097 ;;		Unchanged: 0/0
  7098 ;; Data sizes:     COMRAM   BANK5   BANK6   BANK7   BANK8   BANK9  BANK10  BANK11  BANK12
  7099 ;;      Params:         4       0       0       0       0       0       0       0       0
  7100 ;;      Locals:         4       0       0       0       0       0       0       0       0
  7101 ;;      Temps:          0       0       0       0       0       0       0       0       0
  7102 ;;      Totals:         8       0       0       0       0       0       0       0       0
  7103 ;;Total ram usage:        8 bytes
  7104 ;; Hardware stack levels used: 1
  7105 ;; This function calls:
  7106 ;;		Nothing
  7107 ;; This function is called by:
  7108 ;;		_vfpfcnvrt
  7109 ;; This function uses a non-reentrant model
  7110 ;;
  7111                           
  7112                           	psect	text29
  7113   0057F8                     __ptext29:
  7114                           	callstack 0
  7115   0057F8                     ___awdiv:
  7116                           	callstack 121
  7117   0057F8  0E00               	movlw	0
  7118   0057FA  6E06               	movwf	___awdiv@sign^(0+1280),c
  7119   0057FC  BE04               	btfsc	(___awdiv@divisor+1)^(0+1280),7,c
  7120   0057FE  EF05  F02C         	goto	u2270
  7121   005802  EF03  F02C         	goto	u2271
  7122   005806                     u2271:
  7123   005806  EF0B  F02C         	goto	l3055
  7124   00580A                     u2270:
  7125   00580A  6C03               	negf	___awdiv@divisor^(0+1280),c
  7126   00580C  1E04               	comf	(___awdiv@divisor+1)^(0+1280),f,c
  7127   00580E  B0D8               	btfsc	status,0,c
  7128   005810  2A04               	incf	(___awdiv@divisor+1)^(0+1280),f,c
  7129   005812  0E01               	movlw	1
  7130   005814  6E06               	movwf	___awdiv@sign^(0+1280),c
  7131   005816                     l3055:
  7132   005816  BE02               	btfsc	(___awdiv@dividend+1)^(0+1280),7,c
  7133   005818  EF12  F02C         	goto	u2280
  7134   00581C  EF10  F02C         	goto	u2281
  7135   005820                     u2281:
  7136   005820  EF18  F02C         	goto	l3061
  7137   005824                     u2280:
  7138   005824  6C01               	negf	___awdiv@dividend^(0+1280),c
  7139   005826  1E02               	comf	(___awdiv@dividend+1)^(0+1280),f,c
  7140   005828  B0D8               	btfsc	status,0,c
  7141   00582A  2A02               	incf	(___awdiv@dividend+1)^(0+1280),f,c
  7142   00582C  0E01               	movlw	1
  7143   00582E  1A06               	xorwf	___awdiv@sign^(0+1280),f,c
  7144   005830                     l3061:
  7145   005830  0E00               	movlw	0
  7146   005832  6E08               	movwf	(___awdiv@quotient+1)^(0+1280),c
  7147   005834  0E00               	movlw	0
  7148   005836  6E07               	movwf	___awdiv@quotient^(0+1280),c
  7149   005838  5003               	movf	___awdiv@divisor^(0+1280),w,c
  7150   00583A  1004               	iorwf	(___awdiv@divisor+1)^(0+1280),w,c
  7151   00583C  B4D8               	btfsc	status,2,c
  7152   00583E  EF23  F02C         	goto	u2291
  7153   005842  EF25  F02C         	goto	u2290
  7154   005846                     u2291:
  7155   005846  EF4D  F02C         	goto	l3083
  7156   00584A                     u2290:
  7157   00584A  0E01               	movlw	1
  7158   00584C  6E05               	movwf	___awdiv@counter^(0+1280),c
  7159   00584E  EF2D  F02C         	goto	l3069
  7160   005852                     l3067:
  7161   005852  90D8               	bcf	status,0,c
  7162   005854  3603               	rlcf	___awdiv@divisor^(0+1280),f,c
  7163   005856  3604               	rlcf	(___awdiv@divisor+1)^(0+1280),f,c
  7164   005858  2A05               	incf	___awdiv@counter^(0+1280),f,c
  7165   00585A                     l3069:
  7166   00585A  AE04               	btfss	(___awdiv@divisor+1)^(0+1280),7,c
  7167   00585C  EF32  F02C         	goto	u2301
  7168   005860  EF34  F02C         	goto	u2300
  7169   005864                     u2301:
  7170   005864  EF29  F02C         	goto	l3067
  7171   005868                     u2300:
  7172   005868                     l3071:
  7173   005868  90D8               	bcf	status,0,c
  7174   00586A  3607               	rlcf	___awdiv@quotient^(0+1280),f,c
  7175   00586C  3608               	rlcf	(___awdiv@quotient+1)^(0+1280),f,c
  7176   00586E  5003               	movf	___awdiv@divisor^(0+1280),w,c
  7177   005870  5C01               	subwf	___awdiv@dividend^(0+1280),w,c
  7178   005872  5004               	movf	(___awdiv@divisor+1)^(0+1280),w,c
  7179   005874  5802               	subwfb	(___awdiv@dividend+1)^(0+1280),w,c
  7180   005876  A0D8               	btfss	status,0,c
  7181   005878  EF40  F02C         	goto	u2311
  7182   00587C  EF42  F02C         	goto	u2310
  7183   005880                     u2311:
  7184   005880  EF47  F02C         	goto	l3079
  7185   005884                     u2310:
  7186   005884  5003               	movf	___awdiv@divisor^(0+1280),w,c
  7187   005886  5E01               	subwf	___awdiv@dividend^(0+1280),f,c
  7188   005888  5004               	movf	(___awdiv@divisor+1)^(0+1280),w,c
  7189   00588A  5A02               	subwfb	(___awdiv@dividend+1)^(0+1280),f,c
  7190   00588C  8007               	bsf	___awdiv@quotient^(0+1280),0,c
  7191   00588E                     l3079:
  7192   00588E  90D8               	bcf	status,0,c
  7193   005890  3204               	rrcf	(___awdiv@divisor+1)^(0+1280),f,c
  7194   005892  3203               	rrcf	___awdiv@divisor^(0+1280),f,c
  7195   005894  2E05               	decfsz	___awdiv@counter^(0+1280),f,c
  7196   005896  EF34  F02C         	goto	l3071
  7197   00589A                     l3083:
  7198   00589A  5006               	movf	___awdiv@sign^(0+1280),w,c
  7199   00589C  B4D8               	btfsc	status,2,c
  7200   00589E  EF53  F02C         	goto	u2321
  7201   0058A2  EF55  F02C         	goto	u2320
  7202   0058A6                     u2321:
  7203   0058A6  EF59  F02C         	goto	l3087
  7204   0058AA                     u2320:
  7205   0058AA  6C07               	negf	___awdiv@quotient^(0+1280),c
  7206   0058AC  1E08               	comf	(___awdiv@quotient+1)^(0+1280),f,c
  7207   0058AE  B0D8               	btfsc	status,0,c
  7208   0058B0  2A08               	incf	(___awdiv@quotient+1)^(0+1280),f,c
  7209   0058B2                     l3087:
  7210   0058B2  C507  F501         	movff	___awdiv@quotient,?___awdiv
  7211   0058B6  C508  F502         	movff	___awdiv@quotient+1,?___awdiv+1
  7212   0058BA  0012               	return		;funcret
  7213   0058BC                     __end_of___awdiv:
  7214                           	callstack 0
  7215                           
  7216 ;; *************** function _abort *****************
  7217 ;; Defined at:
  7218 ;;		line 4 in file "S:\XC8C\pic\sources\c99\common\abort.c"
  7219 ;; Parameters:    Size  Location     Type
  7220 ;;		None
  7221 ;; Auto vars:     Size  Location     Type
  7222 ;;		None
  7223 ;; Return value:  Size  Location     Type
  7224 ;;                  1    wreg      void 
  7225 ;; Registers used:
  7226 ;;		wreg, status,2, status,0, cstack
  7227 ;; Tracked objects:
  7228 ;;		On entry : 0/0
  7229 ;;		On exit  : 0/0
  7230 ;;		Unchanged: 0/0
  7231 ;; Data sizes:     COMRAM   BANK5   BANK6   BANK7   BANK8   BANK9  BANK10  BANK11  BANK12
  7232 ;;      Params:         0       0       0       0       0       0       0       0       0
  7233 ;;      Locals:         0       0       0       0       0       0       0       0       0
  7234 ;;      Temps:          0       0       0       0       0       0       0       0       0
  7235 ;;      Totals:         0       0       0       0       0       0       0       0       0
  7236 ;;Total ram usage:        0 bytes
  7237 ;; Hardware stack levels used: 1
  7238 ;; Hardware stack levels required when called: 2
  7239 ;; This function calls:
  7240 ;;		_exit
  7241 ;; This function is called by:
  7242 ;;		___assert_fail
  7243 ;; This function uses a non-reentrant model
  7244 ;;
  7245                           
  7246                           	psect	text30
  7247   0052BE                     __ptext30:
  7248                           	callstack 0
  7249   0052BE                     _abort:
  7250                           	callstack 122
  7251   0052BE  0EFF               	movlw	255
  7252   0052C0  6E04               	movwf	(exit@code+1)^(0+1280),c
  7253   0052C2  6803               	setf	exit@code^(0+1280),c
  7254   0052C4  EC65  F029         	call	_exit	;wreg free
  7255   0052C8  0012               	return		;funcret
  7256   0052CA                     __end_of_abort:
  7257                           	callstack 0
  7258                           
  7259 ;; *************** function _exit *****************
  7260 ;; Defined at:
  7261 ;;		line 8 in file "S:\XC8C\pic\sources\c99\common\exit.c"
  7262 ;; Parameters:    Size  Location     Type
  7263 ;;  code            2    2[COMRAM] int 
  7264 ;; Auto vars:     Size  Location     Type
  7265 ;;		None
  7266 ;; Return value:  Size  Location     Type
  7267 ;;                  1    wreg      void 
  7268 ;; Registers used:
  7269 ;;		wreg, status,2, status,0, cstack
  7270 ;; Tracked objects:
  7271 ;;		On entry : 0/0
  7272 ;;		On exit  : 0/0
  7273 ;;		Unchanged: 0/0
  7274 ;; Data sizes:     COMRAM   BANK5   BANK6   BANK7   BANK8   BANK9  BANK10  BANK11  BANK12
  7275 ;;      Params:         2       0       0       0       0       0       0       0       0
  7276 ;;      Locals:         0       0       0       0       0       0       0       0       0
  7277 ;;      Temps:          0       0       0       0       0       0       0       0       0
  7278 ;;      Totals:         2       0       0       0       0       0       0       0       0
  7279 ;;Total ram usage:        2 bytes
  7280 ;; Hardware stack levels used: 1
  7281 ;; Hardware stack levels required when called: 1
  7282 ;; This function calls:
  7283 ;;		__Exit
  7284 ;;		___funcs_on_exit
  7285 ;; This function is called by:
  7286 ;;		_abort
  7287 ;; This function uses a non-reentrant model
  7288 ;;
  7289                           
  7290                           	psect	text31
  7291   0052CA                     __ptext31:
  7292                           	callstack 0
  7293   0052CA                     _exit:
  7294                           	callstack 122
  7295   0052CA  ECAD  F029         	call	___funcs_on_exit	;wreg free
  7296   0052CE  C503  F501         	movff	exit@code,__Exit@ec
  7297   0052D2  C504  F502         	movff	exit@code+1,__Exit@ec+1
  7298   0052D6  EC25  F029         	call	__Exit	;wreg free
  7299   0052DA  0012               	return		;funcret
  7300   0052DC                     __end_of_exit:
  7301                           	callstack 0
  7302                           
  7303 ;; *************** function ___funcs_on_exit *****************
  7304 ;; Defined at:
  7305 ;;		line 11 in file "S:\XC8C\pic\sources\c99\common\atexit.c"
  7306 ;; Parameters:    Size  Location     Type
  7307 ;;		None
  7308 ;; Auto vars:     Size  Location     Type
  7309 ;;  func            2    0        PTR FTN()void 
  7310 ;; Return value:  Size  Location     Type
  7311 ;;                  1    wreg      void 
  7312 ;; Registers used:
  7313 ;;		wreg, status,2, status,0
  7314 ;; Tracked objects:
  7315 ;;		On entry : 0/0
  7316 ;;		On exit  : 0/0
  7317 ;;		Unchanged: 0/0
  7318 ;; Data sizes:     COMRAM   BANK5   BANK6   BANK7   BANK8   BANK9  BANK10  BANK11  BANK12
  7319 ;;      Params:         0       0       0       0       0       0       0       0       0
  7320 ;;      Locals:         0       0       0       0       0       0       0       0       0
  7321 ;;      Temps:          0       0       0       0       0       0       0       0       0
  7322 ;;      Totals:         0       0       0       0       0       0       0       0       0
  7323 ;;Total ram usage:        0 bytes
  7324 ;; Hardware stack levels used: 1
  7325 ;; This function calls:
  7326 ;;		Nothing
  7327 ;; This function is called by:
  7328 ;;		_exit
  7329 ;; This function uses a non-reentrant model
  7330 ;;
  7331                           
  7332                           	psect	text32
  7333   00535A                     __ptext32:
  7334                           	callstack 0
  7335   00535A                     ___funcs_on_exit:
  7336                           	callstack 122
  7337   00535A  EFB0  F029         	goto	l3351
  7338   00535E                     l3349:
  7339   00535E  065E               	decf	_count^(0+1280),f,c
  7340   005360                     l3351:
  7341   005360  505E               	movf	_count^(0+1280),w,c
  7342   005362  0A80               	xorlw	128
  7343   005364  0F7F               	addlw	-129
  7344   005366  B0D8               	btfsc	status,0,c
  7345   005368  EFB8  F029         	goto	u2831
  7346   00536C  EFBA  F029         	goto	u2830
  7347   005370                     u2831:
  7348   005370  EFAF  F029         	goto	l3349
  7349   005374                     u2830:
  7350   005374  0012               	return		;funcret
  7351   005376                     __end_of___funcs_on_exit:
  7352                           	callstack 0
  7353                           
  7354 ;; *************** function __Exit *****************
  7355 ;; Defined at:
  7356 ;;		line 3 in file "S:\XC8C\pic\sources\c99\common\_Exit.c"
  7357 ;; Parameters:    Size  Location     Type
  7358 ;;  ec              2    0[COMRAM] int 
  7359 ;; Auto vars:     Size  Location     Type
  7360 ;;		None
  7361 ;; Return value:  Size  Location     Type
  7362 ;;                  1    wreg      void 
  7363 ;; Registers used:
  7364 ;;		None
  7365 ;; Tracked objects:
  7366 ;;		On entry : 0/0
  7367 ;;		On exit  : 0/0
  7368 ;;		Unchanged: 0/0
  7369 ;; Data sizes:     COMRAM   BANK5   BANK6   BANK7   BANK8   BANK9  BANK10  BANK11  BANK12
  7370 ;;      Params:         2       0       0       0       0       0       0       0       0
  7371 ;;      Locals:         0       0       0       0       0       0       0       0       0
  7372 ;;      Temps:          0       0       0       0       0       0       0       0       0
  7373 ;;      Totals:         2       0       0       0       0       0       0       0       0
  7374 ;;Total ram usage:        2 bytes
  7375 ;; Hardware stack levels used: 1
  7376 ;; This function calls:
  7377 ;;		Nothing
  7378 ;; This function is called by:
  7379 ;;		_exit
  7380 ;; This function uses a non-reentrant model
  7381 ;;
  7382                           
  7383                           	psect	text33
  7384   00524A                     __ptext33:
  7385                           	callstack 0
  7386   00524A                     __Exit:
  7387                           	callstack 122
  7388   00524A                     l1394:
  7389   00524A  EF25  F029         	goto	l1394
  7390   00524E  0012               	return		;funcret
  7391   005250                     __end_of__Exit:
  7392                           	callstack 0
  7393                           
  7394 ;; *************** function _SYSTEM_Initialize *****************
  7395 ;; Defined at:
  7396 ;;		line 41 in file "mcc_generated_files/system/src/system.c"
  7397 ;; Parameters:    Size  Location     Type
  7398 ;;		None
  7399 ;; Auto vars:     Size  Location     Type
  7400 ;;		None
  7401 ;; Return value:  Size  Location     Type
  7402 ;;                  1    wreg      void 
  7403 ;; Registers used:
  7404 ;;		wreg, status,2, status,0, cstack
  7405 ;; Tracked objects:
  7406 ;;		On entry : 0/0
  7407 ;;		On exit  : 0/0
  7408 ;;		Unchanged: 0/0
  7409 ;; Data sizes:     COMRAM   BANK5   BANK6   BANK7   BANK8   BANK9  BANK10  BANK11  BANK12
  7410 ;;      Params:         0       0       0       0       0       0       0       0       0
  7411 ;;      Locals:         0       0       0       0       0       0       0       0       0
  7412 ;;      Temps:          0       0       0       0       0       0       0       0       0
  7413 ;;      Totals:         0       0       0       0       0       0       0       0       0
  7414 ;;Total ram usage:        0 bytes
  7415 ;; Hardware stack levels used: 1
  7416 ;; Hardware stack levels required when called: 2
  7417 ;; This function calls:
  7418 ;;		_CLOCK_Initialize
  7419 ;;		_DAC1_Initialize
  7420 ;;		_INTERRUPT_Initialize
  7421 ;;		_PIN_MANAGER_Initialize
  7422 ;;		_PWM1_16BIT_Initialize
  7423 ;;		_PWM2_16BIT_Initialize
  7424 ;; This function is called by:
  7425 ;;		_main
  7426 ;; This function uses a non-reentrant model
  7427 ;;
  7428                           
  7429                           	psect	text34
  7430   005324                     __ptext34:
  7431                           	callstack 0
  7432   005324                     _SYSTEM_Initialize:
  7433                           	callstack 124
  7434   005324                     
  7435                           ;mcc_generated_files/system/src/system.c: 43:     CLOCK_Initialize();
  7436   005324  EC9F  F029         	call	_CLOCK_Initialize	;wreg free
  7437                           
  7438                           ;mcc_generated_files/system/src/system.c: 44:     PIN_MANAGER_Initialize();
  7439   005328  EC54  F02B         	call	_PIN_MANAGER_Initialize	;wreg free
  7440                           
  7441                           ;mcc_generated_files/system/src/system.c: 45:     DAC1_Initialize();
  7442   00532C  EC59  F029         	call	_DAC1_Initialize	;wreg free
  7443   005330                     
  7444                           ;mcc_generated_files/system/src/system.c: 46:     PWM1_16BIT_Initialize();
  7445   005330  ECE8  F02A         	call	_PWM1_16BIT_Initialize	;wreg free
  7446   005334                     
  7447                           ;mcc_generated_files/system/src/system.c: 47:     PWM2_16BIT_Initialize();
  7448   005334  EC1E  F02B         	call	_PWM2_16BIT_Initialize	;wreg free
  7449   005338                     
  7450                           ;mcc_generated_files/system/src/system.c: 49:     INTERRUPT_Initialize();
  7451   005338  EC10  F02A         	call	_INTERRUPT_Initialize	;wreg free
  7452   00533C  0012               	return		;funcret
  7453   00533E                     __end_of_SYSTEM_Initialize:
  7454                           	callstack 0
  7455                           
  7456 ;; *************** function _PWM2_16BIT_Initialize *****************
  7457 ;; Defined at:
  7458 ;;		line 50 in file "mcc_generated_files/pwm/src/pwm2_16bit.c"
  7459 ;; Parameters:    Size  Location     Type
  7460 ;;		None
  7461 ;; Auto vars:     Size  Location     Type
  7462 ;;		None
  7463 ;; Return value:  Size  Location     Type
  7464 ;;                  1    wreg      void 
  7465 ;; Registers used:
  7466 ;;		wreg, status,2, status,0, cstack
  7467 ;; Tracked objects:
  7468 ;;		On entry : 0/0
  7469 ;;		On exit  : 0/0
  7470 ;;		Unchanged: 0/0
  7471 ;; Data sizes:     COMRAM   BANK5   BANK6   BANK7   BANK8   BANK9  BANK10  BANK11  BANK12
  7472 ;;      Params:         0       0       0       0       0       0       0       0       0
  7473 ;;      Locals:         0       0       0       0       0       0       0       0       0
  7474 ;;      Temps:          0       0       0       0       0       0       0       0       0
  7475 ;;      Totals:         0       0       0       0       0       0       0       0       0
  7476 ;;Total ram usage:        0 bytes
  7477 ;; Hardware stack levels used: 1
  7478 ;; Hardware stack levels required when called: 1
  7479 ;; This function calls:
  7480 ;;		_PWM2_16BIT_Period_SetInterruptHandler
  7481 ;;		_PWM2_16BIT_Slice1Output1_SetInterruptHandler
  7482 ;;		_PWM2_16BIT_Slice1Output2_SetInterruptHandler
  7483 ;; This function is called by:
  7484 ;;		_SYSTEM_Initialize
  7485 ;; This function uses a non-reentrant model
  7486 ;;
  7487                           
  7488                           	psect	text35
  7489   00563C                     __ptext35:
  7490                           	callstack 0
  7491   00563C                     _PWM2_16BIT_Initialize:
  7492                           	callstack 124
  7493   00563C                     
  7494                           ;mcc_generated_files/pwm/src/pwm2_16bit.c: 53:     PWM2ERS = 0x0;
  7495   00563C  0E00               	movlw	0
  7496   00563E  6E6F               	movwf	111,c	;volatile
  7497                           
  7498                           ;mcc_generated_files/pwm/src/pwm2_16bit.c: 56:     PWM2CLK = 0x2;
  7499   005640  0E02               	movlw	2
  7500   005642  6E70               	movwf	112,c	;volatile
  7501                           
  7502                           ;mcc_generated_files/pwm/src/pwm2_16bit.c: 59:     PWM2LDS = 0x0;
  7503   005644  0E00               	movlw	0
  7504   005646  6E71               	movwf	113,c	;volatile
  7505   005648                     
  7506                           ;mcc_generated_files/pwm/src/pwm2_16bit.c: 62:     PWM2PRL = 0xFF;
  7507   005648  6872               	setf	114,c	;volatile
  7508                           
  7509                           ;mcc_generated_files/pwm/src/pwm2_16bit.c: 65:     PWM2PRH = 0xF9;
  7510   00564A  0EF9               	movlw	249
  7511   00564C  6E73               	movwf	115,c	;volatile
  7512                           
  7513                           ;mcc_generated_files/pwm/src/pwm2_16bit.c: 68:     PWM2CPRE = 0x0;
  7514   00564E  0E00               	movlw	0
  7515   005650  6E74               	movwf	116,c	;volatile
  7516                           
  7517                           ;mcc_generated_files/pwm/src/pwm2_16bit.c: 71:     PWM2PIPOS = 0x0;
  7518   005652  0E00               	movlw	0
  7519   005654  6E75               	movwf	117,c	;volatile
  7520                           
  7521                           ;mcc_generated_files/pwm/src/pwm2_16bit.c: 74:     PWM2GIR = 0x0;
  7522   005656  0E00               	movlw	0
  7523   005658  6E76               	movwf	118,c	;volatile
  7524                           
  7525                           ;mcc_generated_files/pwm/src/pwm2_16bit.c: 77:     PWM2GIE = 0x0;
  7526   00565A  0E00               	movlw	0
  7527   00565C  6E77               	movwf	119,c	;volatile
  7528                           
  7529                           ;mcc_generated_files/pwm/src/pwm2_16bit.c: 80:     PWM2S1CFG = 0x0;
  7530   00565E  0E00               	movlw	0
  7531   005660  6E79               	movwf	121,c	;volatile
  7532                           
  7533                           ;mcc_generated_files/pwm/src/pwm2_16bit.c: 83:     PWM2S1P1L = 0x0;
  7534   005662  0E00               	movlw	0
  7535   005664  6E7A               	movwf	122,c	;volatile
  7536                           
  7537                           ;mcc_generated_files/pwm/src/pwm2_16bit.c: 86:     PWM2S1P1H = 0x7D;
  7538   005666  0E7D               	movlw	125
  7539   005668  6E7B               	movwf	123,c	;volatile
  7540                           
  7541                           ;mcc_generated_files/pwm/src/pwm2_16bit.c: 89:     PWM2S1P2L = 0x0;
  7542   00566A  0E00               	movlw	0
  7543   00566C  6E7C               	movwf	124,c	;volatile
  7544                           
  7545                           ;mcc_generated_files/pwm/src/pwm2_16bit.c: 92:     PWM2S1P2H = 0x7D;
  7546   00566E  0E7D               	movlw	125
  7547   005670  6E7D               	movwf	125,c	;volatile
  7548   005672                     
  7549                           ;mcc_generated_files/pwm/src/pwm2_16bit.c: 95:     PIR5bits.PWM2PIF = 0;
  7550   005672  9CB8               	bcf	184,6,c	;volatile
  7551   005674                     
  7552                           ;mcc_generated_files/pwm/src/pwm2_16bit.c: 98:     PIR5bits.PWM2IF = 0;
  7553   005674  9EB8               	bcf	184,7,c	;volatile
  7554   005676                     
  7555                           ;mcc_generated_files/pwm/src/pwm2_16bit.c: 101:     PWM2GIRbits.S1P1IF = 0;
  7556   005676  9076               	bcf	118,0,c	;volatile
  7557   005678                     
  7558                           ;mcc_generated_files/pwm/src/pwm2_16bit.c: 104:     PWM2GIRbits.S1P2IF = 0;
  7559   005678  9276               	bcf	118,1,c	;volatile
  7560   00567A                     
  7561                           ;mcc_generated_files/pwm/src/pwm2_16bit.c: 107:     PIE5bits.PWM2IE = 0;
  7562   00567A  9EAD               	bcf	173,7,c	;volatile
  7563   00567C                     
  7564                           ;mcc_generated_files/pwm/src/pwm2_16bit.c: 110:     PIE5bits.PWM2PIE = 0;
  7565   00567C  9CAD               	bcf	173,6,c	;volatile
  7566   00567E                     
  7567                           ;mcc_generated_files/pwm/src/pwm2_16bit.c: 113:     PWM2_16BIT_Slice1Output1_SetInterrup
      +                          tHandler(PWM2_16BIT_Slice1Output1_DefaultInterruptHandler);
  7568   00567E  0E00               	movlw	0
  7569   005680  6E01               	movwf	PWM2_16BIT_Slice1Output1_SetInterruptHandler@InterruptHandler^(0+1280),c
  7570   005682  0E00               	movlw	0
  7571   005684  6E02               	movwf	(PWM2_16BIT_Slice1Output1_SetInterruptHandler@InterruptHandler+1)^(0+1280),c
  7572   005686  EC4F  F029         	call	_PWM2_16BIT_Slice1Output1_SetInterruptHandler	;wreg free
  7573   00568A                     
  7574                           ;mcc_generated_files/pwm/src/pwm2_16bit.c: 114:     PWM2_16BIT_Slice1Output2_SetInterrup
      +                          tHandler(PWM2_16BIT_Slice1Output2_DefaultInterruptHandler);
  7575   00568A  0E00               	movlw	0
  7576   00568C  6E01               	movwf	PWM2_16BIT_Slice1Output2_SetInterruptHandler@InterruptHandler^(0+1280),c
  7577   00568E  0E00               	movlw	0
  7578   005690  6E02               	movwf	(PWM2_16BIT_Slice1Output2_SetInterruptHandler@InterruptHandler+1)^(0+1280),c
  7579   005692  EC54  F029         	call	_PWM2_16BIT_Slice1Output2_SetInterruptHandler	;wreg free
  7580   005696                     
  7581                           ;mcc_generated_files/pwm/src/pwm2_16bit.c: 115:     PWM2_16BIT_Period_SetInterruptHandle
      +                          r(PWM2_16BIT_Period_DefaultInterruptHandler);
  7582   005696  0E00               	movlw	0
  7583   005698  6E01               	movwf	PWM2_16BIT_Period_SetInterruptHandler@InterruptHandler^(0+1280),c
  7584   00569A  0E00               	movlw	0
  7585   00569C  6E02               	movwf	(PWM2_16BIT_Period_SetInterruptHandler@InterruptHandler+1)^(0+1280),c
  7586   00569E  EC4A  F029         	call	_PWM2_16BIT_Period_SetInterruptHandler	;wreg free
  7587   0056A2                     
  7588                           ;mcc_generated_files/pwm/src/pwm2_16bit.c: 118:     PWM2CON = 0x80;
  7589   0056A2  0E80               	movlw	128
  7590   0056A4  6E78               	movwf	120,c	;volatile
  7591   0056A6  0012               	return		;funcret
  7592   0056A8                     __end_of_PWM2_16BIT_Initialize:
  7593                           	callstack 0
  7594                           
  7595 ;; *************** function _PWM2_16BIT_Slice1Output2_SetInterruptHandler *****************
  7596 ;; Defined at:
  7597 ;;		line 194 in file "mcc_generated_files/pwm/src/pwm2_16bit.c"
  7598 ;; Parameters:    Size  Location     Type
  7599 ;;  InterruptHan    2    0[COMRAM] PTR FTN()void 
  7600 ;;		 -> PWM2_16BIT_Slice1Output2_DefaultInterruptHandler(1), 
  7601 ;; Auto vars:     Size  Location     Type
  7602 ;;		None
  7603 ;; Return value:  Size  Location     Type
  7604 ;;                  1    wreg      void 
  7605 ;; Registers used:
  7606 ;;		wreg, status,2, status,0
  7607 ;; Tracked objects:
  7608 ;;		On entry : 0/0
  7609 ;;		On exit  : 0/0
  7610 ;;		Unchanged: 0/0
  7611 ;; Data sizes:     COMRAM   BANK5   BANK6   BANK7   BANK8   BANK9  BANK10  BANK11  BANK12
  7612 ;;      Params:         2       0       0       0       0       0       0       0       0
  7613 ;;      Locals:         0       0       0       0       0       0       0       0       0
  7614 ;;      Temps:          0       0       0       0       0       0       0       0       0
  7615 ;;      Totals:         2       0       0       0       0       0       0       0       0
  7616 ;;Total ram usage:        2 bytes
  7617 ;; Hardware stack levels used: 1
  7618 ;; This function calls:
  7619 ;;		Nothing
  7620 ;; This function is called by:
  7621 ;;		_PWM2_16BIT_Initialize
  7622 ;; This function uses a non-reentrant model
  7623 ;;
  7624                           
  7625                           	psect	text36
  7626   0052A8                     __ptext36:
  7627                           	callstack 0
  7628   0052A8                     _PWM2_16BIT_Slice1Output2_SetInterruptHandler:
  7629                           	callstack 124
  7630   0052A8                     
  7631                           ;mcc_generated_files/pwm/src/pwm2_16bit.c: 194: void PWM2_16BIT_Slice1Output2_SetInterru
      +                          ptHandler(void (* InterruptHandler)(void));mcc_generated_files/pwm/src/pwm2_16bit.c: 195
      +                          : {;mcc_generated_files/pwm/src/pwm2_16bit.c: 196:     PWM2_16BIT_Slice1Output2_Interrup
      +                          tHandler = InterruptHandler;
  7632   0052A8  C501  F692         	movff	PWM2_16BIT_Slice1Output2_SetInterruptHandler@InterruptHandler,_PWM2_16BIT_Slice1O
      +                          utput2_InterruptHandler
  7633   0052AC  C502  F693         	movff	PWM2_16BIT_Slice1Output2_SetInterruptHandler@InterruptHandler+1,_PWM2_16BIT_Slice
      +                          1Output2_InterruptHandler+1
  7634   0052B0  0012               	return		;funcret
  7635   0052B2                     __end_of_PWM2_16BIT_Slice1Output2_SetInterruptHandler:
  7636                           	callstack 0
  7637                           
  7638 ;; *************** function _PWM2_16BIT_Slice1Output1_SetInterruptHandler *****************
  7639 ;; Defined at:
  7640 ;;		line 189 in file "mcc_generated_files/pwm/src/pwm2_16bit.c"
  7641 ;; Parameters:    Size  Location     Type
  7642 ;;  InterruptHan    2    0[COMRAM] PTR FTN()void 
  7643 ;;		 -> PWM2_16BIT_Slice1Output1_DefaultInterruptHandler(1), 
  7644 ;; Auto vars:     Size  Location     Type
  7645 ;;		None
  7646 ;; Return value:  Size  Location     Type
  7647 ;;                  1    wreg      void 
  7648 ;; Registers used:
  7649 ;;		wreg, status,2, status,0
  7650 ;; Tracked objects:
  7651 ;;		On entry : 0/0
  7652 ;;		On exit  : 0/0
  7653 ;;		Unchanged: 0/0
  7654 ;; Data sizes:     COMRAM   BANK5   BANK6   BANK7   BANK8   BANK9  BANK10  BANK11  BANK12
  7655 ;;      Params:         2       0       0       0       0       0       0       0       0
  7656 ;;      Locals:         0       0       0       0       0       0       0       0       0
  7657 ;;      Temps:          0       0       0       0       0       0       0       0       0
  7658 ;;      Totals:         2       0       0       0       0       0       0       0       0
  7659 ;;Total ram usage:        2 bytes
  7660 ;; Hardware stack levels used: 1
  7661 ;; This function calls:
  7662 ;;		Nothing
  7663 ;; This function is called by:
  7664 ;;		_PWM2_16BIT_Initialize
  7665 ;; This function uses a non-reentrant model
  7666 ;;
  7667                           
  7668                           	psect	text37
  7669   00529E                     __ptext37:
  7670                           	callstack 0
  7671   00529E                     _PWM2_16BIT_Slice1Output1_SetInterruptHandler:
  7672                           	callstack 124
  7673   00529E                     
  7674                           ;mcc_generated_files/pwm/src/pwm2_16bit.c: 189: void PWM2_16BIT_Slice1Output1_SetInterru
      +                          ptHandler(void (* InterruptHandler)(void));mcc_generated_files/pwm/src/pwm2_16bit.c: 190
      +                          : {;mcc_generated_files/pwm/src/pwm2_16bit.c: 191:     PWM2_16BIT_Slice1Output1_Interrup
      +                          tHandler = InterruptHandler;
  7675   00529E  C501  F5F7         	movff	PWM2_16BIT_Slice1Output1_SetInterruptHandler@InterruptHandler,_PWM2_16BIT_Slice1O
      +                          utput1_InterruptHandler
  7676   0052A2  C502  F5F8         	movff	PWM2_16BIT_Slice1Output1_SetInterruptHandler@InterruptHandler+1,_PWM2_16BIT_Slice
      +                          1Output1_InterruptHandler+1
  7677   0052A6  0012               	return		;funcret
  7678   0052A8                     __end_of_PWM2_16BIT_Slice1Output1_SetInterruptHandler:
  7679                           	callstack 0
  7680                           
  7681 ;; *************** function _PWM2_16BIT_Period_SetInterruptHandler *****************
  7682 ;; Defined at:
  7683 ;;		line 199 in file "mcc_generated_files/pwm/src/pwm2_16bit.c"
  7684 ;; Parameters:    Size  Location     Type
  7685 ;;  InterruptHan    2    0[COMRAM] PTR FTN()void 
  7686 ;;		 -> PWM2_16BIT_Period_DefaultInterruptHandler(1), 
  7687 ;; Auto vars:     Size  Location     Type
  7688 ;;		None
  7689 ;; Return value:  Size  Location     Type
  7690 ;;                  1    wreg      void 
  7691 ;; Registers used:
  7692 ;;		wreg, status,2, status,0
  7693 ;; Tracked objects:
  7694 ;;		On entry : 0/0
  7695 ;;		On exit  : 0/0
  7696 ;;		Unchanged: 0/0
  7697 ;; Data sizes:     COMRAM   BANK5   BANK6   BANK7   BANK8   BANK9  BANK10  BANK11  BANK12
  7698 ;;      Params:         2       0       0       0       0       0       0       0       0
  7699 ;;      Locals:         0       0       0       0       0       0       0       0       0
  7700 ;;      Temps:          0       0       0       0       0       0       0       0       0
  7701 ;;      Totals:         2       0       0       0       0       0       0       0       0
  7702 ;;Total ram usage:        2 bytes
  7703 ;; Hardware stack levels used: 1
  7704 ;; This function calls:
  7705 ;;		Nothing
  7706 ;; This function is called by:
  7707 ;;		_PWM2_16BIT_Initialize
  7708 ;; This function uses a non-reentrant model
  7709 ;;
  7710                           
  7711                           	psect	text38
  7712   005294                     __ptext38:
  7713                           	callstack 0
  7714   005294                     _PWM2_16BIT_Period_SetInterruptHandler:
  7715                           	callstack 124
  7716   005294                     
  7717                           ;mcc_generated_files/pwm/src/pwm2_16bit.c: 199: void PWM2_16BIT_Period_SetInterruptHandl
      +                          er(void (* InterruptHandler)(void));mcc_generated_files/pwm/src/pwm2_16bit.c: 200: {;mcc
      +                          _generated_files/pwm/src/pwm2_16bit.c: 201:     PWM2_16BIT_Period_InterruptHandler = Int
      +                          erruptHandler;
  7718   005294  C501  F690         	movff	PWM2_16BIT_Period_SetInterruptHandler@InterruptHandler,_PWM2_16BIT_Period_Interru
      +                          ptHandler
  7719   005298  C502  F691         	movff	PWM2_16BIT_Period_SetInterruptHandler@InterruptHandler+1,_PWM2_16BIT_Period_Inter
      +                          ruptHandler+1
  7720   00529C  0012               	return		;funcret
  7721   00529E                     __end_of_PWM2_16BIT_Period_SetInterruptHandler:
  7722                           	callstack 0
  7723                           
  7724 ;; *************** function _PWM1_16BIT_Initialize *****************
  7725 ;; Defined at:
  7726 ;;		line 50 in file "mcc_generated_files/pwm/src/pwm1_16bit.c"
  7727 ;; Parameters:    Size  Location     Type
  7728 ;;		None
  7729 ;; Auto vars:     Size  Location     Type
  7730 ;;		None
  7731 ;; Return value:  Size  Location     Type
  7732 ;;                  1    wreg      void 
  7733 ;; Registers used:
  7734 ;;		wreg, status,2, status,0, cstack
  7735 ;; Tracked objects:
  7736 ;;		On entry : 0/0
  7737 ;;		On exit  : 0/0
  7738 ;;		Unchanged: 0/0
  7739 ;; Data sizes:     COMRAM   BANK5   BANK6   BANK7   BANK8   BANK9  BANK10  BANK11  BANK12
  7740 ;;      Params:         0       0       0       0       0       0       0       0       0
  7741 ;;      Locals:         0       0       0       0       0       0       0       0       0
  7742 ;;      Temps:          0       0       0       0       0       0       0       0       0
  7743 ;;      Totals:         0       0       0       0       0       0       0       0       0
  7744 ;;Total ram usage:        0 bytes
  7745 ;; Hardware stack levels used: 1
  7746 ;; Hardware stack levels required when called: 1
  7747 ;; This function calls:
  7748 ;;		_PWM1_16BIT_Period_SetInterruptHandler
  7749 ;;		_PWM1_16BIT_Slice1Output1_SetInterruptHandler
  7750 ;;		_PWM1_16BIT_Slice1Output2_SetInterruptHandler
  7751 ;; This function is called by:
  7752 ;;		_SYSTEM_Initialize
  7753 ;; This function uses a non-reentrant model
  7754 ;;
  7755                           
  7756                           	psect	text39
  7757   0055D0                     __ptext39:
  7758                           	callstack 0
  7759   0055D0                     _PWM1_16BIT_Initialize:
  7760                           	callstack 124
  7761   0055D0                     
  7762                           ;mcc_generated_files/pwm/src/pwm1_16bit.c: 53:     PWM1ERS = 0x0;
  7763   0055D0  0E00               	movlw	0
  7764   0055D2  6E60               	movwf	96,c	;volatile
  7765                           
  7766                           ;mcc_generated_files/pwm/src/pwm1_16bit.c: 56:     PWM1CLK = 0x2;
  7767   0055D4  0E02               	movlw	2
  7768   0055D6  6E61               	movwf	97,c	;volatile
  7769                           
  7770                           ;mcc_generated_files/pwm/src/pwm1_16bit.c: 59:     PWM1LDS = 0x0;
  7771   0055D8  0E00               	movlw	0
  7772   0055DA  6E62               	movwf	98,c	;volatile
  7773   0055DC                     
  7774                           ;mcc_generated_files/pwm/src/pwm1_16bit.c: 62:     PWM1PRL = 0xFF;
  7775   0055DC  6863               	setf	99,c	;volatile
  7776                           
  7777                           ;mcc_generated_files/pwm/src/pwm1_16bit.c: 65:     PWM1PRH = 0xF9;
  7778   0055DE  0EF9               	movlw	249
  7779   0055E0  6E64               	movwf	100,c	;volatile
  7780                           
  7781                           ;mcc_generated_files/pwm/src/pwm1_16bit.c: 68:     PWM1CPRE = 0x0;
  7782   0055E2  0E00               	movlw	0
  7783   0055E4  6E65               	movwf	101,c	;volatile
  7784                           
  7785                           ;mcc_generated_files/pwm/src/pwm1_16bit.c: 71:     PWM1PIPOS = 0x0;
  7786   0055E6  0E00               	movlw	0
  7787   0055E8  6E66               	movwf	102,c	;volatile
  7788                           
  7789                           ;mcc_generated_files/pwm/src/pwm1_16bit.c: 74:     PWM1GIR = 0x0;
  7790   0055EA  0E00               	movlw	0
  7791   0055EC  6E67               	movwf	103,c	;volatile
  7792                           
  7793                           ;mcc_generated_files/pwm/src/pwm1_16bit.c: 77:     PWM1GIE = 0x0;
  7794   0055EE  0E00               	movlw	0
  7795   0055F0  6E68               	movwf	104,c	;volatile
  7796                           
  7797                           ;mcc_generated_files/pwm/src/pwm1_16bit.c: 80:     PWM1S1CFG = 0x0;
  7798   0055F2  0E00               	movlw	0
  7799   0055F4  6E6A               	movwf	106,c	;volatile
  7800                           
  7801                           ;mcc_generated_files/pwm/src/pwm1_16bit.c: 83:     PWM1S1P1L = 0x0;
  7802   0055F6  0E00               	movlw	0
  7803   0055F8  6E6B               	movwf	107,c	;volatile
  7804                           
  7805                           ;mcc_generated_files/pwm/src/pwm1_16bit.c: 86:     PWM1S1P1H = 0x7D;
  7806   0055FA  0E7D               	movlw	125
  7807   0055FC  6E6C               	movwf	108,c	;volatile
  7808                           
  7809                           ;mcc_generated_files/pwm/src/pwm1_16bit.c: 89:     PWM1S1P2L = 0x0;
  7810   0055FE  0E00               	movlw	0
  7811   005600  6E6D               	movwf	109,c	;volatile
  7812                           
  7813                           ;mcc_generated_files/pwm/src/pwm1_16bit.c: 92:     PWM1S1P2H = 0x7D;
  7814   005602  0E7D               	movlw	125
  7815   005604  6E6E               	movwf	110,c	;volatile
  7816   005606                     
  7817                           ;mcc_generated_files/pwm/src/pwm1_16bit.c: 95:     PIR4bits.PWM1PIF = 0;
  7818   005606  9CB7               	bcf	183,6,c	;volatile
  7819   005608                     
  7820                           ;mcc_generated_files/pwm/src/pwm1_16bit.c: 98:     PIR4bits.PWM1IF = 0;
  7821   005608  9EB7               	bcf	183,7,c	;volatile
  7822   00560A                     
  7823                           ;mcc_generated_files/pwm/src/pwm1_16bit.c: 101:     PWM1GIRbits.S1P1IF = 0;
  7824   00560A  9067               	bcf	103,0,c	;volatile
  7825   00560C                     
  7826                           ;mcc_generated_files/pwm/src/pwm1_16bit.c: 104:     PWM1GIRbits.S1P2IF = 0;
  7827   00560C  9267               	bcf	103,1,c	;volatile
  7828   00560E                     
  7829                           ;mcc_generated_files/pwm/src/pwm1_16bit.c: 107:     PIE4bits.PWM1IE = 0;
  7830   00560E  9EAC               	bcf	172,7,c	;volatile
  7831   005610                     
  7832                           ;mcc_generated_files/pwm/src/pwm1_16bit.c: 110:     PIE4bits.PWM1PIE = 0;
  7833   005610  9CAC               	bcf	172,6,c	;volatile
  7834   005612                     
  7835                           ;mcc_generated_files/pwm/src/pwm1_16bit.c: 113:     PWM1_16BIT_Slice1Output1_SetInterrup
      +                          tHandler(PWM1_16BIT_Slice1Output1_DefaultInterruptHandler);
  7836   005612  0E00               	movlw	0
  7837   005614  6E01               	movwf	PWM1_16BIT_Slice1Output1_SetInterruptHandler@InterruptHandler^(0+1280),c
  7838   005616  0E00               	movlw	0
  7839   005618  6E02               	movwf	(PWM1_16BIT_Slice1Output1_SetInterruptHandler@InterruptHandler+1)^(0+1280),c
  7840   00561A  EC40  F029         	call	_PWM1_16BIT_Slice1Output1_SetInterruptHandler	;wreg free
  7841   00561E                     
  7842                           ;mcc_generated_files/pwm/src/pwm1_16bit.c: 114:     PWM1_16BIT_Slice1Output2_SetInterrup
      +                          tHandler(PWM1_16BIT_Slice1Output2_DefaultInterruptHandler);
  7843   00561E  0E00               	movlw	0
  7844   005620  6E01               	movwf	PWM1_16BIT_Slice1Output2_SetInterruptHandler@InterruptHandler^(0+1280),c
  7845   005622  0E00               	movlw	0
  7846   005624  6E02               	movwf	(PWM1_16BIT_Slice1Output2_SetInterruptHandler@InterruptHandler+1)^(0+1280),c
  7847   005626  EC45  F029         	call	_PWM1_16BIT_Slice1Output2_SetInterruptHandler	;wreg free
  7848   00562A                     
  7849                           ;mcc_generated_files/pwm/src/pwm1_16bit.c: 115:     PWM1_16BIT_Period_SetInterruptHandle
      +                          r(PWM1_16BIT_Period_DefaultInterruptHandler);
  7850   00562A  0E00               	movlw	0
  7851   00562C  6E01               	movwf	PWM1_16BIT_Period_SetInterruptHandler@InterruptHandler^(0+1280),c
  7852   00562E  0E00               	movlw	0
  7853   005630  6E02               	movwf	(PWM1_16BIT_Period_SetInterruptHandler@InterruptHandler+1)^(0+1280),c
  7854   005632  EC3B  F029         	call	_PWM1_16BIT_Period_SetInterruptHandler	;wreg free
  7855   005636                     
  7856                           ;mcc_generated_files/pwm/src/pwm1_16bit.c: 118:     PWM1CON = 0x80;
  7857   005636  0E80               	movlw	128
  7858   005638  6E69               	movwf	105,c	;volatile
  7859   00563A  0012               	return		;funcret
  7860   00563C                     __end_of_PWM1_16BIT_Initialize:
  7861                           	callstack 0
  7862                           
  7863 ;; *************** function _PWM1_16BIT_Slice1Output2_SetInterruptHandler *****************
  7864 ;; Defined at:
  7865 ;;		line 194 in file "mcc_generated_files/pwm/src/pwm1_16bit.c"
  7866 ;; Parameters:    Size  Location     Type
  7867 ;;  InterruptHan    2    0[COMRAM] PTR FTN()void 
  7868 ;;		 -> PWM1_16BIT_Slice1Output2_DefaultInterruptHandler(1), 
  7869 ;; Auto vars:     Size  Location     Type
  7870 ;;		None
  7871 ;; Return value:  Size  Location     Type
  7872 ;;                  1    wreg      void 
  7873 ;; Registers used:
  7874 ;;		wreg, status,2, status,0
  7875 ;; Tracked objects:
  7876 ;;		On entry : 0/0
  7877 ;;		On exit  : 0/0
  7878 ;;		Unchanged: 0/0
  7879 ;; Data sizes:     COMRAM   BANK5   BANK6   BANK7   BANK8   BANK9  BANK10  BANK11  BANK12
  7880 ;;      Params:         2       0       0       0       0       0       0       0       0
  7881 ;;      Locals:         0       0       0       0       0       0       0       0       0
  7882 ;;      Temps:          0       0       0       0       0       0       0       0       0
  7883 ;;      Totals:         2       0       0       0       0       0       0       0       0
  7884 ;;Total ram usage:        2 bytes
  7885 ;; Hardware stack levels used: 1
  7886 ;; This function calls:
  7887 ;;		Nothing
  7888 ;; This function is called by:
  7889 ;;		_PWM1_16BIT_Initialize
  7890 ;; This function uses a non-reentrant model
  7891 ;;
  7892                           
  7893                           	psect	text40
  7894   00528A                     __ptext40:
  7895                           	callstack 0
  7896   00528A                     _PWM1_16BIT_Slice1Output2_SetInterruptHandler:
  7897                           	callstack 124
  7898   00528A                     
  7899                           ;mcc_generated_files/pwm/src/pwm1_16bit.c: 194: void PWM1_16BIT_Slice1Output2_SetInterru
      +                          ptHandler(void (* InterruptHandler)(void));mcc_generated_files/pwm/src/pwm1_16bit.c: 195
      +                          : {;mcc_generated_files/pwm/src/pwm1_16bit.c: 196:     PWM1_16BIT_Slice1Output2_Interrup
      +                          tHandler = InterruptHandler;
  7900   00528A  C501  F5FB         	movff	PWM1_16BIT_Slice1Output2_SetInterruptHandler@InterruptHandler,_PWM1_16BIT_Slice1O
      +                          utput2_InterruptHandler
  7901   00528E  C502  F5FC         	movff	PWM1_16BIT_Slice1Output2_SetInterruptHandler@InterruptHandler+1,_PWM1_16BIT_Slice
      +                          1Output2_InterruptHandler+1
  7902   005292  0012               	return		;funcret
  7903   005294                     __end_of_PWM1_16BIT_Slice1Output2_SetInterruptHandler:
  7904                           	callstack 0
  7905                           
  7906 ;; *************** function _PWM1_16BIT_Slice1Output1_SetInterruptHandler *****************
  7907 ;; Defined at:
  7908 ;;		line 189 in file "mcc_generated_files/pwm/src/pwm1_16bit.c"
  7909 ;; Parameters:    Size  Location     Type
  7910 ;;  InterruptHan    2    0[COMRAM] PTR FTN()void 
  7911 ;;		 -> PWM1_16BIT_Slice1Output1_DefaultInterruptHandler(1), 
  7912 ;; Auto vars:     Size  Location     Type
  7913 ;;		None
  7914 ;; Return value:  Size  Location     Type
  7915 ;;                  1    wreg      void 
  7916 ;; Registers used:
  7917 ;;		wreg, status,2, status,0
  7918 ;; Tracked objects:
  7919 ;;		On entry : 0/0
  7920 ;;		On exit  : 0/0
  7921 ;;		Unchanged: 0/0
  7922 ;; Data sizes:     COMRAM   BANK5   BANK6   BANK7   BANK8   BANK9  BANK10  BANK11  BANK12
  7923 ;;      Params:         2       0       0       0       0       0       0       0       0
  7924 ;;      Locals:         0       0       0       0       0       0       0       0       0
  7925 ;;      Temps:          0       0       0       0       0       0       0       0       0
  7926 ;;      Totals:         2       0       0       0       0       0       0       0       0
  7927 ;;Total ram usage:        2 bytes
  7928 ;; Hardware stack levels used: 1
  7929 ;; This function calls:
  7930 ;;		Nothing
  7931 ;; This function is called by:
  7932 ;;		_PWM1_16BIT_Initialize
  7933 ;; This function uses a non-reentrant model
  7934 ;;
  7935                           
  7936                           	psect	text41
  7937   005280                     __ptext41:
  7938                           	callstack 0
  7939   005280                     _PWM1_16BIT_Slice1Output1_SetInterruptHandler:
  7940                           	callstack 124
  7941   005280                     
  7942                           ;mcc_generated_files/pwm/src/pwm1_16bit.c: 189: void PWM1_16BIT_Slice1Output1_SetInterru
      +                          ptHandler(void (* InterruptHandler)(void));mcc_generated_files/pwm/src/pwm1_16bit.c: 190
      +                          : {;mcc_generated_files/pwm/src/pwm1_16bit.c: 191:     PWM1_16BIT_Slice1Output1_Interrup
      +                          tHandler = InterruptHandler;
  7943   005280  C501  F5FD         	movff	PWM1_16BIT_Slice1Output1_SetInterruptHandler@InterruptHandler,_PWM1_16BIT_Slice1O
      +                          utput1_InterruptHandler
  7944   005284  C502  F5FE         	movff	PWM1_16BIT_Slice1Output1_SetInterruptHandler@InterruptHandler+1,_PWM1_16BIT_Slice
      +                          1Output1_InterruptHandler+1
  7945   005288  0012               	return		;funcret
  7946   00528A                     __end_of_PWM1_16BIT_Slice1Output1_SetInterruptHandler:
  7947                           	callstack 0
  7948                           
  7949 ;; *************** function _PWM1_16BIT_Period_SetInterruptHandler *****************
  7950 ;; Defined at:
  7951 ;;		line 199 in file "mcc_generated_files/pwm/src/pwm1_16bit.c"
  7952 ;; Parameters:    Size  Location     Type
  7953 ;;  InterruptHan    2    0[COMRAM] PTR FTN()void 
  7954 ;;		 -> PWM1_16BIT_Period_DefaultInterruptHandler(1), 
  7955 ;; Auto vars:     Size  Location     Type
  7956 ;;		None
  7957 ;; Return value:  Size  Location     Type
  7958 ;;                  1    wreg      void 
  7959 ;; Registers used:
  7960 ;;		wreg, status,2, status,0
  7961 ;; Tracked objects:
  7962 ;;		On entry : 0/0
  7963 ;;		On exit  : 0/0
  7964 ;;		Unchanged: 0/0
  7965 ;; Data sizes:     COMRAM   BANK5   BANK6   BANK7   BANK8   BANK9  BANK10  BANK11  BANK12
  7966 ;;      Params:         2       0       0       0       0       0       0       0       0
  7967 ;;      Locals:         0       0       0       0       0       0       0       0       0
  7968 ;;      Temps:          0       0       0       0       0       0       0       0       0
  7969 ;;      Totals:         2       0       0       0       0       0       0       0       0
  7970 ;;Total ram usage:        2 bytes
  7971 ;; Hardware stack levels used: 1
  7972 ;; This function calls:
  7973 ;;		Nothing
  7974 ;; This function is called by:
  7975 ;;		_PWM1_16BIT_Initialize
  7976 ;; This function uses a non-reentrant model
  7977 ;;
  7978                           
  7979                           	psect	text42
  7980   005276                     __ptext42:
  7981                           	callstack 0
  7982   005276                     _PWM1_16BIT_Period_SetInterruptHandler:
  7983                           	callstack 124
  7984   005276                     
  7985                           ;mcc_generated_files/pwm/src/pwm1_16bit.c: 199: void PWM1_16BIT_Period_SetInterruptHandl
      +                          er(void (* InterruptHandler)(void));mcc_generated_files/pwm/src/pwm1_16bit.c: 200: {;mcc
      +                          _generated_files/pwm/src/pwm1_16bit.c: 201:     PWM1_16BIT_Period_InterruptHandler = Int
      +                          erruptHandler;
  7986   005276  C501  F5F9         	movff	PWM1_16BIT_Period_SetInterruptHandler@InterruptHandler,_PWM1_16BIT_Period_Interru
      +                          ptHandler
  7987   00527A  C502  F5FA         	movff	PWM1_16BIT_Period_SetInterruptHandler@InterruptHandler+1,_PWM1_16BIT_Period_Inter
      +                          ruptHandler+1
  7988   00527E  0012               	return		;funcret
  7989   005280                     __end_of_PWM1_16BIT_Period_SetInterruptHandler:
  7990                           	callstack 0
  7991                           
  7992 ;; *************** function _PIN_MANAGER_Initialize *****************
  7993 ;; Defined at:
  7994 ;;		line 38 in file "mcc_generated_files/system/src/pins.c"
  7995 ;; Parameters:    Size  Location     Type
  7996 ;;		None
  7997 ;; Auto vars:     Size  Location     Type
  7998 ;;		None
  7999 ;; Return value:  Size  Location     Type
  8000 ;;                  1    wreg      void 
  8001 ;; Registers used:
  8002 ;;		wreg, status,2
  8003 ;; Tracked objects:
  8004 ;;		On entry : 0/0
  8005 ;;		On exit  : 0/0
  8006 ;;		Unchanged: 0/0
  8007 ;; Data sizes:     COMRAM   BANK5   BANK6   BANK7   BANK8   BANK9  BANK10  BANK11  BANK12
  8008 ;;      Params:         0       0       0       0       0       0       0       0       0
  8009 ;;      Locals:         0       0       0       0       0       0       0       0       0
  8010 ;;      Temps:          0       0       0       0       0       0       0       0       0
  8011 ;;      Totals:         0       0       0       0       0       0       0       0       0
  8012 ;;Total ram usage:        0 bytes
  8013 ;; Hardware stack levels used: 1
  8014 ;; This function calls:
  8015 ;;		Nothing
  8016 ;; This function is called by:
  8017 ;;		_SYSTEM_Initialize
  8018 ;; This function uses a non-reentrant model
  8019 ;;
  8020                           
  8021                           	psect	text43
  8022   0056A8                     __ptext43:
  8023                           	callstack 0
  8024   0056A8                     _PIN_MANAGER_Initialize:
  8025                           	callstack 125
  8026   0056A8                     
  8027                           ;mcc_generated_files/system/src/pins.c: 43:     LATA = 0x0;
  8028   0056A8  0E00               	movlw	0
  8029   0056AA  6EBE               	movwf	190,c	;volatile
  8030                           
  8031                           ;mcc_generated_files/system/src/pins.c: 44:     LATB = 0x0;
  8032   0056AC  0E00               	movlw	0
  8033   0056AE  6EBF               	movwf	191,c	;volatile
  8034                           
  8035                           ;mcc_generated_files/system/src/pins.c: 45:     LATC = 0x0;
  8036   0056B0  0E00               	movlw	0
  8037   0056B2  6EC0               	movwf	192,c	;volatile
  8038                           
  8039                           ;mcc_generated_files/system/src/pins.c: 49:     ODCONA = 0x0;
  8040   0056B4  0E00               	movlw	0
  8041   0056B6  0104               	movlb	4	; () banked
  8042   0056B8  6F02               	movwf	2,b	;volatile
  8043                           
  8044                           ;mcc_generated_files/system/src/pins.c: 50:     ODCONB = 0x0;
  8045   0056BA  0E00               	movlw	0
  8046   0056BC  6F0A               	movwf	10,b	;volatile
  8047                           
  8048                           ;mcc_generated_files/system/src/pins.c: 51:     ODCONC = 0x0;
  8049   0056BE  0E00               	movlw	0
  8050   0056C0  6F12               	movwf	18,b	;volatile
  8051                           
  8052                           ;mcc_generated_files/system/src/pins.c: 56:     TRISA = 0xB;
  8053   0056C2  0E0B               	movlw	11
  8054   0056C4  6EC6               	movwf	198,c	;volatile
  8055                           
  8056                           ;mcc_generated_files/system/src/pins.c: 57:     TRISB = 0x60;
  8057   0056C6  0E60               	movlw	96
  8058   0056C8  6EC7               	movwf	199,c	;volatile
  8059                           
  8060                           ;mcc_generated_files/system/src/pins.c: 58:     TRISC = 0xDB;
  8061   0056CA  0EDB               	movlw	219
  8062   0056CC  6EC8               	movwf	200,c	;volatile
  8063                           
  8064                           ;mcc_generated_files/system/src/pins.c: 63:     ANSELA = 0x37;
  8065   0056CE  0E37               	movlw	55
  8066   0056D0  6F00               	movwf	0,b	;volatile
  8067                           
  8068                           ;mcc_generated_files/system/src/pins.c: 64:     ANSELB = 0x0;
  8069   0056D2  0E00               	movlw	0
  8070   0056D4  6F08               	movwf	8,b	;volatile
  8071                           
  8072                           ;mcc_generated_files/system/src/pins.c: 65:     ANSELC = 0xF8;
  8073   0056D6  0EF8               	movlw	248
  8074   0056D8  6F10               	movwf	16,b	;volatile
  8075                           
  8076                           ;mcc_generated_files/system/src/pins.c: 70:     WPUA = 0x0;
  8077   0056DA  0E00               	movlw	0
  8078   0056DC  6F01               	movwf	1,b	;volatile
  8079                           
  8080                           ;mcc_generated_files/system/src/pins.c: 71:     WPUB = 0x0;
  8081   0056DE  0E00               	movlw	0
  8082   0056E0  6F09               	movwf	9,b	;volatile
  8083                           
  8084                           ;mcc_generated_files/system/src/pins.c: 72:     WPUC = 0x0;
  8085   0056E2  0E00               	movlw	0
  8086   0056E4  6F11               	movwf	17,b	;volatile
  8087                           
  8088                           ;mcc_generated_files/system/src/pins.c: 78:     SLRCONA = 0x37;
  8089   0056E6  0E37               	movlw	55
  8090   0056E8  6F03               	movwf	3,b	;volatile
  8091                           
  8092                           ;mcc_generated_files/system/src/pins.c: 79:     SLRCONB = 0xF0;
  8093   0056EA  0EF0               	movlw	240
  8094   0056EC  6F0B               	movwf	11,b	;volatile
  8095   0056EE                     
  8096                           ; BSR set to: 4
  8097                           ;mcc_generated_files/system/src/pins.c: 80:     SLRCONC = 0xFF;
  8098   0056EE  6913               	setf	19,b	;volatile
  8099                           
  8100                           ;mcc_generated_files/system/src/pins.c: 85:     INLVLA = 0x3F;
  8101   0056F0  0E3F               	movlw	63
  8102   0056F2  6F04               	movwf	4,b	;volatile
  8103                           
  8104                           ;mcc_generated_files/system/src/pins.c: 86:     INLVLB = 0xF0;
  8105   0056F4  0EF0               	movlw	240
  8106   0056F6  6F0C               	movwf	12,b	;volatile
  8107   0056F8                     
  8108                           ; BSR set to: 4
  8109                           ;mcc_generated_files/system/src/pins.c: 87:     INLVLC = 0xFF;
  8110   0056F8  6914               	setf	20,b	;volatile
  8111                           
  8112                           ;mcc_generated_files/system/src/pins.c: 92:     RB4I2C = 0x0;
  8113   0056FA  0E00               	movlw	0
  8114   0056FC  0102               	movlb	2	; () banked
  8115   0056FE  6F87               	movwf	135,b	;volatile
  8116                           
  8117                           ;mcc_generated_files/system/src/pins.c: 93:     RB6I2C = 0x0;
  8118   005700  0E00               	movlw	0
  8119   005702  6F86               	movwf	134,b	;volatile
  8120                           
  8121                           ;mcc_generated_files/system/src/pins.c: 97:     SPI1SDIPPS = 0xE;
  8122   005704  0E0E               	movlw	14
  8123   005706  6F6B               	movwf	107,b	;volatile
  8124                           
  8125                           ;mcc_generated_files/system/src/pins.c: 98:     RB4PPS = 0x1C;
  8126   005708  0E1C               	movlw	28
  8127   00570A  6F0D               	movwf	13,b	;volatile
  8128                           
  8129                           ;mcc_generated_files/system/src/pins.c: 99:     RA4PPS = 0x0C;
  8130   00570C  0E0C               	movlw	12
  8131   00570E  6F05               	movwf	5,b	;volatile
  8132                           
  8133                           ;mcc_generated_files/system/src/pins.c: 100:     RA5PPS = 0x0D;
  8134   005710  0E0D               	movlw	13
  8135   005712  6F06               	movwf	6,b	;volatile
  8136                           
  8137                           ;mcc_generated_files/system/src/pins.c: 101:     RC5PPS = 0x0A;
  8138   005714  0E0A               	movlw	10
  8139   005716  6F16               	movwf	22,b	;volatile
  8140                           
  8141                           ;mcc_generated_files/system/src/pins.c: 102:     SPI1SCKPPS = 0xD;
  8142   005718  0E0D               	movlw	13
  8143   00571A  6F6A               	movwf	106,b	;volatile
  8144                           
  8145                           ;mcc_generated_files/system/src/pins.c: 103:     RB5PPS = 0x1B;
  8146   00571C  0E1B               	movlw	27
  8147   00571E  6F0E               	movwf	14,b	;volatile
  8148                           
  8149                           ;mcc_generated_files/system/src/pins.c: 108:     IOCAP = 0x0;
  8150   005720  0E00               	movlw	0
  8151   005722  0104               	movlb	4	; () banked
  8152   005724  6F05               	movwf	5,b	;volatile
  8153                           
  8154                           ;mcc_generated_files/system/src/pins.c: 109:     IOCAN = 0x0;
  8155   005726  0E00               	movlw	0
  8156   005728  6F06               	movwf	6,b	;volatile
  8157                           
  8158                           ;mcc_generated_files/system/src/pins.c: 110:     IOCAF = 0x0;
  8159   00572A  0E00               	movlw	0
  8160   00572C  6F07               	movwf	7,b	;volatile
  8161                           
  8162                           ;mcc_generated_files/system/src/pins.c: 111:     IOCBP = 0x0;
  8163   00572E  0E00               	movlw	0
  8164   005730  6F0D               	movwf	13,b	;volatile
  8165                           
  8166                           ;mcc_generated_files/system/src/pins.c: 112:     IOCBN = 0x0;
  8167   005732  0E00               	movlw	0
  8168   005734  6F0E               	movwf	14,b	;volatile
  8169                           
  8170                           ;mcc_generated_files/system/src/pins.c: 113:     IOCBF = 0x0;
  8171   005736  0E00               	movlw	0
  8172   005738  6F0F               	movwf	15,b	;volatile
  8173                           
  8174                           ;mcc_generated_files/system/src/pins.c: 114:     IOCCP = 0x0;
  8175   00573A  0E00               	movlw	0
  8176   00573C  6F15               	movwf	21,b	;volatile
  8177                           
  8178                           ;mcc_generated_files/system/src/pins.c: 115:     IOCCN = 0x0;
  8179   00573E  0E00               	movlw	0
  8180   005740  6F16               	movwf	22,b	;volatile
  8181                           
  8182                           ;mcc_generated_files/system/src/pins.c: 116:     IOCCF = 0x0;
  8183   005742  0E00               	movlw	0
  8184   005744  6F17               	movwf	23,b	;volatile
  8185   005746                     
  8186                           ; BSR set to: 4
  8187   005746  0012               	return		;funcret
  8188   005748                     __end_of_PIN_MANAGER_Initialize:
  8189                           	callstack 0
  8190                           
  8191 ;; *************** function _INTERRUPT_Initialize *****************
  8192 ;; Defined at:
  8193 ;;		line 42 in file "mcc_generated_files/system/src/interrupt.c"
  8194 ;; Parameters:    Size  Location     Type
  8195 ;;		None
  8196 ;; Auto vars:     Size  Location     Type
  8197 ;;		None
  8198 ;; Return value:  Size  Location     Type
  8199 ;;                  1    wreg      void 
  8200 ;; Registers used:
  8201 ;;		wreg, status,2, status,0, cstack
  8202 ;; Tracked objects:
  8203 ;;		On entry : 0/0
  8204 ;;		On exit  : 0/0
  8205 ;;		Unchanged: 0/0
  8206 ;; Data sizes:     COMRAM   BANK5   BANK6   BANK7   BANK8   BANK9  BANK10  BANK11  BANK12
  8207 ;;      Params:         0       0       0       0       0       0       0       0       0
  8208 ;;      Locals:         0       0       0       0       0       0       0       0       0
  8209 ;;      Temps:          0       0       0       0       0       0       0       0       0
  8210 ;;      Totals:         0       0       0       0       0       0       0       0       0
  8211 ;;Total ram usage:        0 bytes
  8212 ;; Hardware stack levels used: 1
  8213 ;; Hardware stack levels required when called: 1
  8214 ;; This function calls:
  8215 ;;		_INT0_SetInterruptHandler
  8216 ;;		_INT1_SetInterruptHandler
  8217 ;;		_INT2_SetInterruptHandler
  8218 ;; This function is called by:
  8219 ;;		_SYSTEM_Initialize
  8220 ;; This function uses a non-reentrant model
  8221 ;;
  8222                           
  8223                           	psect	text44
  8224   005420                     __ptext44:
  8225                           	callstack 0
  8226   005420                     _INTERRUPT_Initialize:
  8227                           	callstack 124
  8228   005420                     
  8229                           ;mcc_generated_files/system/src/interrupt.c: 45:     INTCON0bits.IPEN = 0;
  8230   005420  9AD6               	bcf	214,5,c	;volatile
  8231                           
  8232                           ;mcc_generated_files/system/src/interrupt.c: 49:     (PIR1bits.INT0IF = 0);
  8233   005422  90B4               	bcf	180,0,c	;volatile
  8234                           
  8235                           ;mcc_generated_files/system/src/interrupt.c: 50:     (INTCON0bits.INT0EDG = 1);
  8236   005424  80D6               	bsf	214,0,c	;volatile
  8237   005426                     
  8238                           ;mcc_generated_files/system/src/interrupt.c: 52:     INT0_SetInterruptHandler(INT0_Defau
      +                          ltInterruptHandler);
  8239   005426  0E00               	movlw	0
  8240   005428  6E01               	movwf	INT0_SetInterruptHandler@InterruptHandler^(0+1280),c
  8241   00542A  0E00               	movlw	0
  8242   00542C  6E02               	movwf	(INT0_SetInterruptHandler@InterruptHandler+1)^(0+1280),c
  8243   00542E  EC2C  F029         	call	_INT0_SetInterruptHandler	;wreg free
  8244   005432                     
  8245                           ;mcc_generated_files/system/src/interrupt.c: 57:     (PIR6bits.INT1IF = 0);
  8246   005432  90B9               	bcf	185,0,c	;volatile
  8247   005434                     
  8248                           ;mcc_generated_files/system/src/interrupt.c: 58:     (INTCON0bits.INT1EDG = 1);
  8249   005434  82D6               	bsf	214,1,c	;volatile
  8250                           
  8251                           ;mcc_generated_files/system/src/interrupt.c: 60:     INT1_SetInterruptHandler(INT1_Defau
      +                          ltInterruptHandler);
  8252   005436  0E00               	movlw	0
  8253   005438  6E01               	movwf	INT1_SetInterruptHandler@InterruptHandler^(0+1280),c
  8254   00543A  0E00               	movlw	0
  8255   00543C  6E02               	movwf	(INT1_SetInterruptHandler@InterruptHandler+1)^(0+1280),c
  8256   00543E  EC31  F029         	call	_INT1_SetInterruptHandler	;wreg free
  8257   005442                     
  8258                           ;mcc_generated_files/system/src/interrupt.c: 65:     (PIR10bits.INT2IF = 0);
  8259   005442  90BD               	bcf	189,0,c	;volatile
  8260   005444                     
  8261                           ;mcc_generated_files/system/src/interrupt.c: 66:     (INTCON0bits.INT2EDG = 1);
  8262   005444  84D6               	bsf	214,2,c	;volatile
  8263                           
  8264                           ;mcc_generated_files/system/src/interrupt.c: 68:     INT2_SetInterruptHandler(INT2_Defau
      +                          ltInterruptHandler);
  8265   005446  0E00               	movlw	0
  8266   005448  6E01               	movwf	INT2_SetInterruptHandler@InterruptHandler^(0+1280),c
  8267   00544A  0E00               	movlw	0
  8268   00544C  6E02               	movwf	(INT2_SetInterruptHandler@InterruptHandler+1)^(0+1280),c
  8269   00544E  EC36  F029         	call	_INT2_SetInterruptHandler	;wreg free
  8270   005452  0012               	return		;funcret
  8271   005454                     __end_of_INTERRUPT_Initialize:
  8272                           	callstack 0
  8273                           
  8274 ;; *************** function _INT2_SetInterruptHandler *****************
  8275 ;; Defined at:
  8276 ;;		line 144 in file "mcc_generated_files/system/src/interrupt.c"
  8277 ;; Parameters:    Size  Location     Type
  8278 ;;  InterruptHan    2    0[COMRAM] PTR FTN()void 
  8279 ;;		 -> INT2_DefaultInterruptHandler(1), 
  8280 ;; Auto vars:     Size  Location     Type
  8281 ;;		None
  8282 ;; Return value:  Size  Location     Type
  8283 ;;                  1    wreg      void 
  8284 ;; Registers used:
  8285 ;;		wreg, status,2, status,0
  8286 ;; Tracked objects:
  8287 ;;		On entry : 0/0
  8288 ;;		On exit  : 0/0
  8289 ;;		Unchanged: 0/0
  8290 ;; Data sizes:     COMRAM   BANK5   BANK6   BANK7   BANK8   BANK9  BANK10  BANK11  BANK12
  8291 ;;      Params:         2       0       0       0       0       0       0       0       0
  8292 ;;      Locals:         0       0       0       0       0       0       0       0       0
  8293 ;;      Temps:          0       0       0       0       0       0       0       0       0
  8294 ;;      Totals:         2       0       0       0       0       0       0       0       0
  8295 ;;Total ram usage:        2 bytes
  8296 ;; Hardware stack levels used: 1
  8297 ;; This function calls:
  8298 ;;		Nothing
  8299 ;; This function is called by:
  8300 ;;		_INTERRUPT_Initialize
  8301 ;; This function uses a non-reentrant model
  8302 ;;
  8303                           
  8304                           	psect	text45
  8305   00526C                     __ptext45:
  8306                           	callstack 0
  8307   00526C                     _INT2_SetInterruptHandler:
  8308                           	callstack 124
  8309   00526C                     
  8310                           ;mcc_generated_files/system/src/interrupt.c: 145:     INT2_InterruptHandler = InterruptH
      +                          andler;
  8311   00526C  C501  F68A         	movff	INT2_SetInterruptHandler@InterruptHandler,_INT2_InterruptHandler
  8312   005270  C502  F68B         	movff	INT2_SetInterruptHandler@InterruptHandler+1,_INT2_InterruptHandler+1
  8313   005274  0012               	return		;funcret
  8314   005276                     __end_of_INT2_SetInterruptHandler:
  8315                           	callstack 0
  8316                           
  8317 ;; *************** function _INT1_SetInterruptHandler *****************
  8318 ;; Defined at:
  8319 ;;		line 118 in file "mcc_generated_files/system/src/interrupt.c"
  8320 ;; Parameters:    Size  Location     Type
  8321 ;;  InterruptHan    2    0[COMRAM] PTR FTN()void 
  8322 ;;		 -> INT1_DefaultInterruptHandler(1), 
  8323 ;; Auto vars:     Size  Location     Type
  8324 ;;		None
  8325 ;; Return value:  Size  Location     Type
  8326 ;;                  1    wreg      void 
  8327 ;; Registers used:
  8328 ;;		wreg, status,2, status,0
  8329 ;; Tracked objects:
  8330 ;;		On entry : 0/0
  8331 ;;		On exit  : 0/0
  8332 ;;		Unchanged: 0/0
  8333 ;; Data sizes:     COMRAM   BANK5   BANK6   BANK7   BANK8   BANK9  BANK10  BANK11  BANK12
  8334 ;;      Params:         2       0       0       0       0       0       0       0       0
  8335 ;;      Locals:         0       0       0       0       0       0       0       0       0
  8336 ;;      Temps:          0       0       0       0       0       0       0       0       0
  8337 ;;      Totals:         2       0       0       0       0       0       0       0       0
  8338 ;;Total ram usage:        2 bytes
  8339 ;; Hardware stack levels used: 1
  8340 ;; This function calls:
  8341 ;;		Nothing
  8342 ;; This function is called by:
  8343 ;;		_INTERRUPT_Initialize
  8344 ;; This function uses a non-reentrant model
  8345 ;;
  8346                           
  8347                           	psect	text46
  8348   005262                     __ptext46:
  8349                           	callstack 0
  8350   005262                     _INT1_SetInterruptHandler:
  8351                           	callstack 124
  8352   005262                     
  8353                           ;mcc_generated_files/system/src/interrupt.c: 119:     INT1_InterruptHandler = InterruptH
      +                          andler;
  8354   005262  C501  F68C         	movff	INT1_SetInterruptHandler@InterruptHandler,_INT1_InterruptHandler
  8355   005266  C502  F68D         	movff	INT1_SetInterruptHandler@InterruptHandler+1,_INT1_InterruptHandler+1
  8356   00526A  0012               	return		;funcret
  8357   00526C                     __end_of_INT1_SetInterruptHandler:
  8358                           	callstack 0
  8359                           
  8360 ;; *************** function _INT0_SetInterruptHandler *****************
  8361 ;; Defined at:
  8362 ;;		line 92 in file "mcc_generated_files/system/src/interrupt.c"
  8363 ;; Parameters:    Size  Location     Type
  8364 ;;  InterruptHan    2    0[COMRAM] PTR FTN()void 
  8365 ;;		 -> INT0_DefaultInterruptHandler(1), 
  8366 ;; Auto vars:     Size  Location     Type
  8367 ;;		None
  8368 ;; Return value:  Size  Location     Type
  8369 ;;                  1    wreg      void 
  8370 ;; Registers used:
  8371 ;;		wreg, status,2, status,0
  8372 ;; Tracked objects:
  8373 ;;		On entry : 0/0
  8374 ;;		On exit  : 0/0
  8375 ;;		Unchanged: 0/0
  8376 ;; Data sizes:     COMRAM   BANK5   BANK6   BANK7   BANK8   BANK9  BANK10  BANK11  BANK12
  8377 ;;      Params:         2       0       0       0       0       0       0       0       0
  8378 ;;      Locals:         0       0       0       0       0       0       0       0       0
  8379 ;;      Temps:          0       0       0       0       0       0       0       0       0
  8380 ;;      Totals:         2       0       0       0       0       0       0       0       0
  8381 ;;Total ram usage:        2 bytes
  8382 ;; Hardware stack levels used: 1
  8383 ;; This function calls:
  8384 ;;		Nothing
  8385 ;; This function is called by:
  8386 ;;		_INTERRUPT_Initialize
  8387 ;; This function uses a non-reentrant model
  8388 ;;
  8389                           
  8390                           	psect	text47
  8391   005258                     __ptext47:
  8392                           	callstack 0
  8393   005258                     _INT0_SetInterruptHandler:
  8394                           	callstack 124
  8395   005258                     
  8396                           ;mcc_generated_files/system/src/interrupt.c: 93:     INT0_InterruptHandler = InterruptHa
      +                          ndler;
  8397   005258  C501  F68E         	movff	INT0_SetInterruptHandler@InterruptHandler,_INT0_InterruptHandler
  8398   00525C  C502  F68F         	movff	INT0_SetInterruptHandler@InterruptHandler+1,_INT0_InterruptHandler+1
  8399   005260  0012               	return		;funcret
  8400   005262                     __end_of_INT0_SetInterruptHandler:
  8401                           	callstack 0
  8402                           
  8403 ;; *************** function _DAC1_Initialize *****************
  8404 ;; Defined at:
  8405 ;;		line 44 in file "mcc_generated_files/dac/src/dac1.c"
  8406 ;; Parameters:    Size  Location     Type
  8407 ;;		None
  8408 ;; Auto vars:     Size  Location     Type
  8409 ;;		None
  8410 ;; Return value:  Size  Location     Type
  8411 ;;                  1    wreg      void 
  8412 ;; Registers used:
  8413 ;;		wreg, status,2
  8414 ;; Tracked objects:
  8415 ;;		On entry : 0/0
  8416 ;;		On exit  : 0/0
  8417 ;;		Unchanged: 0/0
  8418 ;; Data sizes:     COMRAM   BANK5   BANK6   BANK7   BANK8   BANK9  BANK10  BANK11  BANK12
  8419 ;;      Params:         0       0       0       0       0       0       0       0       0
  8420 ;;      Locals:         0       0       0       0       0       0       0       0       0
  8421 ;;      Temps:          0       0       0       0       0       0       0       0       0
  8422 ;;      Totals:         0       0       0       0       0       0       0       0       0
  8423 ;;Total ram usage:        0 bytes
  8424 ;; Hardware stack levels used: 1
  8425 ;; This function calls:
  8426 ;;		Nothing
  8427 ;; This function is called by:
  8428 ;;		_SYSTEM_Initialize
  8429 ;;		_main
  8430 ;; This function uses a non-reentrant model
  8431 ;;
  8432                           
  8433                           	psect	text48
  8434   0052B2                     __ptext48:
  8435                           	callstack 0
  8436   0052B2                     _DAC1_Initialize:
  8437                           	callstack 125
  8438   0052B2                     
  8439                           ;mcc_generated_files/dac/src/dac1.c: 47:     DAC1CON = 160;
  8440   0052B2  0EA0               	movlw	160
  8441   0052B4  0100               	movlb	0	; () banked
  8442   0052B6  6F7F               	movwf	127,b	;volatile
  8443                           
  8444                           ;mcc_generated_files/dac/src/dac1.c: 50:     DAC1DATL = 51;
  8445   0052B8  0E33               	movlw	51
  8446   0052BA  6F7D               	movwf	125,b	;volatile
  8447   0052BC                     
  8448                           ; BSR set to: 0
  8449   0052BC  0012               	return		;funcret
  8450   0052BE                     __end_of_DAC1_Initialize:
  8451                           	callstack 0
  8452                           
  8453 ;; *************** function _CLOCK_Initialize *****************
  8454 ;; Defined at:
  8455 ;;		line 39 in file "mcc_generated_files/system/src/clock.c"
  8456 ;; Parameters:    Size  Location     Type
  8457 ;;		None
  8458 ;; Auto vars:     Size  Location     Type
  8459 ;;		None
  8460 ;; Return value:  Size  Location     Type
  8461 ;;                  1    wreg      void 
  8462 ;; Registers used:
  8463 ;;		wreg, status,2
  8464 ;; Tracked objects:
  8465 ;;		On entry : 0/0
  8466 ;;		On exit  : 0/0
  8467 ;;		Unchanged: 0/0
  8468 ;; Data sizes:     COMRAM   BANK5   BANK6   BANK7   BANK8   BANK9  BANK10  BANK11  BANK12
  8469 ;;      Params:         0       0       0       0       0       0       0       0       0
  8470 ;;      Locals:         0       0       0       0       0       0       0       0       0
  8471 ;;      Temps:          0       0       0       0       0       0       0       0       0
  8472 ;;      Totals:         0       0       0       0       0       0       0       0       0
  8473 ;;Total ram usage:        0 bytes
  8474 ;; Hardware stack levels used: 1
  8475 ;; This function calls:
  8476 ;;		Nothing
  8477 ;; This function is called by:
  8478 ;;		_SYSTEM_Initialize
  8479 ;; This function uses a non-reentrant model
  8480 ;;
  8481                           
  8482                           	psect	text49
  8483   00533E                     __ptext49:
  8484                           	callstack 0
  8485   00533E                     _CLOCK_Initialize:
  8486                           	callstack 125
  8487   00533E                     
  8488                           ;mcc_generated_files/system/src/clock.c: 42:     OSCCON1 = (0 << 0x0)
  8489   00533E  0E60               	movlw	96
  8490   005340  0100               	movlb	0	; () banked
  8491   005342  6FAD               	movwf	173,b	;volatile
  8492                           
  8493                           ;mcc_generated_files/system/src/clock.c: 44:     OSCCON3 = (0 << 0x6)
  8494   005344  0E00               	movlw	0
  8495   005346  6FAF               	movwf	175,b	;volatile
  8496                           
  8497                           ;mcc_generated_files/system/src/clock.c: 46:     OSCEN = (0 << 0x7)
  8498   005348  0E00               	movlw	0
  8499   00534A  6FB3               	movwf	179,b	;volatile
  8500                           
  8501                           ;mcc_generated_files/system/src/clock.c: 53:     OSCFRQ = (8 << 0x0);
  8502   00534C  0E08               	movlw	8
  8503   00534E  6FB1               	movwf	177,b	;volatile
  8504                           
  8505                           ;mcc_generated_files/system/src/clock.c: 54:     OSCTUNE = (0 << 0x0);
  8506   005350  0E00               	movlw	0
  8507   005352  6FB0               	movwf	176,b	;volatile
  8508                           
  8509                           ;mcc_generated_files/system/src/clock.c: 55:     ACTCON = (0 << 0x7)
  8510   005354  0E00               	movlw	0
  8511   005356  6FAC               	movwf	172,b	;volatile
  8512   005358                     
  8513                           ; BSR set to: 0
  8514   005358  0012               	return		;funcret
  8515   00535A                     __end_of_CLOCK_Initialize:
  8516                           	callstack 0
  8517                           
  8518 ;; *************** function _DAC1_SetOutput *****************
  8519 ;; Defined at:
  8520 ;;		line 53 in file "mcc_generated_files/dac/src/dac1.c"
  8521 ;; Parameters:    Size  Location     Type
  8522 ;;  inputData       1    wreg     unsigned char 
  8523 ;; Auto vars:     Size  Location     Type
  8524 ;;  inputData       1    0[COMRAM] unsigned char 
  8525 ;; Return value:  Size  Location     Type
  8526 ;;                  1    wreg      void 
  8527 ;; Registers used:
  8528 ;;		wreg
  8529 ;; Tracked objects:
  8530 ;;		On entry : 0/0
  8531 ;;		On exit  : 0/0
  8532 ;;		Unchanged: 0/0
  8533 ;; Data sizes:     COMRAM   BANK5   BANK6   BANK7   BANK8   BANK9  BANK10  BANK11  BANK12
  8534 ;;      Params:         0       0       0       0       0       0       0       0       0
  8535 ;;      Locals:         1       0       0       0       0       0       0       0       0
  8536 ;;      Temps:          0       0       0       0       0       0       0       0       0
  8537 ;;      Totals:         1       0       0       0       0       0       0       0       0
  8538 ;;Total ram usage:        1 bytes
  8539 ;; Hardware stack levels used: 1
  8540 ;; This function calls:
  8541 ;;		Nothing
  8542 ;; This function is called by:
  8543 ;;		_main
  8544 ;; This function uses a non-reentrant model
  8545 ;;
  8546                           
  8547                           	psect	text50
  8548   005250                     __ptext50:
  8549                           	callstack 0
  8550   005250                     _DAC1_SetOutput:
  8551                           	callstack 126
  8552                           
  8553                           ; BSR set to: 0
  8554                           ;incstack = 0
  8555                           ;DAC1_SetOutput@inputData stored from wreg
  8556   005250  6E01               	movwf	DAC1_SetOutput@inputData^(0+1280),c
  8557   005252                     
  8558                           ;mcc_generated_files/dac/src/dac1.c: 53: void DAC1_SetOutput(uint8_t inputData);mcc_gene
      +                          rated_files/dac/src/dac1.c: 54: {;mcc_generated_files/dac/src/dac1.c: 55:     DAC1DATL =
      +                           inputData;
  8559   005252  C501  F07D         	movff	DAC1_SetOutput@inputData,125	;volatile
  8560   005256  0012               	return		;funcret
  8561   005258                     __end_of_DAC1_SetOutput:
  8562                           	callstack 0
  8563                           
  8564                           	psect	rparam
  8565   000000                     
  8566                           	psect	config
  8567                           
  8568                           ;Config register CONFIG1 @ 0x300000
  8569                           ;	External Oscillator Selection
  8570                           ;	FEXTOSC = ECH, EC (external clock) above 8 MHz
  8571                           ;	Reset Oscillator Selection
  8572                           ;	RSTOSC = HFINTOSC_64MHZ, HFINTOSC with HFFRQ = 64 MHz and CDIV = 1:1
  8573   300000                     	org	3145728
  8574   300000  8F                 	db	143
  8575                           
  8576                           ;Config register CONFIG2 @ 0x300001
  8577                           ;	Clock out Enable bit
  8578                           ;	CLKOUTEN = OFF, CLKOUT function is disabled
  8579                           ;	PRLOCKED One-Way Set Enable bit
  8580                           ;	PR1WAY = ON, PRLOCKED bit can be cleared and set only once
  8581                           ;	Clock Switch Enable bit
  8582                           ;	CSWEN = ON, Writing to NOSC and NDIV is allowed
  8583                           ;	Fail-Safe Clock Monitor Enable bit
  8584                           ;	FCMEN = ON, Fail-Safe Clock Monitor enabled
  8585                           ;	Fail-Safe Clock Monitor - Primary XTAL Enable bit
  8586                           ;	FCMENP = ON, Fail-Safe Clock Monitor enabled; timer will flag FSCMP bit and OSFIF inte
      +                          rrupt on EXTOSC failure.
  8587                           ;	Fail-Safe Clock Monitor - Secondary XTAL Enable bit
  8588                           ;	FCMENS = ON, Fail-Safe Clock Monitor enabled; timer will flag FSCMP bit and OSFIF inte
      +                          rrupt on SOSC failure.
  8589   300001                     	org	3145729
  8590   300001  FF                 	db	255
  8591                           
  8592                           ;Config register CONFIG3 @ 0x300002
  8593                           ;	MCLR Enable bit
  8594                           ;	MCLRE = EXTMCLR, If LVP = 0, MCLR pin is MCLR; If LVP = 1, RE3 pin function is MCLR
  8595                           ;	Power-up timer selection bits
  8596                           ;	PWRTS = PWRT_OFF, PWRT is disabled
  8597                           ;	Multi-vector enable bit
  8598                           ;	MVECEN = OFF, Interrupt contoller does not use vector table to prioritze interrupts
  8599                           ;	IVTLOCK bit One-way set enable bit
  8600                           ;	IVT1WAY = ON, IVTLOCKED bit can be cleared and set only once
  8601                           ;	Low Power BOR Enable bit
  8602                           ;	LPBOREN = OFF, Low-Power BOR disabled
  8603                           ;	Brown-out Reset Enable bits
  8604                           ;	BOREN = SBORDIS, Brown-out Reset enabled , SBOREN bit is ignored
  8605   300002                     	org	3145730
  8606   300002  F7                 	db	247
  8607                           
  8608                           ;Config register CONFIG4 @ 0x300003
  8609                           ;	Brown-out Reset Voltage Selection bits
  8610                           ;	BORV = VBOR_1P9, Brown-out Reset Voltage (VBOR) set to 1.9V
  8611                           ;	ZCD Disable bit
  8612                           ;	ZCD = OFF, ZCD module is disabled. ZCD can be enabled by setting the ZCDSEN bit of ZCD
      +                          CON
  8613                           ;	PPSLOCK bit One-Way Set Enable bit
  8614                           ;	PPS1WAY = ON, PPSLOCKED bit can be cleared and set only once; PPS registers remain loc
      +                          ked after one clear/set cycle
  8615                           ;	Stack Full/Underflow Reset Enable bit
  8616                           ;	STVREN = ON, Stack full/underflow will cause Reset
  8617                           ;	Low Voltage Programming Enable bit
  8618                           ;	LVP = ON, Low voltage programming enabled. MCLR/VPP pin function is MCLR. MCLRE config
      +                          uration bit is ignored
  8619                           ;	Extended Instruction Set Enable bit
  8620                           ;	XINST = OFF, Extended Instruction Set and Indexed Addressing Mode disabled
  8621   300003                     	org	3145731
  8622   300003  FF                 	db	255
  8623                           
  8624                           ;Config register CONFIG5 @ 0x300004
  8625                           ;	WDT Period selection bits
  8626                           ;	WDTCPS = WDTCPS_31, Divider ratio 1:65536; software control of WDTPS
  8627                           ;	WDT operating mode
  8628                           ;	WDTE = OFF, WDT Disabled; SWDTEN is ignored
  8629   300004                     	org	3145732
  8630   300004  9F                 	db	159
  8631                           
  8632                           ;Config register CONFIG6 @ 0x300005
  8633                           ;	WDT Window Select bits
  8634                           ;	WDTCWS = WDTCWS_7, window always open (100%); software control; keyed access not requi
      +                          red
  8635                           ;	WDT input clock selector
  8636                           ;	WDTCCS = SC, Software Control
  8637   300005                     	org	3145733
  8638   300005  FF                 	db	255
  8639                           
  8640                           ;Config register CONFIG7 @ 0x300006
  8641                           ;	Boot Block Size selection bits
  8642                           ;	BBSIZE = BBSIZE_512, Boot Block size is 512 words
  8643                           ;	Boot Block enable bit
  8644                           ;	BBEN = OFF, Boot block disabled
  8645                           ;	Storage Area Flash enable bit
  8646                           ;	SAFEN = OFF, SAF disabled
  8647                           ;	Background Debugger
  8648                           ;	DEBUG = 0x1, unprogrammed default
  8649   300006                     	org	3145734
  8650   300006  FF                 	db	255
  8651                           
  8652                           ;Config register CONFIG8 @ 0x300007
  8653                           ;	Boot Block Write Protection bit
  8654                           ;	WRTB = OFF, Boot Block not Write protected
  8655                           ;	Configuration Register Write Protection bit
  8656                           ;	WRTC = OFF, Configuration registers not Write protected
  8657                           ;	Data EEPROM Write Protection bit
  8658                           ;	WRTD = OFF, Data EEPROM not Write protected
  8659                           ;	SAF Write protection bit
  8660                           ;	WRTSAF = OFF, SAF not Write Protected
  8661                           ;	Application Block write protection bit
  8662                           ;	WRTAPP = OFF, Application Block not write protected
  8663   300007                     	org	3145735
  8664   300007  FF                 	db	255
  8665                           
  8666                           ;Config register CONFIG9 @ 0x300008
  8667                           ;	PFM and Data EEPROM Code Protection bit
  8668                           ;	CP = OFF, PFM and Data EEPROM code protection disabled
  8669   300008                     	org	3145736
  8670   300008  FF                 	db	255
  8671                           tosu	equ	0x4FF
  8672                           tosh	equ	0x4FE
  8673                           tosl	equ	0x4FD
  8674                           stkptr	equ	0x4FC
  8675                           pclatu	equ	0x4FB
  8676                           pclath	equ	0x4FA
  8677                           pcl	equ	0x4F9
  8678                           tblptru	equ	0x4F8
  8679                           tblptrh	equ	0x4F7
  8680                           tblptrl	equ	0x4F6
  8681                           tablat	equ	0x4F5
  8682                           prodh	equ	0x4F4
  8683                           prodl	equ	0x4F3
  8684                           indf0	equ	0x4EF
  8685                           postinc0	equ	0x4EE
  8686                           postdec0	equ	0x4ED
  8687                           preinc0	equ	0x4EC
  8688                           plusw0	equ	0x4EB
  8689                           fsr0h	equ	0x4EA
  8690                           fsr0l	equ	0x4E9
  8691                           wreg	equ	0x4E8
  8692                           indf1	equ	0x4E7
  8693                           postinc1	equ	0x4E6
  8694                           postdec1	equ	0x4E5
  8695                           preinc1	equ	0x4E4
  8696                           plusw1	equ	0x4E3
  8697                           fsr1h	equ	0x4E2
  8698                           fsr1l	equ	0x4E1
  8699                           bsr	equ	0x4E0
  8700                           indf2	equ	0x4DF
  8701                           postinc2	equ	0x4DE
  8702                           postdec2	equ	0x4DD
  8703                           preinc2	equ	0x4DC
  8704                           plusw2	equ	0x4DB
  8705                           fsr2h	equ	0x4DA
  8706                           fsr2l	equ	0x4D9
  8707                           status	equ	0x4D8

Data Sizes:
    Strings     205
    Constant    106
    Data        4
    BSS         152
    Persistent  18
    Stack       0

Auto Spaces:
    Space          Size  Autos    Used
    COMRAM           95     92      94
    BANK5           160    139     159
    BANK6           256      0     152
    BANK7           256      0       0
    BANK8           256      0       0
    BANK9           256      0       0
    BANK10          256      0       0
    BANK11          256      0       0
    BANK12          256      0       0

Pointer List with Targets:

    __assert_fail@expr	PTR const unsigned char  size(2) Largest target is 14
		 -> STR_10(CODE[9]), STR_16(CODE[14]), STR_22(CODE[8]), STR_28(CODE[14]), 
		 -> STR_34(CODE[8]), STR_4(CODE[14]), STR_40(CODE[14]), STR_46(CODE[10]), 
		 -> STR_52(CODE[10]), 

    __assert_fail@file	PTR const unsigned char  size(2) Largest target is 17
		 -> STR_11(CODE[17]), STR_17(CODE[17]), STR_23(CODE[17]), STR_29(CODE[17]), 
		 -> STR_35(CODE[17]), STR_41(CODE[17]), STR_47(CODE[17]), STR_5(CODE[17]), 
		 -> STR_53(CODE[17]), 

    __assert_fail@func	PTR const unsigned char  size(2) Largest target is 33
		 -> STR_12(CODE[18]), STR_18(CODE[26]), STR_24(CODE[26]), STR_30(CODE[25]), 
		 -> STR_36(CODE[25]), STR_42(CODE[33]), STR_48(CODE[33]), STR_54(CODE[33]), 
		 -> STR_6(CODE[18]), 

    fputc@fp	PTR struct _IO_FILE size(2) Largest target is 0
		 -> NULL(NULL[0]), 

    fputc@fp$.$buffer	PTR unsigned char  size(2) Largest target is 0

    fputc@fp$.$source	PTR const unsigned char  size(2) Largest target is 0

    funcs	PTR FTN()void [3] size(2) Largest target is 0

    __funcs_on_exit@func	PTR FTN()void  size(2) Largest target is 0

    INT0_InterruptHandler	PTR FTN()void  size(2) Largest target is 1
		 -> INT0_DefaultInterruptHandler(), NULL(), 

    INT0_SetInterruptHandler@InterruptHandler	PTR FTN()void  size(2) Largest target is 1
		 -> INT0_DefaultInterruptHandler(), 

    INT1_InterruptHandler	PTR FTN()void  size(2) Largest target is 1
		 -> INT1_DefaultInterruptHandler(), NULL(), 

    INT1_SetInterruptHandler@InterruptHandler	PTR FTN()void  size(2) Largest target is 1
		 -> INT1_DefaultInterruptHandler(), 

    INT2_InterruptHandler	PTR FTN()void  size(2) Largest target is 1
		 -> INT2_DefaultInterruptHandler(), NULL(), 

    INT2_SetInterruptHandler@InterruptHandler	PTR FTN()void  size(2) Largest target is 1
		 -> INT2_DefaultInterruptHandler(), 

    NULL$0	PTR FTN()void  size(2) Largest target is 0

    printf@ap	PTR void [1] size(2) Largest target is 2
		 -> ?_printf(COMRAM[2]), 

    printf@fmt	PTR const unsigned char  size(2) Largest target is 35
		 -> STR_55(CODE[35]), 

    PWM1_16BIT_Period_InterruptHandler	PTR FTN()void  size(2) Largest target is 1
		 -> PWM1_16BIT_Period_DefaultInterruptHandler(), NULL(), 

    PWM1_16BIT_Period_SetInterruptHandler@InterruptHandler	PTR FTN()void  size(2) Largest target is 1
		 -> PWM1_16BIT_Period_DefaultInterruptHandler(), 

    PWM1_16BIT_Slice1Output1_InterruptHandler	PTR FTN()void  size(2) Largest target is 1
		 -> PWM1_16BIT_Slice1Output1_DefaultInterruptHandler(), NULL(), 

    PWM1_16BIT_Slice1Output1_SetInterruptHandler@InterruptHandler	PTR FTN()void  size(2) Largest target is 1
		 -> PWM1_16BIT_Slice1Output1_DefaultInterruptHandler(), 

    PWM1_16BIT_Slice1Output2_InterruptHandler	PTR FTN()void  size(2) Largest target is 1
		 -> PWM1_16BIT_Slice1Output2_DefaultInterruptHandler(), NULL(), 

    PWM1_16BIT_Slice1Output2_SetInterruptHandler@InterruptHandler	PTR FTN()void  size(2) Largest target is 1
		 -> PWM1_16BIT_Slice1Output2_DefaultInterruptHandler(), 

    PWM2_16BIT_Period_InterruptHandler	PTR FTN()void  size(2) Largest target is 1
		 -> PWM2_16BIT_Period_DefaultInterruptHandler(), NULL(), 

    PWM2_16BIT_Period_SetInterruptHandler@InterruptHandler	PTR FTN()void  size(2) Largest target is 1
		 -> PWM2_16BIT_Period_DefaultInterruptHandler(), 

    PWM2_16BIT_Slice1Output1_InterruptHandler	PTR FTN()void  size(2) Largest target is 1
		 -> PWM2_16BIT_Slice1Output1_DefaultInterruptHandler(), NULL(), 

    PWM2_16BIT_Slice1Output1_SetInterruptHandler@InterruptHandler	PTR FTN()void  size(2) Largest target is 1
		 -> PWM2_16BIT_Slice1Output1_DefaultInterruptHandler(), 

    PWM2_16BIT_Slice1Output2_InterruptHandler	PTR FTN()void  size(2) Largest target is 1
		 -> PWM2_16BIT_Slice1Output2_DefaultInterruptHandler(), NULL(), 

    PWM2_16BIT_Slice1Output2_SetInterruptHandler@InterruptHandler	PTR FTN()void  size(2) Largest target is 1
		 -> PWM2_16BIT_Slice1Output2_DefaultInterruptHandler(), 

    __rem_pio2f@y	PTR  size(2) Largest target is 4
		 -> sinf@y(BANK5[4]), 

    S1896$buffer	PTR unsigned char  size(2) Largest target is 0

    S1896$source	PTR const unsigned char  size(2) Largest target is 0

    S429$4$0	PTR void  size(2) Largest target is 0

    S429$5$0	PTR void  size(2) Largest target is 0

    S429$6$0	PTR void  size(2) Largest target is 0

    S429SPI_INTERFACE$BufferExchange	PTR FTN(PTR void ,unsigned int ,)void  size(2) Largest target is 1
		 -> SPI1_BufferExchange(), 

    S429SPI_INTERFACE$BufferRead	PTR FTN(PTR void ,unsigned int ,)void  size(2) Largest target is 1
		 -> SPI1_BufferRead(), 

    S429SPI_INTERFACE$BufferWrite	PTR FTN(PTR void ,unsigned int ,)void  size(2) Largest target is 1
		 -> SPI1_BufferWrite(), 

    S429SPI_INTERFACE$ByteExchange	PTR FTN(unsigned char ,)unsigned char  size(2) Largest target is 1
		 -> SPI1_ByteExchange(), 

    S429SPI_INTERFACE$ByteRead	PTR FTN()unsigned char  size(2) Largest target is 1
		 -> SPI1_ByteRead(), 

    S429SPI_INTERFACE$ByteWrite	PTR FTN(unsigned char ,)void  size(2) Largest target is 1
		 -> SPI1_ByteWrite(), 

    S429SPI_INTERFACE$Close	PTR FTN()void  size(2) Largest target is 1
		 -> SPI1_Close(), 

    S429SPI_INTERFACE$Deinitialize	PTR FTN()void  size(2) Largest target is 1
		 -> SPI1_Deinitialize(), 

    S429SPI_INTERFACE$Initialize	PTR FTN()void  size(2) Largest target is 1
		 -> SPI1_Initialize(), 

    S429SPI_INTERFACE$IsRxReady	PTR FTN()_Bool  size(2) Largest target is 1
		 -> SPI1_IsRxReady(), 

    S429SPI_INTERFACE$IsTxReady	PTR FTN()_Bool  size(2) Largest target is 1
		 -> SPI1_IsTxReady(), 

    S429SPI_INTERFACE$Open	PTR FTN(unsigned char ,)_Bool  size(2) Largest target is 1
		 -> SPI1_Open(), 

    S429SPI_INTERFACE$RxCompleteCallbackRegister	PTR FTN(PTR FTN()void ,)void  size(2) Largest target is 1
		 -> NULL(), 

    S429SPI_INTERFACE$TxCompleteCallbackRegister	PTR FTN(PTR FTN()void ,)void  size(2) Largest target is 1
		 -> NULL(), 

    s8SPI_Master_Init@psConfig	const PTR const struct . size(2) Largest target is 4
		 -> main@sConfig(BANK5[4]), 

    s8SPI_Master_Init@psSPI_Handler	const PTR volatile struct . size(2) Largest target is 3327
		 -> RAM(DATA[3327]), 

    SPI1_Host$BufferExchange	PTR FTN(PTR void ,unsigned int ,)void  size(2) Largest target is 1
		 -> SPI1_BufferExchange(), 

    SPI1_Host$BufferRead	PTR FTN(PTR void ,unsigned int ,)void  size(2) Largest target is 1
		 -> SPI1_BufferRead(), 

    SPI1_Host$BufferWrite	PTR FTN(PTR void ,unsigned int ,)void  size(2) Largest target is 1
		 -> SPI1_BufferWrite(), 

    SPI1_Host$ByteExchange	PTR FTN(unsigned char ,)unsigned char  size(2) Largest target is 1
		 -> SPI1_ByteExchange(), 

    SPI1_Host$ByteRead	PTR FTN()unsigned char  size(2) Largest target is 1
		 -> SPI1_ByteRead(), 

    SPI1_Host$ByteWrite	PTR FTN(unsigned char ,)void  size(2) Largest target is 1
		 -> SPI1_ByteWrite(), 

    SPI1_Host$Close	PTR FTN()void  size(2) Largest target is 1
		 -> SPI1_Close(), 

    SPI1_Host$Deinitialize	PTR FTN()void  size(2) Largest target is 1
		 -> SPI1_Deinitialize(), 

    SPI1_Host$Initialize	PTR FTN()void  size(2) Largest target is 1
		 -> SPI1_Initialize(), 

    SPI1_Host$IsRxReady	PTR FTN()_Bool  size(2) Largest target is 1
		 -> SPI1_IsRxReady(), 

    SPI1_Host$IsTxReady	PTR FTN()_Bool  size(2) Largest target is 1
		 -> SPI1_IsTxReady(), 

    SPI1_Host$Open	PTR FTN(unsigned char ,)_Bool  size(2) Largest target is 1
		 -> SPI1_Open(), 

    SPI1_Host$RxCompleteCallbackRegister	PTR FTN(PTR FTN()void ,)void  size(2) Largest target is 1
		 -> NULL(), 

    SPI1_Host$TxCompleteCallbackRegister	PTR FTN(PTR FTN()void ,)void  size(2) Largest target is 1
		 -> NULL(), 

    vfpfcnvrt@ap	PTR PTR void  size(2) Largest target is 2
		 -> printf@ap(COMRAM[2]), 

    vfpfcnvrt@cp	PTR unsigned char  size(2) Largest target is 35
		 -> STR_55(CODE[35]), 

    vfpfcnvrt@cp_1964	PTR unsigned char  size(2) Largest target is 33
		 -> ?_printf(COMRAM[2]), STR_10(CODE[9]), STR_11(CODE[17]), STR_12(CODE[18]), 
		 -> STR_16(CODE[14]), STR_17(CODE[17]), STR_18(CODE[26]), STR_22(CODE[8]), 
		 -> STR_23(CODE[17]), STR_24(CODE[26]), STR_28(CODE[14]), STR_29(CODE[17]), 
		 -> STR_30(CODE[25]), STR_34(CODE[8]), STR_35(CODE[17]), STR_36(CODE[25]), 
		 -> STR_4(CODE[14]), STR_40(CODE[14]), STR_41(CODE[17]), STR_42(CODE[33]), 
		 -> STR_46(CODE[10]), STR_47(CODE[17]), STR_48(CODE[33]), STR_5(CODE[17]), 
		 -> STR_52(CODE[10]), STR_53(CODE[17]), STR_54(CODE[33]), STR_6(CODE[18]), 

    vfpfcnvrt@fmt	PTR PTR unsigned char  size(2) Largest target is 2
		 -> vfprintf@cfmt(COMRAM[2]), 

    vfpfcnvrt@fp	PTR struct _IO_FILE size(2) Largest target is 0
		 -> NULL(NULL[0]), 

    vfprintf@ap	PTR PTR void  size(2) Largest target is 2
		 -> printf@ap(COMRAM[2]), 

    vfprintf@cfmt	PTR unsigned char  size(2) Largest target is 35
		 -> STR_55(CODE[35]), 

    vfprintf@fmt	PTR const unsigned char  size(2) Largest target is 35
		 -> STR_55(CODE[35]), 

    vfprintf@fp	PTR struct _IO_FILE size(2) Largest target is 0
		 -> NULL(NULL[0]), 

    vGenerateSinus@pu8OutputArray	const PTR unsigned char  size(2) Largest target is 100
		 -> main@au8SinusWave(BANK6[100]), 

    vGPIO_Reset@pu8GPIO_Port	const PTR volatile unsigned char  size(2) Largest target is 1
		 -> PORTB(BITBIGSFRhhhhhll[1]), 

    vGPIO_Set@pu8GPIO_Port	const PTR volatile unsigned char  size(2) Largest target is 1
		 -> PORTB(BITBIGSFRhhhhhll[1]), 

    vSPI_ClearFIFOs@psSPI_Handler	const PTR volatile struct . size(2) Largest target is 3327
		 -> RAM(DATA[3327]), 

    vSPI_Disable@psSPI_Handler	const PTR volatile struct . size(2) Largest target is 3327
		 -> RAM(DATA[3327]), 

    vSPI_Enable@psSPI_Handler	const PTR volatile struct . size(2) Largest target is 3327
		 -> RAM(DATA[3327]), 


Critical Paths under _main in COMRAM

    _sinf->___rem_pio2f
    ___sindf->___fladd
    ___rem_pio2f->___fltol
    ___fltol->___fladd
    ___flsub->___fladd
    ___flneg->___cosdf
    ___cosdf->___fladd
    ___flmul->___xxtofl
    ___fladd->___fldiv
    ___fldiv->___flmul
    _s8SPI_Master_Init->___assert_fail
    ___assert_fail->_printf
    _printf->_vfprintf
    _vfprintf->_vfpfcnvrt
    _vfpfcnvrt->_abs
    _abs->___awmod
    _abort->_exit
    _exit->__Exit
    _PWM2_16BIT_Initialize->_PWM2_16BIT_Period_SetInterruptHandler
    _PWM2_16BIT_Initialize->_PWM2_16BIT_Slice1Output1_SetInterruptHandler
    _PWM2_16BIT_Initialize->_PWM2_16BIT_Slice1Output2_SetInterruptHandler
    _PWM1_16BIT_Initialize->_PWM1_16BIT_Period_SetInterruptHandler
    _PWM1_16BIT_Initialize->_PWM1_16BIT_Slice1Output1_SetInterruptHandler
    _PWM1_16BIT_Initialize->_PWM1_16BIT_Slice1Output2_SetInterruptHandler
    _INTERRUPT_Initialize->_INT0_SetInterruptHandler
    _INTERRUPT_Initialize->_INT1_SetInterruptHandler
    _INTERRUPT_Initialize->_INT2_SetInterruptHandler

Critical Paths under _main in BANK5

    _main->_vGenerateSinus
    _vGenerateSinus->_sinf
    _sinf->___rem_pio2f
    ___rem_pio2f->___flneg
    ___flneg->___cosdf

Critical Paths under _main in BANK6

    None.

Critical Paths under _main in BANK7

    None.

Critical Paths under _main in BANK8

    None.

Critical Paths under _main in BANK9

    None.

Critical Paths under _main in BANK10

    None.

Critical Paths under _main in BANK11

    None.

Critical Paths under _main in BANK12

    None.

Call Graph Tables:

 ---------------------------------------------------------------------------------
 (Depth) Function   	        Calls       Base Space   Used Autos Params    Refs
 ---------------------------------------------------------------------------------
 (0) _main                                                22    22      0   71463
                                            117 BANK5     22    22      0
                    _DAC1_Initialize
                     _DAC1_SetOutput
                  _SYSTEM_Initialize
                  _s8SPI_Master_Init
                        _vGPIO_Reset
                          _vGPIO_Set
                     _vGenerateSinus
                     _vRGB_GPIO_Init
 ---------------------------------------------------------------------------------
 (1) _vRGB_GPIO_Init                                       0     0      0       0
 ---------------------------------------------------------------------------------
 (1) _vGenerateSinus                                      32    18     14   62018
                                             85 BANK5     32    18     14
                            ___fladd
                            ___fldiv
                            ___flmul
                            ___fltol
                           ___xxtofl
                               _sinf
 ---------------------------------------------------------------------------------
 (2) _sinf                                                26    22      4   48443
                                             59 BANK5     26    22      4
                            ___cosdf
                            ___fladd
                            ___fldiv (ARG)
                            ___flneg
                        ___rem_pio2f
                            ___sindf
 ---------------------------------------------------------------------------------
 (3) ___sindf                                             32    28      4   11053
                                             80 COMRAM     4     0      4
                                              0 BANK5     28    28      0
                            ___fladd
                            ___flmul
 ---------------------------------------------------------------------------------
 (3) ___rem_pio2f                                         33    27      6   19383
                                             90 COMRAM     2     2      0
                                             28 BANK5     31    25      6
                            ___fladd
                            ___flmul
                            ___flneg
                            ___flsub
                            ___fltol
                           ___xxtofl
                              _fabsf
 ---------------------------------------------------------------------------------
 (4) _fabsf                                                8     4      4     199
                                              0 COMRAM     8     4      4
 ---------------------------------------------------------------------------------
 (4) ___xxtofl                                            14    10      4     778
                                              0 COMRAM    14    10      4
 ---------------------------------------------------------------------------------
 (4) ___fltol                                             10     6      4     457
                                             80 COMRAM    10     6      4
                            ___fladd (ARG)
                            ___fldiv (ARG)
                            ___flmul (ARG)
                           ___xxtofl (ARG)
 ---------------------------------------------------------------------------------
 (4) ___flsub                                              8     0      8    6081
                                             80 COMRAM     8     0      8
                            ___fladd
                            ___flmul (ARG)
 ---------------------------------------------------------------------------------
 (4) ___flneg                                              4     0      4     653
                                             24 BANK5      4     0      4
                            ___cosdf (ARG)
                            ___fladd (ARG)
 ---------------------------------------------------------------------------------
 (3) ___cosdf                                             28    24      4   11138
                                             80 COMRAM     4     0      4
                                              0 BANK5     24    24      0
                            ___fladd
                            ___flmul
 ---------------------------------------------------------------------------------
 (4) ___flmul                                             25    17      8    5088
                                             14 COMRAM    25    17      8
                           ___xxtofl (ARG)
 ---------------------------------------------------------------------------------
 (4) ___fladd                                             16     8      8    5302
                                             64 COMRAM    16     8      8
                            ___fldiv (ARG)
                            ___flmul (ARG)
                           ___xxtofl (ARG)
 ---------------------------------------------------------------------------------
 (2) ___fldiv                                             25    17      8    1399
                                             39 COMRAM    25    17      8
                            ___flmul (ARG)
                           ___xxtofl (ARG)
 ---------------------------------------------------------------------------------
 (1) _vGPIO_Set                                            5     2      3     348
                                              0 COMRAM     5     2      3
 ---------------------------------------------------------------------------------
 (1) _vGPIO_Reset                                          6     3      3     348
                                              0 COMRAM     6     3      3
 ---------------------------------------------------------------------------------
 (1) _s8SPI_Master_Init                                    6     2      4    7566
                                             56 COMRAM     6     2      4
                      ___assert_fail
                    _vSPI_ClearFIFOs
                       _vSPI_Disable
                        _vSPI_Enable
 ---------------------------------------------------------------------------------
 (2) _vSPI_Enable                                          2     0      2      98
                                              0 COMRAM     2     0      2
 ---------------------------------------------------------------------------------
 (2) _vSPI_Disable                                         2     0      2      98
                                              0 COMRAM     2     0      2
 ---------------------------------------------------------------------------------
 (2) _vSPI_ClearFIFOs                                      2     0      2     326
                                              0 COMRAM     2     0      2
 ---------------------------------------------------------------------------------
 (2) ___assert_fail                                        8     0      8    6474
                                             48 COMRAM     8     0      8
                              _abort
                             _printf
 ---------------------------------------------------------------------------------
 (3) _printf                                              14     4     10    3475
                                             36 COMRAM    12     2     10
                           _vfprintf
 ---------------------------------------------------------------------------------
 (4) _vfprintf                                             8     2      6    3343
                                             28 COMRAM     8     2      6
                          _vfpfcnvrt
 ---------------------------------------------------------------------------------
 (5) _vfpfcnvrt                                           18    12      6    2985
                                             10 COMRAM    18    12      6
                            ___awdiv
                            ___awmod
                                _abs
                              _fputc
 ---------------------------------------------------------------------------------
 (6) _fputc                                                9     5      4     934
                                              0 COMRAM     9     5      4
                              _putch
 ---------------------------------------------------------------------------------
 (7) _putch                                                1     1      0       0
 ---------------------------------------------------------------------------------
 (6) _abs                                                  4     2      2     142
                                              6 COMRAM     4     2      2
                            ___awmod (ARG)
 ---------------------------------------------------------------------------------
 (6) ___awmod                                              6     2      4     448
                                              0 COMRAM     6     2      4
 ---------------------------------------------------------------------------------
 (6) ___awdiv                                              8     4      4     452
                                              0 COMRAM     8     4      4
 ---------------------------------------------------------------------------------
 (3) _abort                                                0     0      0     175
                               _exit
 ---------------------------------------------------------------------------------
 (4) _exit                                                 2     0      2     175
                                              2 COMRAM     2     0      2
                              __Exit
                    ___funcs_on_exit
 ---------------------------------------------------------------------------------
 (5) ___funcs_on_exit                                      2     2      0       1
 ---------------------------------------------------------------------------------
 (5) __Exit                                                2     0      2      76
                                              0 COMRAM     2     0      2
 ---------------------------------------------------------------------------------
 (1) _SYSTEM_Initialize                                    0     0      0     882
                   _CLOCK_Initialize
                    _DAC1_Initialize
               _INTERRUPT_Initialize
             _PIN_MANAGER_Initialize
              _PWM1_16BIT_Initialize
              _PWM2_16BIT_Initialize
 ---------------------------------------------------------------------------------
 (2) _PWM2_16BIT_Initialize                                0     0      0     294
_PWM2_16BIT_Period_SetInterruptHandl
_PWM2_16BIT_Slice1Output1_SetInterru
_PWM2_16BIT_Slice1Output2_SetInterru
 ---------------------------------------------------------------------------------
 (3) _PWM2_16BIT_Slice1Output2_SetInterruptHandler         2     0      2      98
                                              0 COMRAM     2     0      2
 ---------------------------------------------------------------------------------
 (3) _PWM2_16BIT_Slice1Output1_SetInterruptHandler         2     0      2      98
                                              0 COMRAM     2     0      2
 ---------------------------------------------------------------------------------
 (3) _PWM2_16BIT_Period_SetInterruptHandler                2     0      2      98
                                              0 COMRAM     2     0      2
 ---------------------------------------------------------------------------------
 (2) _PWM1_16BIT_Initialize                                0     0      0     294
_PWM1_16BIT_Period_SetInterruptHandl
_PWM1_16BIT_Slice1Output1_SetInterru
_PWM1_16BIT_Slice1Output2_SetInterru
 ---------------------------------------------------------------------------------
 (3) _PWM1_16BIT_Slice1Output2_SetInterruptHandler         2     0      2      98
                                              0 COMRAM     2     0      2
 ---------------------------------------------------------------------------------
 (3) _PWM1_16BIT_Slice1Output1_SetInterruptHandler         2     0      2      98
                                              0 COMRAM     2     0      2
 ---------------------------------------------------------------------------------
 (3) _PWM1_16BIT_Period_SetInterruptHandler                2     0      2      98
                                              0 COMRAM     2     0      2
 ---------------------------------------------------------------------------------
 (2) _PIN_MANAGER_Initialize                               0     0      0       0
 ---------------------------------------------------------------------------------
 (2) _INTERRUPT_Initialize                                 0     0      0     294
           _INT0_SetInterruptHandler
           _INT1_SetInterruptHandler
           _INT2_SetInterruptHandler
 ---------------------------------------------------------------------------------
 (3) _INT2_SetInterruptHandler                             2     0      2      98
                                              0 COMRAM     2     0      2
 ---------------------------------------------------------------------------------
 (3) _INT1_SetInterruptHandler                             2     0      2      98
                                              0 COMRAM     2     0      2
 ---------------------------------------------------------------------------------
 (3) _INT0_SetInterruptHandler                             2     0      2      98
                                              0 COMRAM     2     0      2
 ---------------------------------------------------------------------------------
 (2) _DAC1_Initialize                                      0     0      0       0
 ---------------------------------------------------------------------------------
 (2) _CLOCK_Initialize                                     0     0      0       0
 ---------------------------------------------------------------------------------
 (1) _DAC1_SetOutput                                       1     1      0      22
                                              0 COMRAM     1     1      0
 ---------------------------------------------------------------------------------
 Estimated maximum stack depth 7
 ---------------------------------------------------------------------------------

 Call Graph Graphs:

 _main (ROOT)
   _DAC1_Initialize
   _DAC1_SetOutput
   _SYSTEM_Initialize
     _CLOCK_Initialize
     _DAC1_Initialize
     _INTERRUPT_Initialize
       _INT0_SetInterruptHandler
       _INT1_SetInterruptHandler
       _INT2_SetInterruptHandler
     _PIN_MANAGER_Initialize
     _PWM1_16BIT_Initialize
       _PWM1_16BIT_Period_SetInterruptHandler
       _PWM1_16BIT_Slice1Output1_SetInterruptHandler
       _PWM1_16BIT_Slice1Output2_SetInterruptHandler
     _PWM2_16BIT_Initialize
       _PWM2_16BIT_Period_SetInterruptHandler
       _PWM2_16BIT_Slice1Output1_SetInterruptHandler
       _PWM2_16BIT_Slice1Output2_SetInterruptHandler
   _s8SPI_Master_Init
     ___assert_fail
       _abort
         _exit
           __Exit
           ___funcs_on_exit
       _printf
         _vfprintf
           _vfpfcnvrt
             ___awdiv
             ___awmod
             _abs
               ___awmod (ARG)
             _fputc
               _putch
     _vSPI_ClearFIFOs
     _vSPI_Disable
     _vSPI_Enable
   _vGPIO_Reset
   _vGPIO_Set
   _vGenerateSinus
     ___fladd
       ___fldiv (ARG)
         ___flmul (ARG)
           ___xxtofl (ARG)
         ___xxtofl (ARG)
       ___flmul (ARG)
       ___xxtofl (ARG)
     ___fldiv
     ___flmul
     ___fltol
       ___fladd (ARG)
       ___fldiv (ARG)
       ___flmul (ARG)
       ___xxtofl (ARG)
     ___xxtofl
     _sinf
       ___cosdf
         ___fladd
         ___flmul
       ___fladd
       ___fldiv (ARG)
       ___flneg (ARG)
         ___cosdf (ARG)
         ___fladd (ARG)
       ___rem_pio2f (ARG)
         ___fladd
         ___flmul
         ___flneg
         ___flsub
           ___fladd
           ___flmul (ARG)
         ___fltol
         ___xxtofl
         _fabsf
       ___sindf (ARG)
         ___fladd
         ___flmul
   _vRGB_GPIO_Init

 Address spaces:
Name               Size   Autos  Total    Cost      Usage
BIGRAM             7FF      0       0      21        0.0%
EEDATA             200      0       0       0        0.0%
BITBIGSFRhlhhhl    178      0       0      31        0.0%
BITBIGSFRhlhhhl    151      0       0      36        0.0%
BITBIGSFR_1        100      0       0      20        0.0%
BITBANK12          100      0       0      18        0.0%
BANK12             100      0       0      19        0.0%
BITBANK11          100      0       0      16        0.0%
BANK11             100      0       0      17        0.0%
BITBANK10          100      0       0      14        0.0%
BANK10             100      0       0      15        0.0%
BITBANK9           100      0       0      12        0.0%
BANK9              100      0       0      13        0.0%
BITBANK8           100      0       0      10        0.0%
BANK8              100      0       0      11        0.0%
BITBANK7           100      0       0       8        0.0%
BANK7              100      0       0       9        0.0%
BITBANK6           100      0       0       6        0.0%
BANK6              100      0      98       7       59.4%
BITBANK5            A0      0       0       4        0.0%
BANK5               A0     8B      9F       5       99.4%
BITBIGSFRll         7D      0       0      43        0.0%
BITCOMRAM           5F      0       0       0        0.0%
COMRAM              5F     5C      5E       1       98.9%
BITBIGSFRhlhhhl     53      0       0      33        0.0%
BITBIGSFRhlhhhh     48      0       0      30        0.0%
BITBIGSFRhhhllh     2D      0       0      29        0.0%
BITBIGSFRhhhhhh     29      0       0      22        0.0%
BITBIGSFRhlhhhl     1F      0       0      39        0.0%
BITBIGSFRhlhhhl     1A      0       0      32        0.0%
BITBIGSFRhlhhhl      7      0       0      34        0.0%
BITBIGSFRhhhhhl      6      0       0      23        0.0%
BITBIGSFRhlhhhl      6      0       0      35        0.0%
BITBIGSFRhhhhhl      6      0       0      24        0.0%
BITBIGSFRhhhlhl      6      0       0      28        0.0%
BITBIGSFRhhhhlh      5      0       0      25        0.0%
BITBIGSFRhhhhll      3      0       0      26        0.0%
BITBIGSFRhlhl        2      0       0      41        0.0%
BITBIGSFRhlhhhl      1      0       0      37        0.0%
BITBIGSFRhlhhhl      1      0       0      38        0.0%
BITBIGSFRhhhlhh      1      0       0      27        0.0%
BITBIGSFRhlhhl       1      0       0      40        0.0%
BITBIGSFRlh          1      0       0      42        0.0%
BIGSFR_1             0      0       0     200        0.0%
BIGSFR               0      0       0     200        0.0%
BITSFR_6             0      0       0     200        0.0%
SFR_6                0      0       0     200        0.0%
BITSFR_5             0      0       0     200        0.0%
SFR_5                0      0       0     200        0.0%
BITSFR_4             0      0       0     200        0.0%
SFR_4                0      0       0     200        0.0%
BITSFR_3             0      0       0     200        0.0%
SFR_3                0      0       0     200        0.0%
BITSFR_2             0      0       0     200        0.0%
SFR_2                0      0       0     200        0.0%
BITSFR_1             0      0       0     200        0.0%
SFR_1                0      0       0     200        0.0%
BITSFR               0      0       0     200        0.0%
SFR                  0      0       0     200        0.0%
STACK                0      0       0       2        0.0%
NULL                 0      0       0       0        0.0%
ABS                  0      0     195      44        0.0%
DATA                 0      0     195       3        0.0%
CODE                 0      0       0       0        0.0%


Microchip Technology PIC18 Macro Assembler V2.46 build 20240104201356 
Symbol Table                                                                                   Sat Jul 20 23:39:22 2024

                                        main@u32CurrentSample 05E1  
                                           _SPI1_ByteExchange 0000  
                                                           l7 52BC  
                                                ___fldiv@aexp 0540  
                                                ___fldiv@bexp 053F  
                                                ___fldiv@sign 0538  
                                                          _C0 7F15  
                                                          _C1 7F11  
                                                          _C2 7F0D  
                                                          _C3 7F09  
                                                          l10 5256  
                                                          l74 563A  
                                                          _S1 7EF5  
                                                          _S2 7EF1  
                                                          _S3 7EED  
                                                          _S4 7EE9  
                                                ___awdiv@sign 0506  
                                          ___assert_fail@file 0533  
                                          ___assert_fail@func 0537  
                                          ___assert_fail@line 0535  
                                          ___assert_fail@expr 0531  
                                       vGPIO_Reset@u8GPIO_Pin 0503  
                                             _DAC1_Initialize 52B2  
                                                         l111 5292  
                                                         l114 527E  
                                                         l108 5288  
                                                         l221 52B0  
                                                         l224 529C  
                                                         l410 526A  
                                                         l218 52A6  
                                                         l423 5274  
                                                         l184 56A6  
                                                         l610 53C0  
                                                         l507 5746  
                                                         l540 533C  
                                                         l525 5358  
                                                         l613 53EC  
                                                         l621 5F8E  
                                                         l607 5322  
                                                         l387 5452  
                                                         l636 5C1C  
                                                         l397 5260  
                                                         l932 58BA  
                                                         l692 5310  
                                                         l596 6356  
                                                         l597 634C  
                                                         l695 52FE  
                                                         l945 57F6  
                                                         l698 52EC  
                                                         l975 54F4  
                                                         l998 5A8A  
                                                 main@u8Light 05E9  
                                  ??_INT0_SetInterruptHandler 0503  
                                                         _abs 5454  
                                                ___awmod@sign 0506  
                                                         wreg 04E8  
                                              _DAC1_SetOutput 5250  
                                                ___flmul@aexp 0520  
                                                ___flmul@bexp 0521  
                                                ___flmul@sign 051B  
                                                ___flmul@temp 0526  
                                                ___flmul@prod 0522  
                                                 main@sConfig 05DD  
                                                ___fltol@exp1 055A  
                                                        ?_abs 0507  
                                                        l1230 76D0  
                                                        l1231 7696  
                                                        l1322 7384  
                                                        l1315 718E  
                                                        l1332 74B4  
                                                        l1324 73FC  
                                                        l3101 5774  
                                                        l1229 76E2  
                                                        l1325 73EA  
                                                        l1406 5374  
                                                        l1246 77FC  
                                                        l1238 79B2  
                                                        l3111 57AC  
                                                        l3103 577C  
                                                        l1255 78CC  
                                                        l1319 74F2  
                                                        l1271 553A  
                                                        l1256 78BA  
                                                        l3121 57E6  
                                                        l3113 57C2  
                                                        l3105 578E  
                                                        l1417 539A  
                                                        l4001 6A78  
                                                        l3201 7608  
                                                        l1370 5D68  
                                                        l3051 580A  
                                                        l3123 57EE  
                                                        l3115 57CA  
                                                        l3107 5796  
                                                        l3131 58E0  
                                                        l4011 6AB6  
                                                        l4003 6A88  
                                                        l1283 6CFE  
                                                        l3211 761C  
                                                        l3203 760C  
                                                        l1363 5D0C  
                                                        l1356 5C74  
                                                        l3061 5830  
                                                        l3053 5812  
                                                        l3117 57D0  
                                                        l3109 579E  
                                                        l3141 5454  
                                                        l3133 58EA  
                                                        l4021 6AFE  
                                                        l1285 6B5E  
                                                        l4013 6AC6  
                                                        l4005 6A88  
                                                        l3301 787A  
                                                        l3221 7630  
                                                        l3213 7620  
                                                        l3205 7610  
                                                        l1517 7EC0  
                                                        l4101 5DE0  
                                                        l1294 6BA4  
                                                        l1391 52DA  
                                                        l3071 5868  
                                                        l3063 5838  
                                                        l3055 5816  
                                                        l3047 57F8  
                                                        l3119 57D6  
                                                        l3143 5462  
                                                        l3135 5908  
                                                        l3127 58BC  
                                                        l1455 6964  
                                                        l4031 6B4C  
                                                        l4023 6B12  
                                                        l4015 6AD6  
                                                        l3311 78B2  
                                                        l3303 787C  
                                                        l3231 768E  
                                                        l3215 7624  
                                                        l3207 7614  
                                                        l3223 7634  
                                                        l3151 7510  
                                                        l1551 618C  
                                                        l1359 5DD0  
                                                        l4103 5E66  
                                                        l4111 5F5E  
                                                        l1384 52C8  
                                                        l1472 546E  
                                                        l1296 6C1C  
                                                        l1288 6B22  
                                                        l3081 5894  
                                                        l3073 586E  
                                                        l3065 584A  
                                                        l3057 5824  
                                                        l3049 57FC  
                                                        l3137 593E  
                                                        l3129 58CE  
                                                        l3401 67E2  
                                                        l4121 5A9E  
                                                        l1297 6C0A  
                                                        l4041 6B94  
                                                        l4033 6B5C  
                                                        l4025 6B20  
                                                        l4017 6AE6  
                                                        l4009 6A9C  
                                                        l3321 7930  
                                                        l3305 788A  
                                                        l3241 76C4  
                                                        l3233 76A4  
                                                        l3225 7638  
                                                        l3217 7628  
                                                        l3209 7618  
                                                        l3153 7520  
                                                        l3161 754A  
                                                        l3145 74F4  
                                                        l4105 5E8A  
                                                        l4113 5312  
                                                        l1394 524A  
                                                        l3075 5884  
                                                        l3067 5852  
                                                        l3083 589A  
                                                        l3059 582C  
                                                        l3091 5748  
                                                        l1475 5486  
                                                        l3403 6806  
                                                        l3411 6882  
                                                        l1379 541E  
                                                        l4131 5B4A  
                                                        l4123 5AC2  
                                                        l4051 6BD4  
                                                        l4043 6BA2  
                                                        l4035 6B6E  
                                                        l4027 6B2C  
                                                        l4019 6AEE  
                                                        l3331 7976  
                                                        l3315 78DC  
                                                        l3323 7932  
                                                        l3307 788E  
                                                        l3251 7714  
                                                        l3243 76CE  
                                                        l3235 76B0  
                                                        l3227 7662  
                                                        l3219 762C  
                                                        l3171 757A  
                                                        l3163 755A  
                                                        l3155 7530  
                                                        l3147 7500  
                                                        l4107 5EF8  
                                                        l4115 5318  
                                                        l1468 55CE  
                                                        l1580 65D8  
                                                        l3085 58AA  
                                                        l3077 588C  
                                                        l3069 585A  
                                                        l3093 574C  
                                                        l3413 6892  
                                                        l3421 692A  
                                                        l3405 683A  
                                                        l4141 5C10  
                                                        l4133 5B68  
                                                        l4125 5AD4  
                                                        l4061 6C46  
                                                        l4053 6C02  
                                                        l4037 6B84  
                                                        l4045 6BB4  
                                                        l4029 6B4A  
                                                        l3341 79A0  
                                                        l3333 7984  
                                                        l3325 7942  
                                                        l3317 78E8  
                                                        l3309 789C  
                                                        l3261 7750  
                                                        l3253 7724  
                                                        l3245 76F0  
                                                        l3237 76B4  
                                                        l3229 767E  
                                                        l3181 75BA  
                                                        l3173 7588  
                                                        l3165 7560  
                                                        l3157 7540  
                                                        l3149 750E  
                                                        l3501 72B6  
                                                        l4109 5F58  
                                                        l4117 531E  
                                                        l4221 618E  
                                                        l3351 5360  
                                                        l3087 58B2  
                                                        l3079 588E  
                                                        l3095 575A  
                                                        l1487 5984  
                                                        l3415 68BE  
                                                        l3407 686E  
                                                        l4135 5BA6  
                                                        l4127 5AF8  
                                                        l4119 5A8C  
                                                        l4071 6CBE  
                                                        l4063 6C70  
                                                        l4047 6BC2  
                                                        l4039 6B8A  
                                                        l3343 79A2  
                                                        l3335 798A  
                                                        l3327 7952  
                                                        l3319 78F6  
                                                        l3271 7796  
                                                        l3263 775E  
                                                        l3255 7732  
                                                        l3247 7700  
                                                        l3239 76C2  
                                                        l3191 75F4  
                                                        l3183 75BC  
                                                        l3175 758A  
                                                        l3167 7572  
                                                        l3159 7542  
                                                        l3511 734C  
                                                        l3503 72C2  
                                                        l3431 70CA  
                                                        l1567 6F28  
                                                        l4231 61E8  
                                                        l4223 6192  
                                                        l1568 70C8  
                                                        l3097 5762  
                                                        l3417 68F2  
                                                        l3361 661E  
                                                        l3425 693C  
                                                        l3353 65DA  
                                                        l4137 5BD6  
                                                        l4129 5B04  
                                                        l4145 539C  
                                                        l4081 6CF4  
                                                        l4073 6CDA  
                                                        l4057 6C2C  
                                                        l4065 6C74  
                                                        l4049 6BC6  
                                                        l3337 798C  
                                                        l3329 7972  
                                                        l3281 7812  
                                                        l3273 77CA  
                                                        l3265 7760  
                                                        l3257 7740  
                                                        l3193 75F8  
                                                        l3177 759A  
                                                        l3185 75C4  
                                                        l3169 7574  
                                                        l3521 73A2  
                                                        l3513 736A  
                                                        l3505 72DE  
                                                        l3441 7106  
                                                        l3433 70D6  
                                                        l3601 5A2A  
                                                        l1585 54BA  
                                                        l4241 6226  
                                                        l4233 61FC  
                                                        l4225 61D0  
                                                        l1498 5244  
                                                        l4091 5324  
                                                        l3347 535A  
                                                        l3099 5766  
                                                        l3419 68F6  
                                                        l3371 66AE  
                                                        l3363 662E  
                                                        l3355 65FE  
                                                        l4139 5C04  
                                                        l4147 53C2  
                                                        l4075 6CDE  
                                                        l4067 6C8E  
                                                        l4059 6C38  
                                                        l3339 7992  
                                                        l3291 784E  
                                                        l3283 7822  
                                                        l3275 77CC  
                                                        l3267 776A  
                                                        l3259 774C  
                                                        l3195 75FC  
                                                        l3187 75D4  
                                                        l3179 75AA  
                                                        l3531 740C  
                                                        l3523 73A6  
                                                        l3515 7374  
                                                        l3507 7308  
                                                        l3451 7138  
                                                        l3443 7116  
                                                        l3435 70E4  
                                                        l3611 5A5A  
                                                        l4251 62CA  
                                                        l4243 6236  
                                                        l4235 620E  
                                                        l4227 61D4  
                                                        l3701 5262  
                                                        l4093 5330  
                                                        l3349 535E  
                                                        l3381 6734  
                                                        l3373 66C2  
                                                        l3365 664A  
                                                        l3357 660C  
                                                        l4077 6CEC  
                                                        l4069 6CA4  
                                                        l3293 7850  
                                                        l3277 77DC  
                                                        l3269 7770  
                                                        l3197 7600  
                                                        l3189 75E6  
                                                        l3541 746E  
                                                        l3533 7418  
                                                        l3525 73B4  
                                                        l3517 7382  
                                                        l3509 733E  
                                                        l3461 7178  
                                                        l3453 7146  
                                                        l3445 711C  
                                                        l3437 70E6  
                                                        l3613 5A6A  
                                                        l3621 5C30  
                                                        l4253 62DA  
                                                        l4245 625E  
                                                        l4237 6212  
                                                        l4229 61D8  
                                                        l3703 526C  
                                                        l4095 5334  
                                                        l3711 52BE  
                                                        l3383 6744  
                                                        l3391 678E  
                                                        l3375 66F6  
                                                        l3367 6666  
                                                        l3359 661A  
                                                        l4079 6CF2  
                                                        l3295 785E  
                                                        l3287 7836  
                                                        l3279 77EC  
                                                        l3199 7604  
                                                        l3551 74D6  
                                                        l3543 7482  
                                                        l3535 7426  
                                                        l3527 73E2  
                                                        l3519 7394  
                                                        l3471 71C2  
                                                        l3463 717E  
                                                        l3455 7148  
                                                        l3447 712C  
                                                        l3439 70F6  
                                                        l3615 5A7A  
                                                        l3607 5A3E  
                                                        l3631 5CAE  
                                                        l3623 5C3E  
                                                        l4255 6300  
                                                        l4263 6356  
                                                        l4247 6282  
                                                        l4239 6216  
                                                        l4089 5252  
                                                        l3801 5676  
                                                        l4097 5338  
                                                        l3385 6754  
                                                        l3377 6712  
                                                        l3369 66AA  
                                                        l3393 67A4  
                                                        l3705 5376  
                                                        l3297 7866  
                                                        l3289 7840  
                                                        l3553 74D8  
                                                        l3545 749C  
                                                        l3537 7450  
                                                        l3481 7212  
                                                        l3473 71CE  
                                                        l3465 719E  
                                                        l3457 7158  
                                                        l3449 7132  
                                                        l3561 54F6  
                                                        l3609 5A4A  
                                                        l3641 5D02  
                                                        l3633 5CB6  
                                                        l3625 5C84  
                                                        l3721 6D00  
                                                        l3713 63A8  
                                                        l4265 6368  
                                                        l4257 6320  
                                                        l4249 62A2  
                                                        l3811 568A  
                                                        l3803 5678  
                                                        l3395 67A8  
                                                        l3387 676A  
                                                        l3379 6724  
                                                        l3707 537E  
                                                        l3299 786A  
                                                        l3547 74B8  
                                                        l3555 74DE  
                                                        l3539 7454  
                                                        l3491 7254  
                                                        l3483 721E  
                                                        l3475 71D8  
                                                        l3467 71AE  
                                                        l3459 7168  
                                                        l3571 54E4  
                                                        l3563 5506  
                                                        l3651 5D78  
                                                        l3643 5D3E  
                                                        l3635 5CC2  
                                                        l3627 5C9A  
                                                        l3619 5C20  
                                                        l3731 6D7A  
                                                        l3723 6D20  
                                                        l4099 5DD2  
                                                        l4267 6390  
                                                        l4259 6332  
                                                        l3821 5432  
                                                        l3813 5696  
                                                        l3805 567A  
                                                        l3397 67CC  
                                                        l3389 678C  
                                                        l3557 74E2  
                                                        l3549 74C8  
                                                        l3493 7260  
                                                        l3485 722A  
                                                        l3477 71EE  
                                                        l3717 5F90  
                                                        l3581 59B0  
                                                        l3661 5DC0  
                                                        l3653 5D7C  
                                                        l3645 5D4A  
                                                        l3637 5CF4  
                                                        l3741 6ED6  
                                                        l3733 6DE6  
                                                        l3725 6D36  
                                                        l3823 5434  
                                                        l3831 56EE  
                                                        l3815 56A2  
                                                        l3807 567C  
                                                        l3399 67DA  
                                                        l3671 558E  
                                                        l3495 7270  
                                                        l3487 7238  
                                                        l3479 71FA  
                                                        l3567 54BC  
                                                        l3591 59FE  
                                                        l3583 59DA  
                                                        l3575 5986  
                                                        l3655 5DA0  
                                                        l3647 5D58  
                                                        l3639 5CF6  
                                                        l3751 6FC4  
                                                        l3743 6F0C  
                                                        l3735 6E0C  
                                                        l3727 6D38  
                                                        l3903 7CEC  
                                                        l3825 5442  
                                                        l3817 5420  
                                                        l3833 56F8  
                                                        l3809 567E  
                                                        l3665 52CA  
                                                        l3673 55AA  
                                                        l3497 728A  
                                                        l3489 7244  
                                                        l3569 54D4  
                                                        l3585 59DC  
                                                        l3577 599C  
                                                        l3657 5DB0  
                                                        l3649 5D76  
                                                        l3681 54A8  
                                                        l3753 6FEA  
                                                        l3737 6E64  
                                                        l3729 6D56  
                                                        l3921 7DCA  
                                                        l3905 7CFC  
                                                        l3913 7D90  
                                                        l3841 79DA  
                                                        l3835 533E  
                                                        l3827 5444  
                                                        l3819 5426  
                                                        l3691 5276  
                                                        l3771 55DC  
                                                        l3667 52CE  
                                                        l3675 55C6  
                                                        l3499 729A  
                                                        l3587 59EC  
                                                        l3659 5DBE  
                                                        l3683 54AA  
                                                        l3755 7042  
                                                        l3739 6EC4  
                                                        l3747 6F34  
                                                        l3923 7DF2  
                                                        l3915 7DA6  
                                                        l3907 7D34  
                                                        l3843 79DC  
                                                        l3829 56A8  
                                                        l3781 560E  
                                                        l3773 5606  
                                                        l3693 529E  
                                                        l3669 5582  
                                                        l3941 53EE  
                                                        l3597 5A16  
                                                        l3589 59F0  
                                                        l3757 709A  
                                                        l3749 6F58  
                                                        l3933 7E66  
                                                        l3925 7E16  
                                                        l3917 7DB6  
                                                        l3909 7D68  
                                                        l3861 7ACC  
                                                        l3845 79FA  
                                                        l3853 7A4C  
                                                        l3837 79B4  
                                                        l3767 52B2  
                                                        l3687 5280  
                                                        l3791 5636  
                                                        l3783 5610  
                                                        l3775 5608  
                                                        l3695 52A8  
                                                        l3943 541A  
                                                        l3951 6966  
                                                        l3599 5A20  
                                                        l3679 5488  
                                                        l3759 70B2  
                                                        l3855 7A6A  
                                                        l3847 7A10  
                                                        l3839 79C4  
                                                        l3689 528A  
                                                        l3785 5612  
                                                        l3777 560A  
                                                        l3769 55D0  
                                                        l3697 5294  
                                                        l3793 563C  
                                                        l3945 52EE  
                                                        l3961 69A2  
                                                        l3953 6972  
                                                        l3929 7E3E  
                                                        l3857 7A88  
                                                        l3873 7B64  
                                                        l3849 7A24  
                                                        l3699 5258  
                                                        l3787 561E  
                                                        l3779 560C  
                                                        l3795 5648  
                                                        l3947 52DC  
                                                        l3971 69D2  
                                                        l3963 69B2  
                                                        l3955 6980  
                                                        l3939 7EA2  
                                                        l3875 7B74  
                                                        l3859 7A98  
                                                        l3867 7B08  
                                                        l3883 7C30  
                                                        l3789 562A  
                                                        l3797 5672  
                                                        l3949 5300  
                                                        l3981 6A08  
                                                        l3973 69D8  
                                                        l3965 69B4  
                                                        l3957 6982  
                                                        l3885 7C4E  
                                                        l3877 7BC0  
                                                        l3869 7B3C  
                                                        l3799 5674  
                                                        l3991 6A48  
                                                        l3983 6A18  
                                                        l3975 69E6  
                                                        l3959 6992  
                                                        l3967 69BC  
                                                        l3887 7C6C  
                                                        l3879 7C08  
                                                        l3993 6A58  
                                                        l3985 6A1A  
                                                        l3977 69E8  
                                                        l3969 69CC  
                                                        l3889 7C7C  
                                                        l3897 7CB4  
                                                        l3995 6A60  
                                                        l3979 69F8  
                                                        l3987 6A22  
                                                        l3997 6A64  
                                                        l3989 6A32  
                                                        STR_1 7FC7  
                                                        STR_2 7FB6  
                                                        STR_3 7FA4  
                                                        STR_4 7FC7  
                                                        STR_5 7FB6  
                                                        STR_6 7FA4  
                                                        STR_7 7FE9  
                                                        u3000 6916  
                                                        u3010 6926  
                                                        u3011 6922  
                                                        u2300 5868  
                                                        u3100 7328  
                                                        u3020 70E4  
                                                        u2301 5864  
                                                        u3021 70E0  
                                                        _LATA 04BE  
                                                        u2310 5884  
                                                        u3110 7382  
                                                        u3030 70F6  
                                                        _LATB 04BF  
                                                        u2311 5880  
                                                        u3007 690C  
                                                        u3111 737E  
                                                        u3031 70F2  
                                                        _LATC 04C0  
                                                        u2320 58AA  
                                                        u2400 58E0  
                                                        u3200 74D6  
                                                        u3120 73A2  
                                                        u3040 7106  
                                                        u2321 58A6  
                                                        u2401 58DC  
                                                        u3201 74D2  
                                                        u3121 739E  
                                                        u3105 731E  
                                                        u3041 7102  
                                                        u2330 575A  
                                                        u2410 5908  
                                                        u3130 73B4  
                                                        u3050 7146  
                                                        u3210 54D4  
                                                        u2331 5756  
                                                        u2411 5904  
                                                        u3131 73B0  
                                                        u3051 7142  
                                                        u3211 54D0  
                                                        u2340 5774  
                                                        u2420 593E  
                                                        u2500 75AA  
                                                        u3140 73E2  
                                                        u3060 7158  
                                                        u3220 599C  
                                                        u3300 5C3E  
                                                        u2341 5770  
                                                        u2421 593A  
                                                        u2501 75A6  
                                                        u3141 73DE  
                                                        u3061 7154  
                                                        u3221 5998  
                                                        u3301 5C3A  
                                                        u2270 580A  
                                                        u2350 578E  
                                                        u2430 5462  
                                                        u2510 75E6  
                                                        u3150 73F8  
                                                        u3070 7168  
                                                        u3230 59D0  
                                                        u3310 5C9A  
                                                        u2271 5806  
                                                        u2351 578A  
                                                        u2431 545E  
                                                        u2511 75E2  
                                                        u3151 73F4  
                                                        u3071 7164  
                                                        u3311 5C96  
                                                        u2280 5824  
                                                        u2360 57AC  
                                                        u2600 7700  
                                                        u2520 75F4  
                                                        u2440 750E  
                                                        u3160 740C  
                                                        u3080 719E  
                                                        u3240 59FE  
                                                        u3320 5CF0  
                                                        u3400 6D32  
                                                        u4200 6344  
                                                        u2281 5820  
                                                        u2361 57A8  
                                                        u2601 76FC  
                                                        u2521 75F0  
                                                        u2441 750A  
                                                        u3161 7408  
                                                        u3081 719A  
                                                        u3241 59FA  
                                                        u3321 5CEC  
                                                        u3401 6D2C  
                                                        u4201 633E  
                                                        u2290 584A  
                                                        u2370 57C2  
                                                        u2610 7732  
                                                        u2530 7662  
                                                        u2450 7520  
                                                        u3170 7426  
                                                        u3090 71AE  
                                                        u3250 5A12  
                                                        u3330 5D3A  
                                                        u3410 6D34  
                                                        u4210 6346  
                                                        u2291 5846  
                                                        u2371 57BE  
                                                        u2611 772E  
                                                        u2531 765E  
                                                        u2451 751C  
                                                        u3171 7422  
                                                        u3091 71AA  
                                                        u3251 5A0E  
                                                        u3235 59C6  
                                                        u3331 5D36  
                                                        u2380 57E6  
                                                        u2700 787A  
                                                        u2620 7740  
                                                        u2540 767A  
                                                        u2460 7530  
                                                        u3180 746E  
                                                        u3260 5A3A  
                                                        u3340 5D58  
                                                        u3420 6D56  
                                                        u3500 7A88  
                                                        u4220 6390  
                                                        u2381 57E2  
                                                        u2701 7876  
                                                        u2621 773C  
                                                        u2541 7674  
                                                        u2461 752C  
                                                        u3181 746A  
                                                        u3261 5A36  
                                                        u3341 5D54  
                                                        u3421 6D52  
                                                        u3501 7A84  
                                                        u4221 638C  
                                                        u2390 58CE  
                                                        u2710 788A  
                                                        u2630 775E  
                                                        u2550 767C  
                                                        u2470 7572  
                                                        u3190 749C  
                                                        u3270 5A5A  
                                                        u3350 5D68  
                                                        u3430 6ED6  
                                                        u3510 7A98  
                                                        u4150 625E  
                                                        u2391 58CA  
                                                        u2711 7886  
                                                        u2631 775A  
                                                        u2471 756E  
                                                        u3191 7498  
                                                        u3271 5A56  
                                                        u3351 5D64  
                                                        u3431 6ED2  
                                                        u3511 7A94  
                                                        u4151 625A  
                                                        u3600 69A2  
                                                        u2800 7972  
                                                        u2720 789C  
                                                        u2640 7796  
                                                        u2560 76A4  
                                                        u2480 7588  
                                                        u3280 5A6A  
                                                        u3360 5D76  
                                                        u3440 70C4  
                                                        u3520 7B74  
                                                        u4160 62CA  
                                                        u3601 699E  
                                                        u2801 796E  
                                                        u2721 7898  
                                                        u2641 7792  
                                                        u2561 76A0  
                                                        u2481 7584  
                                                        u3281 5A66  
                                                        u3361 5D72  
                                                        u3441 70C0  
                                                        u3521 7B70  
                                                        u4161 62C6  
                                                        u3610 69E6  
                                                        u2810 7984  
                                                        u2730 78B2  
                                                        u2650 77DC  
                                                        u2570 76C2  
                                                        u2490 759A  
                                                        u3370 5DB0  
                                                        u3290 5C30  
                                                        u3530 7C4E  
                                                        u3450 79D6  
                                                        u4170 6300  
                                                        u3611 69E2  
                                                        u2811 7980  
                                                        u2731 78AE  
                                                        u2651 77D8  
                                                        u2571 76BE  
                                                        u2491 7596  
                                                        u3371 5DAC  
                                                        u3291 5C2C  
                                                        u3531 7C4A  
                                                        u3451 79D0  
                                                        u4171 62FC  
                                                        u2900 6734  
                                                        u3700 6B84  
                                                        u3620 69F8  
                                                        u2820 79A0  
                                                        u2740 78C8  
                                                        u2660 7812  
                                                        u2580 76E2  
                                                        u3380 5DBE  
                                                        u3540 7C6C  
                                                        u3460 79D8  
                                                        u4180 6320  
                                                        u2901 6730  
                                                        u3701 6B80  
                                                        u3621 69F4  
                                                        u2821 799C  
                                                        u2741 78C4  
                                                        u2661 780E  
                                                        u2581 76DE  
                                                        u3381 5DBA  
                                                        u3541 7C68  
                                                        u4181 631C  
                                                        u2830 5374  
                                                        u2910 6744  
                                                        u3390 55C6  
                                                        u3710 6BA2  
                                                        u3630 6A08  
                                                        u2750 78DC  
                                                        u2670 7822  
                                                        u2590 76F0  
                                                        u3550 7C7C  
                                                        u3470 79FA  
                                                        u4190 6332  
                                                        u2831 5370  
                                                        u2911 6740  
                                                        u3391 55C2  
                                                        u3711 6B9E  
                                                        u3631 6A04  
                                                        u2751 78D8  
                                                        u2671 781E  
                                                        u2591 76EC  
                                                        u3551 7C78  
                                                        u3471 79F6  
                                                        u4191 632E  
                                                        u2920 6754  
                                                        u2840 65FE  
                                                        u3800 6CEC  
                                                        u3720 6BC2  
                                                        u3640 6A48  
                                                        u2760 78F6  
                                                        u2680 784E  
                                                        u3560 7CFC  
                                                        u3480 7A10  
                                                        u2921 6750  
                                                        u2841 65FA  
                                                        u3801 6CE8  
                                                        u3721 6BBE  
                                                        u3641 6A44  
                                                        u2761 78F2  
                                                        u2681 784A  
                                                        u3561 7CF8  
                                                        u3481 7A0C  
                                                        u2930 67A0  
                                                        u2850 664A  
                                                        u3730 6BD4  
                                                        u3650 6A88  
                                                        u2770 7930  
                                                        u2690 785E  
                                                        u3570 7DA6  
                                                        u3490 7A6A  
                                                        u3810 5F8E  
                                                        u2931 679C  
                                                        u2851 6646  
                                                        u3731 6BD0  
                                                        u3651 6A84  
                                                        u2771 792C  
                                                        u2691 785A  
                                                        u3571 7DA2  
                                                        u3491 7A66  
                                                        u3811 5F8A  
                                                        u2940 67CC  
                                                        u2860 6666  
                                                        u3820 5A9E  
                                                        u3740 6C02  
                                                        u3660 6AFE  
                                                        u3580 6980  
                                                        u2780 7942  
                                                        u2941 67C8  
                                                        u2861 6662  
                                                        u3821 5A9A  
                                                        u3741 6BFE  
                                                        u3661 6AFA  
                                                        u3581 697C  
                                                        u2781 793E  
                                                        u2950 6806  
                                                        u2870 66BE  
                                                        u3830 5AD4  
                                                        u3750 6C18  
                                                        u3670 6B20  
                                                        u3590 6992  
                                                        u2790 7952  
                                                        u2951 6802  
                                                        u2871 66B8  
                                                        u3831 5AD0  
                                                        u3751 6C14  
                                                        u3671 6B1C  
                                                        u3591 698E  
                                                        u2791 794E  
                                                        u2960 683A  
                                                        u2880 66C0  
                                                        u3840 5B30  
                                                        u3760 6C2C  
                                                        u3680 6B4A  
                                                        u2961 6836  
                                                        u3841 5B28  
                                                        u3761 6C28  
                                                        u3681 6B46  
                                                        u2970 686E  
                                                        u2890 6724  
                                                        u3770 6C46  
                                                        u3690 6B6E  
                                                        u2971 686A  
                                                        u2891 6720  
                                                        u3771 6C42  
                                                        u3691 6B6A  
                                                        u2980 6892  
                                                        u3780 6C8E  
                                                        u2981 688E  
                                                        u3781 6C8A  
                                                        u2990 68DE  
                                                        u3790 6CBE  
                                                        u3791 6CBA  
                                                        u3865 5B84  
                                                        u3858 5B32  
                                                        u3874 53AE  
                                                        u3875 53AA  
                                                        u3884 53D4  
                                                        u2997 68D4  
                                                        u3885 53D0  
                                                        _WPUA 0401  
                                                        _WPUB 0409  
                                                        _WPUC 0411  
                                                        abs@a 0507  
                                                        _dbuf 0600  
                                                        _half 7F05  
                                                        _main 618E  
                                                        _exit 52CA  
                                                        _prec 05F5  
                                                        _sinf 79B4  
                                                        fsr0h 04EA  
                                                        fsr1h 04E2  
                                                        indf0 04EF  
                                                        fsr2h 04DA  
                                                        fsr0l 04E9  
                                                        indf1 04E7  
                                                        indf2 04DF  
                                                        fsr1l 04E1  
                                                        fsr2l 04D9  
                                   ?_INT2_SetInterruptHandler 0501  
                                                        prodh 04F4  
                                                        prodl 04F3  
                                                        start 7FFC  
                                             ___fldiv@new_exp 0539  
                                    vSPI_Enable@psSPI_Handler 0501  
                                               ___assert_fail 53EE  
                                                ___param_bank 0000  
                                                       ??_abs 0509  
                                               ___fltol@sign1 0559  
                                             __end_of___fladd 79B4  
                                                       ?_main 0501  
                                                       ?_exit 0503  
                                             __end_of___fldiv 6D00  
                                             __end_of___awdiv 58BC  
                                             __end_of___cosdf 618E  
                                             __end_of___flneg 54F6  
                                                       STR_10 7FE9  
                                                       STR_11 7FB6  
                                                       STR_12 7FA4  
                                                       STR_15 7F71  
                                                       STR_19 7FF2  
                                                       STR_43 7FDF  
                                                       STR_27 7F8B  
                                             __end_of___awmod 57F8  
                                                       STR_39 7F50  
                                                       STR_55 7F2D  
                                                       STR_49 7FD5  
                                                       ?_sinf 059B  
                                             __end_of___flmul 74F4  
                                             __end_of___flsub 553C  
                                             __end_of___fltol 5A8C  
                                             ___awdiv@divisor 0503  
                                                       _IOCAF 0407  
                                                       _IOCBF 040F  
                                                       _IOCCF 0417  
                                                       _IOCAN 0406  
                                                       _IOCAP 0405  
                                                       _IOCBN 040E  
                                                       _IOCCN 0416  
                                                       _IOCBP 040D  
                                                       _IOCCP 0415  
                                             __end_of___sindf 65DA  
                                      __end_of_DAC1_SetOutput 5258  
                                                ___sindf$2382 0568  
                                                ___sindf$2383 056C  
                                                ___sindf$2384 0570  
                                      ?_PWM1_16BIT_Initialize 0501  
                                             ___awdiv@counter 0505  
                                                       _OSCEN 00B3  
                                                vfpfcnvrt@fmt 050D  
                                                       _PORTB 04CF  
                                                       _TRISA 04C6  
                                                       _TRISB 04C7  
                                                       _TRISC 04C8  
                                                       __Exit 524A  
                                             __end_of_pio2_1t 7EFD  
            _PWM2_16BIT_Slice1Output1_DefaultInterruptHandler 0000  
            _PWM1_16BIT_Slice1Output1_DefaultInterruptHandler 0000  
                                                       _abort 52BE  
                                                       _fabsf 5488  
                                                       _flags 055D  
                                                       _count 055E  
                                                       _funcs 0620  
                                                       _fputc 58BC  
                                                       _width 05F3  
                                             __end_of_invpio2 7F05  
                                                       _putch 5244  
                                    _INT1_SetInterruptHandler 5262  
                                                       tablat 04F5  
                                                       sinf@n 05A7  
                                                       sinf@x 059B  
                                                       sinf@y 05AD  
                                                       plusw2 04DB  
                                                       status 04D8  
                                              ?___assert_fail 0531  
                                       _PWM2_16BIT_Initialize 563C  
                                             __initialization 553C  
                                         _vGenerateSinus$2374 05C7  
                                         _vGenerateSinus$2375 05CB  
                                         _vGenerateSinus$2376 05CF  
                                                __end_of_half 7F09  
                                                __end_of_main 63A8  
                                     __end_of_DAC1_Initialize 52BE  
                                                __end_of_exit 52DC  
                                                __end_of_sinf 7EC2  
                                             main@u32CounterA 05E5  
                                             main@u32CounterB 05D9  
                                                      ??_main 05D5  
                                                      ??_exit 0505  
                                                      ??_sinf 055D  
                                               __activetblptr 0002  
                                             ?_DAC1_SetOutput 0501  
               __end_of_PWM1_16BIT_Period_SetInterruptHandler 5280  
               __end_of_PWM2_16BIT_Period_SetInterruptHandler 529E  
                     ??_PWM2_16BIT_Period_SetInterruptHandler 0503  
                     ??_PWM1_16BIT_Period_SetInterruptHandler 0503  
                      ?_PWM2_16BIT_Period_SetInterruptHandler 0501  
                      ?_PWM1_16BIT_Period_SetInterruptHandler 0501  
                       _PWM1_16BIT_Period_SetInterruptHandler 5276  
                       _PWM2_16BIT_Period_SetInterruptHandler 5294  
                                                      ?__Exit 0501  
                                                      ?_abort 0501  
                                                      ?_fabsf 0501  
                                                      ?_fputc 0501  
                                                      _ACTCON 00AC  
                                            ___awdiv@dividend 0501  
                                                      _ANSELA 0400  
                                                      ?_putch 0501  
                                                      _ANSELB 0408  
                                                      _ANSELC 0410  
                                                      _RB4I2C 0287  
                                                      _RB6I2C 0286  
                                                      _RA4PPS 0205  
                                                      _RA5PPS 0206  
                                                      _RB4PPS 020D  
                                                      _RB5PPS 020E  
                                                      _RC5PPS 0216  
                                                      _ODCONA 0402  
                                                      _ODCONB 040A  
                                                      _ODCONC 0412  
                                                      _INLVLA 0404  
                                                      _INLVLB 040C  
                                                      _INLVLC 0414  
                                               ___rem_pio2f@n 0597  
                                               ___rem_pio2f@t 0593  
                                               ___rem_pio2f@x 057C  
                                               ___rem_pio2f@y 0580  
                                                      _OSCFRQ 00B1  
                                               vfpfcnvrt@done 0517  
                                            __end_of___xxtofl 5DD2  
                                     DAC1_SetOutput@inputData 0501  
                                           __end_of_SPI1_Host 7EDF  
                                                vfprintf@cfmt 0523  
                                                      _s1pio2 7F25  
                                                      _s2pio2 7F21  
                                                      _s3pio2 7F1D  
                                                      _s4pio2 7F19  
                                                _vSPI_Disable 52EE  
                                                   ??___fladd 0549  
                                                   ??___fldiv 0530  
                                                   ??___awdiv 0505  
                                                   ??___cosdf 0555  
                                                   ??___flneg 0555  
                                                   ??___awmod 0505  
                                                   ??___flmul 0517  
                                                   ??___flsub 0559  
                                                   ??___fltol 0555  
                                                   ??___sindf 0555  
                                                      _pio2_1 7EFD  
                                vSPI_ClearFIFOs@psSPI_Handler 0501  
                                                      fabsf@u 0505  
                                                      fabsf@x 0501  
                                                      clear_0 5562  
                                                      clear_1 556E  
                                            ___awdiv@quotient 0507  
                                             ___awmod@divisor 0503  
                                                      isa$std 0001  
                                             ___awmod@counter 0505  
                                                      _printf 5376  
                                           ?_CLOCK_Initialize 0501  
                                              _vRGB_GPIO_Init 5312  
                                                      fputc@c 0501  
                                _INT2_DefaultInterruptHandler 0000  
                                          ??_CLOCK_Initialize 0501  
                                                __mediumconst 7EC2  
                                                      sinf@ux 05B1  
                                                      tblptrh 04F7  
                                                      tblptrl 04F6  
                                                      tblptru 04F8  
                                                      putch@c 0501  
                                            __end_of_vfprintf 55D0  
                    INT2_SetInterruptHandler@InterruptHandler 0501  
                    INT1_SetInterruptHandler@InterruptHandler 0501  
                    INT0_SetInterruptHandler@InterruptHandler 0501  
       PWM2_16BIT_Period_SetInterruptHandler@InterruptHandler 0501  
PWM2_16BIT_Slice1Output2_SetInterruptHandler@InterruptHandler 0501  
PWM2_16BIT_Slice1Output1_SetInterruptHandler@InterruptHandler 0501  
       PWM1_16BIT_Period_SetInterruptHandler@InterruptHandler 0501  
PWM1_16BIT_Slice1Output2_SetInterruptHandler@InterruptHandler 0501  
PWM1_16BIT_Slice1Output1_SetInterruptHandler@InterruptHandler 0501  
                                              _SPI1_IsRxReady 0000  
                                              _SPI1_IsTxReady 0000  
                                                ___xxtofl@arg 050B  
                                                ___xxtofl@exp 050A  
                                           _SYSTEM_Initialize 5324  
                                                ___xxtofl@val 0501  
                                                  __accesstop 0560  
                                     __end_of__initialization 5578  
                                             ??___assert_fail 0539  
                                                  ___flneg@f1 0578  
                                              _SPI1_ByteWrite 0000  
                                          ?_SYSTEM_Initialize 0501  
                                      ?_PWM2_16BIT_Initialize 0501  
                                               ___rparam_used 0001  
                                                  ___fltol@f1 0551  
                                              __pcstackCOMRAM 0501  
                                               __end_of__Exit 5250  
                                                __pidataBANK6 5246  
                                         ??_SYSTEM_Initialize 0503  
                                            ?_DAC1_Initialize 0501  
                                               __end_of_abort 52CA  
                                               __end_of_fabsf 54BC  
                                   vSPI_Disable@psSPI_Handler 0501  
                                               __end_of_fputc 5986  
                                               __end_of_putch 5246  
                                                  __end_of_C0 7F19  
                                                  __end_of_C1 7F15  
                                                  __end_of_C2 7F11  
                                                  __end_of_C3 7F0D  
                                                  __end_of_S1 7EF9  
                                                  __end_of_S2 7EF5  
                                                  __end_of_S3 7EF1  
                                                  __end_of_S4 7EED  
                                      __end_of_vRGB_GPIO_Init 5324  
                                               ??_vGPIO_Reset 0504  
                                          _spi1_configuration 7EDF  
                                           ??___funcs_on_exit 0501  
                            __end_of_INT2_SetInterruptHandler 5276  
                                                     ??__Exit 0503  
                                                     ??_abort 0505  
                                                     ??_fabsf 0505  
                                           _s8SPI_Master_Init 5A8C  
                                                     ??_fputc 0505  
                                   __end_of_SYSTEM_Initialize 533E  
                                                     ??_putch 0501  
                                                  __pbssBANK5 05EB  
                                                  __pbssBANK6 0600  
                                          ?_s8SPI_Master_Init 0539  
                                       _INT0_InterruptHandler 068E  
                                         ??_s8SPI_Master_Init 053D  
                                   s8SPI_Master_Init@psConfig 053B  
                                                     _DAC1CON 007F  
                                             main@u8Direction 05EA  
                                               ??___rem_pio2f 055B  
                                           __end_of_vGPIO_Set 53C2  
                                     ??_PWM1_16BIT_Initialize 0503  
                                             vGenerateSinus@i 05D3  
                                             ?_vRGB_GPIO_Init 0501  
                                           ??_vSPI_ClearFIFOs 0503  
                                                     ?_printf 0525  
                                  ??_INT1_SetInterruptHandler 0503  
                                                   ?___xxtofl 0501  
                                   __end_of_s8SPI_Master_Init 5C1E  
                                                     _OSCCON1 00AD  
                                                     _OSCCON3 00AF  
                                              ___rem_pio2f@fn 058F  
                                              ___rem_pio2f@ty 0582  
                                              ___rem_pio2f@ux 058B  
                                                     _SPI1CLK 008C  
                                                     _SPI1RXB 0080  
                                                     _SPI1TXB 0081  
                                                     _OSCTUNE 00B0  
                                                     _PWM1CLK 0461  
                                                     _PWM1GIE 0468  
                                                     _PWM2CLK 0470  
                                                     _PWM1CON 0469  
                                                     _PWM2GIE 0477  
                                                     _PWM1GIR 0467  
                                                     _PWM2CON 0478  
                                                     _PWM2GIR 0476  
                                                     _PWM1ERS 0460  
                                                     _PWM1LDS 0462  
                                                     _PWM2ERS 046F  
                                                     _PWM2LDS 0471  
                                                     _PWM1PRH 0464  
                                                     _PWM1PRL 0463  
                                                     _PWM2PRH 0473  
                                                     _PWM2PRL 0472  
                                                     _SLRCONA 0403  
                                                     _SLRCONB 040B  
                                                     _SLRCONC 0413  
                                         __end_of_vGPIO_Reset 53EE  
                                     vGenerateSinus@u32Offset 05BF  
                                   ?_INT0_SetInterruptHandler 0501  
                                                     __Hparam 0000  
                                                     __Lparam 0000  
                                               ??_vSPI_Enable 0503  
                                                     ___fladd 74F4  
                                                     ___fldiv 6966  
                                                     ___awdiv 57F8  
                                                     ___cosdf 5F90  
                                                     ___flneg 54BC  
                                                     ___awmod 5748  
                                                     ___flmul 70CA  
                                                     ___flsub 54F6  
                                                     ___fltol 5986  
                                                     ___sindf 63A8  
                                            ??_DAC1_SetOutput 0501  
                                                   ?_vfprintf 051D  
                                                     __pcinit 553C  
                                                     __ramtop 0D00  
                                                     __ptext0 618E  
                                                     __ptext1 5312  
                                                     __ptext2 5DD2  
                                                     __ptext3 79B4  
                                                     __ptext4 63A8  
                                                     __ptext5 6D00  
                                                     __ptext6 5488  
                                                     __ptext7 5C1E  
                                                     __ptext8 5986  
                                                     __ptext9 54F6  
                                                     _pio2_1t 7EF9  
        __end_of_PWM1_16BIT_Slice1Output1_SetInterruptHandler 528A  
        __end_of_PWM2_16BIT_Slice1Output1_SetInterruptHandler 52A8  
              ??_PWM2_16BIT_Slice1Output1_SetInterruptHandler 0503  
              ??_PWM1_16BIT_Slice1Output1_SetInterruptHandler 0503  
               ?_PWM2_16BIT_Slice1Output1_SetInterruptHandler 0501  
               ?_PWM1_16BIT_Slice1Output1_SetInterruptHandler 0501  
                _PWM1_16BIT_Slice1Output1_SetInterruptHandler 5280  
                _PWM2_16BIT_Slice1Output1_SetInterruptHandler 529E  
                                                  ??___xxtofl 0505  
                                         __end_of___rem_pio2f 70CA  
                                            ___awmod@dividend 0501  
                                                     _invpio2 7F01  
                                    ??_PIN_MANAGER_Initialize 0501  
                                            ___rem_pio2f$2381 0586  
                                        end_of_initialization 5578  
            _PWM2_16BIT_Slice1Output2_DefaultInterruptHandler 0000  
            _PWM1_16BIT_Slice1Output2_DefaultInterruptHandler 0000  
                                    _INT2_SetInterruptHandler 526C  
                                                   _PIR10bits 04BD  
                                                     fputc@fp 0503  
                                            ___rem_pio2f@F526 05EF  
                                               __Lmediumconst 7EC2  
                                            vfpfcnvrt@cp_1964 0513  
                                            ___rem_pio2f@sign 058A  
                                           __end_of_vfpfcnvrt 6966  
                                             _SPI1_BufferRead 0000  
                                                   _SPI1TCNTH 0083  
                                                   _SPI1TCNTL 0082  
                                                     postdec1 04E5  
                                                     postdec2 04DD  
                                                   _PWM1S1CFG 046A  
                                                   _PWM1S1P1H 046C  
                                                   _PWM1S1P2H 046E  
                                                   _PWM1S1P1L 046B  
                                                   _PWM1S1P2L 046D  
                                                   _PWM2S1CFG 0479  
                                                   _PWM2S1P1H 047B  
                                                     postinc0 04EE  
                                                   _PWM2S1P2H 047D  
                                                     postinc1 04E6  
                                                     postinc2 04DE  
                                                   _PWM2S1P1L 047A  
                                                   _PWM2S1P2L 047C  
                                            vfpfcnvrt@convarg 0518  
                                                  main@F14137 0694  
                                                   _PWM1PIPOS 0466  
                                                   _PWM2PIPOS 0475  
                                                  ??_vfprintf 0523  
                                                   _SPI1_Host 7EC3  
                                                   _SPI1_Open 0000  
                                         __end_of_vSPI_Enable 5312  
                                       _INT1_InterruptHandler 068C  
                                         _SPI1_BufferExchange 0000  
                                                 _vGPIO_Reset 53C2  
                                                 ___fladd@grs 0550  
                                               ___xxtofl@sign 0509  
                                                   _TRISBbits 04C7  
                                                 ___fldiv@grs 053B  
                                                 ___fldiv@rem 0534  
                                     ??_PWM2_16BIT_Initialize 0503  
                                                 ___flmul@grs 051C  
                                       vGPIO_Set@pu8GPIO_Port 0501  
                                             _SPI1_Initialize 0000  
                                             ___funcs_on_exit 535A  
                                __end_of_INTERRUPT_Initialize 5454  
                                              __end_of_s1pio2 7F29  
                                              __end_of_s2pio2 7F25  
                                              __end_of_s3pio2 7F21  
                                              __end_of_s4pio2 7F1D  
                                _INT0_DefaultInterruptHandler 0000  
                                                 vfpfcnvrt@ap 050F  
                                                 vfpfcnvrt@cp 0515  
                                                 ___rem_pio2f 6D00  
                                                 vfpfcnvrt@fp 050B  
                                              __end_of_pio2_1 7F01  
                                              __end_of_printf 539C  
                                         start_initialization 553C  
                                              _vGenerateSinus 5DD2  
                                                 __end_of_abs 5488  
                                       __end_of___assert_fail 5420  
                                             _vSPI_ClearFIFOs 52DC  
                                                 vfprintf@fmt 051F  
                                                 _vSPI_Enable 5300  
                                            ??_vRGB_GPIO_Init 0501  
                                                 __pdataBANK6 0694  
                                                    ??_printf 052F  
                               __end_of_PWM1_16BIT_Initialize 563C  
                                                   _vGPIO_Set 539C  
                                                   ___fladd@a 0545  
                                                   ___fladd@b 0541  
                                               _SPI1_ByteRead 0000  
                                                   ___fldiv@a 052C  
                                                   ___fldiv@b 0528  
                                      __end_of_vGenerateSinus 5F90  
                                                   ___cosdf@r 0560  
                                                   ___cosdf@w 0570  
                                                   ___cosdf@x 0551  
                                                   ___cosdf@z 0574  
                                                   ___flmul@a 0513  
                                                   ___flmul@b 050F  
                                                 __pbssCOMRAM 055D  
                                                   ___flsub@a 0555  
                                                   ___flsub@b 0551  
                            __end_of_INT0_SetInterruptHandler 5262  
                                               __pcstackBANK5 0560  
                                                   ___sindf@r 0560  
                                                   ___sindf@s 0574  
                                                   ___sindf@w 0564  
                                                   ___sindf@x 0551  
                                                   ___sindf@z 0578  
                                       _INT2_InterruptHandler 068A  
                                     __end_of___funcs_on_exit 5376  
                                                   __pnvBANK5 05F7  
                                                   __pnvBANK6 068A  
                                      _PIN_MANAGER_Initialize 56A8  
                                               __pmediumconst 7EC2  
                                                    ?___fladd 0541  
                                                    ?___fldiv 0528  
                                                    ?___awdiv 0501  
                                                    ?___cosdf 0551  
                                                    ?___flneg 0578  
                                                    ?___awmod 0501  
                                                    ?___flmul 050F  
                                                    ?___flsub 0551  
                                                    ?___fltol 0551  
                                                    ?___sindf 0551  
                                                    _DAC1DATL 007D  
                                                  ?_vGPIO_Set 0501  
                                                   fabsf@F465 05EB  
                                  ??_INT2_SetInterruptHandler 0503  
                                             ?_vGenerateSinus 05B5  
                                            vGenerateSinus@PI 7F29  
                                                   _sinf$2045 059F  
                                                   _sinf$2046 05A3  
                                                   _sinf$2377 05A9  
                                        _INTERRUPT_Initialize 5420  
                                     __end_of_vSPI_ClearFIFOs 52EE  
                   _PWM2_16BIT_Period_DefaultInterruptHandler 0000  
                   _PWM1_16BIT_Period_DefaultInterruptHandler 0000  
                                            _CLOCK_Initialize 533E  
                                   ?_INT1_SetInterruptHandler 0501  
                          _PWM2_16BIT_Period_InterruptHandler 0690  
                                                    _PIE3bits 04AB  
                                                    _PIE4bits 04AC  
                                                    _PIE5bits 04AD  
                                                _SPI1CON0bits 0084  
                                                    _PIR1bits 04B4  
                                                    _SPI1BAUD 0089  
                                                    _PIR3bits 04B6  
                                                    _PIR4bits 04B7  
                                                    _SPI1CON0 0084  
                                                    _SPI1CON1 0085  
                                                    _SPI1CON2 0086  
                                                    _PIR5bits 04B8  
                                                    _PIR6bits 04B9  
                                               ?_vSPI_Disable 0501  
                                                    _PWM1CPRE 0465  
                                                    _PWM2CPRE 0474  
                                vGenerateSinus@pu8OutputArray 05B5  
                                                   _vfpfcnvrt 65DA  
                                                _SPI1INTFbits 008A  
                                           _SPI1_Deinitialize 0000  
                                                ?_vGPIO_Reset 0501  
        __end_of_PWM1_16BIT_Slice1Output2_SetInterruptHandler 5294  
        __end_of_PWM2_16BIT_Slice1Output2_SetInterruptHandler 52B2  
              ??_PWM2_16BIT_Slice1Output2_SetInterruptHandler 0503  
              ??_PWM1_16BIT_Slice1Output2_SetInterruptHandler 0503  
               ?_PWM2_16BIT_Slice1Output2_SetInterruptHandler 0501  
               ?_PWM1_16BIT_Slice1Output2_SetInterruptHandler 0501  
                _PWM1_16BIT_Slice1Output2_SetInterruptHandler 528A  
                _PWM2_16BIT_Slice1Output2_SetInterruptHandler 52A8  
                                                  vfpfcnvrt@c 051C  
                                     vGPIO_Reset@pu8GPIO_Port 0501  
                                                 _INTCON0bits 04D6  
                   _PWM1_16BIT_Slice1Output1_InterruptHandler 05FD  
                   _PWM2_16BIT_Slice1Output1_InterruptHandler 05F7  
                                                   copy_data0 5550  
                                       ?_INTERRUPT_Initialize 0501  
                                           ??_DAC1_Initialize 0501  
                                    _INT0_SetInterruptHandler 5258  
                                    vGenerateSinus@u32Samples 05B7  
                               __end_of_PWM2_16BIT_Initialize 56A8  
                                            ?___funcs_on_exit 0501  
                                                    __Exit@ec 0501  
                                                    __Hrparam 0000  
                                              ??_vSPI_Disable 0503  
                                                  vfprintf@ap 0521  
                                                    __Lrparam 0000  
                                                  vfprintf@fp 051D  
                                                ?___rem_pio2f 057C  
                                                  ?_vfpfcnvrt 050B  
                                                 ??_vGPIO_Set 0504  
                                                    ___xxtofl 5C1E  
                                                    __ptext10 54BC  
                                                    __ptext11 5F90  
                                                    __ptext20 52DC  
                                                    __ptext12 70CA  
                                                    __ptext21 53EE  
                                                    __ptext13 74F4  
                                                    __ptext30 52BE  
                                                    __ptext22 5376  
                                                    __ptext14 6966  
                                                    __ptext31 52CA  
                                                    __ptext23 5582  
                                                    __ptext15 539C  
                                                    __ptext40 528A  
                                                    __ptext32 535A  
                                                    __ptext24 65DA  
                                                    __ptext16 53C2  
                                                    __ptext41 5280  
                                                    __ptext33 524A  
                                                    __ptext25 58BC  
                                                    __ptext17 5A8C  
                                                    __ptext50 5250  
                                                    __ptext42 5276  
                                                    __ptext34 5324  
                                                    __ptext26 5244  
                                                    __ptext18 5300  
                                                    __ptext43 56A8  
                                                    __ptext35 563C  
                                                    __ptext27 5454  
                                                    __ptext19 52EE  
                                                    __ptext44 5420  
                                                    __ptext36 52A8  
                                                    __ptext28 5748  
                                                    __ptext45 526C  
                                                    __ptext37 529E  
                                                    __ptext29 57F8  
                                                    __ptext46 5262  
                                                    __ptext38 5294  
                                                    __ptext47 5258  
                                                    __ptext39 55D0  
                                                    __ptext48 52B2  
                                                    __ptext49 533E  
                                            main@au8SinusWave 0626  
                                            ?_vSPI_ClearFIFOs 0501  
                                  vGenerateSinus@u32Amplitude 05BB  
                                                ?_vSPI_Enable 0501  
                                                    isa$xinst 0000  
                          _PWM1_16BIT_Period_InterruptHandler 05F9  
                                                    _vfprintf 5582  
                                                   printf@fmt 0525  
                                _INT1_DefaultInterruptHandler 0000  
                                                 _PWM1GIEbits 0468  
                                                 _PWM1CONbits 0469  
                                                 _PWM2GIEbits 0477  
                                                    exit@code 0503  
                                                 _PWM1GIRbits 0467  
                                                 _PWM2CONbits 0478  
                                                 _PWM2GIRbits 0476  
                                      ??_INTERRUPT_Initialize 0503  
                                     ?_PIN_MANAGER_Initialize 0501  
                                                    sinf@sign 05A8  
                                    __end_ofvGenerateSinus@PI 7F2D  
                                                  _SPI1SCKPPS 026A  
                                                  _SPI1SDIPPS 026B  
                              s8SPI_Master_Init@psSPI_Handler 0539  
                                                    printf@ap 052F  
                                            _SPI1_BufferWrite 0000  
                   _PWM2_16BIT_Slice1Output2_InterruptHandler 0692  
                   _PWM1_16BIT_Slice1Output2_InterruptHandler 05FB  
                                            ??_vGenerateSinus 05C3  
                                                 ??_vfpfcnvrt 0511  
                                    __end_of_CLOCK_Initialize 535A  
                                                  _SPI1_Close 0000  
                                         vGPIO_Set@u8GPIO_Pin 0503  
                                       _PWM1_16BIT_Initialize 55D0  
                            __end_of_INT1_SetInterruptHandler 526C  
                                        __end_of_vSPI_Disable 5300  
                                               ___fladd@signs 054D  
                              __end_of_PIN_MANAGER_Initialize 5748  
                                                ___fladd@aexp 054E  
                                                ___fladd@bexp 054F  
                                                ___cosdf$2380 056C  
                                                ___cosdf$2378 0564  
                                                ___cosdf$2379 0568  
                                  __end_of_spi1_configuration 7EE9  
