

Microchip MPLAB XC8 Assembler V2.46 build 20240104201356 
                                                                                               Sat Jul 20 09:59:45 2024

Microchip MPLAB XC8 C Compiler v2.46 (Free license) build 20240104201356 Og1 
     1                           	processor	18F15Q41
     2                           	fnconf	rparam,??,?,0
     3                           	pagewidth 120
     4                           	opt	flic
     5                           	psect	idataBIGRAM,global,class=CODE,delta=1,noexec
     6                           	psect	smallconst,global,reloc=2,class=SMALLCONST,delta=1,noexec
     7                           	psect	nvCOMRAM,global,class=COMRAM,space=1,delta=1,lowdata,noexec
     8                           	psect	nvBANK5,global,class=BANK5,space=1,delta=1,lowdata,noexec
     9                           	psect	cinit,global,reloc=2,class=CODE,delta=1
    10                           	psect	bssBANK5,global,class=BANK5,space=1,delta=1,lowdata,noexec
    11                           	psect	bssBANK6,global,class=BANK6,space=1,delta=1,lowdata,noexec
    12                           	psect	dataBIGRAM,global,class=BIGRAM,space=1,delta=1,noexec
    13                           	psect	cstackBANK5,global,class=BANK5,space=1,delta=1,lowdata,noexec
    14                           	psect	cstackCOMRAM,global,class=COMRAM,space=1,delta=1,lowdata,noexec
    15                           	psect	text0,global,reloc=2,class=CODE,delta=1
    16                           	psect	text1,global,reloc=2,class=CODE,delta=1
    17                           	psect	text2,global,reloc=2,class=CODE,delta=1,group=2
    18                           	psect	text3,global,reloc=2,class=CODE,delta=1,group=2
    19                           	psect	text4,global,reloc=2,class=CODE,delta=1,group=2
    20                           	psect	text5,global,reloc=2,class=CODE,delta=1,group=2
    21                           	psect	text6,global,reloc=2,class=CODE,delta=1,group=1
    22                           	psect	text7,global,reloc=2,class=CODE,delta=1,group=1
    23                           	psect	text8,global,reloc=2,class=CODE,delta=1,group=1
    24                           	psect	text9,global,reloc=2,class=CODE,delta=1,group=1
    25                           	psect	text10,global,reloc=2,class=CODE,delta=1,group=2
    26                           	psect	text11,global,reloc=2,class=CODE,delta=1,group=1
    27                           	psect	text12,global,reloc=2,class=CODE,delta=1,group=1
    28                           	psect	text13,global,reloc=2,class=CODE,delta=1,group=1
    29                           	psect	text14,global,reloc=2,class=CODE,delta=1
    30                           	psect	text15,global,reloc=2,class=CODE,delta=1
    31                           	psect	text16,global,reloc=2,class=CODE,delta=1
    32                           	psect	text17,global,reloc=2,class=CODE,delta=1
    33                           	psect	text18,global,reloc=2,class=CODE,delta=1
    34                           	psect	text19,global,reloc=2,class=CODE,delta=1
    35                           	psect	text20,global,reloc=2,class=CODE,delta=1
    36                           	psect	text21,global,reloc=2,class=CODE,delta=1
    37                           	psect	text22,global,reloc=2,class=CODE,delta=1
    38                           	psect	text23,global,reloc=2,class=CODE,delta=1
    39                           	psect	text24,global,reloc=2,class=CODE,delta=1
    40                           	psect	text25,global,reloc=2,class=CODE,delta=1
    41                           	psect	text26,global,reloc=2,class=CODE,delta=1
    42                           	psect	text27,global,reloc=2,class=CODE,delta=1
    43                           	psect	text28,global,reloc=2,class=CODE,delta=1
    44                           	psect	text29,global,reloc=2,class=CODE,delta=1
    45                           	psect	text30,global,reloc=2,class=CODE,delta=1
    46                           	psect	text31,global,reloc=2,class=CODE,delta=1
    47                           	psect	intsave_regs,global,class=BIGRAM,space=1,delta=1,noexec
    48                           	psect	rparam,global,class=COMRAM,space=1,delta=1,noexec
    49                           	psect	config,global,abs,ovrld,class=CONFIG,space=4,delta=1,noexec
    50   000000                     
    51                           ; Generated 18/12/2023 GMT
    52                           ; 
    53                           ; Copyright © 2023, Microchip Technology Inc. and its subsidiaries ("Microchip")
    54                           ; All rights reserved.
    55                           ; 
    56                           ; This software is developed by Microchip Technology Inc. and its subsidiaries ("Microch
      +                          ip").
    57                           ; 
    58                           ; Redistribution and use in source and binary forms, with or without modification, are
    59                           ; permitted provided that the following conditions are met:
    60                           ; 
    61                           ;     1. Redistributions of source code must retain the above copyright notice, this lis
      +                          t of
    62                           ;        conditions and the following disclaimer.
    63                           ; 
    64                           ;     2. Redistributions in binary form must reproduce the above copyright notice, this 
      +                          list
    65                           ;        of conditions and the following disclaimer in the documentation and/or other
    66                           ;        materials provided with the distribution. Publication is not required when
    67                           ;        this file is used in an embedded application.
    68                           ; 
    69                           ;     3. Microchip's name may not be used to endorse or promote products derived from th
      +                          is
    70                           ;        software without specific prior written permission.
    71                           ; 
    72                           ; THIS SOFTWARE IS PROVIDED BY MICROCHIP "AS IS" AND ANY EXPRESS OR IMPLIED WARRANTIES,
    73                           ; INCLUDING, BUT NOT LIMITED TO, THE IMPLIED WARRANTIES OF MERCHANTABILITY AND FITNESS F
      +                          OR
    74                           ; PURPOSE ARE DISCLAIMED.  IN NO EVENT SHALL MICROCHIP BE LIABLE FOR ANY DIRECT, INDIREC
      +                          T,
    75                           ; INCIDENTAL, SPECIAL, EXEMPLARY, OR CONSEQUENTIAL DAMAGES (INCLUDING BUT NOT LIMITED TO
    76                           ; PROCUREMENT OF SUBSTITUTE GOODS OR SERVICES; LOSS OF USE, DATA OR PROFITS; OR BUSINESS
    77                           ; INTERRUPTION) HOWSOEVER CAUSED AND ON ANY THEORY OF LIABILITY, WHETHER IN CONTRACT, ST
      +                          RICT
    78                           ; LIABILITY, OR TORT (INCLUDING NEGLIGENCE OR OTHERWISE) ARISING IN ANY WAY OUT OF THE U
      +                          SE OF
    79                           ; THIS SOFTWARE, EVEN IF ADVISED OF THE POSSIBILITY OF SUCH DAMAGE.
    80                           ; 
    81                           ; 
    82                           ; Code-generator required, PIC18F15Q41 Definitions
    83                           ; 
    84                           ; SFR Addresses
    85   000000                     
    86 ;; Function _PWM1_16BIT_Slice1Output1_DefaultInterruptHandler is unused but had its address taken
    87   000000                     
    88 ;; Function _PWM1_16BIT_Slice1Output2_DefaultInterruptHandler is unused but had its address taken
    89   000000                     
    90 ;; Function _PWM1_16BIT_Period_DefaultInterruptHandler is unused but had its address taken
    91   000000                     
    92 ;; Function _PWM2_16BIT_Slice1Output1_DefaultInterruptHandler is unused but had its address taken
    93   000000                     
    94 ;; Function _PWM2_16BIT_Slice1Output2_DefaultInterruptHandler is unused but had its address taken
    95   000000                     
    96 ;; Function _PWM2_16BIT_Period_DefaultInterruptHandler is unused but had its address taken
    97   000000                     
    98 ;; Function _SPI1_Deinitialize is unused but had its address taken
    99   000000                     
   100 ;; Function _SPI1_Open is unused but had its address taken
   101   000000                     
   102 ;; Function _SPI1_Close is unused but had its address taken
   103   000000                     
   104 ;; Function _SPI1_BufferExchange is unused but had its address taken
   105   000000                     
   106 ;; Function _SPI1_BufferWrite is unused but had its address taken
   107   000000                     
   108 ;; Function _SPI1_BufferRead is unused but had its address taken
   109   000000                     
   110 ;; Function _SPI1_ByteExchange is unused but had its address taken
   111   000000                     
   112 ;; Function _SPI1_ByteWrite is unused but had its address taken
   113   000000                     
   114 ;; Function _SPI1_ByteRead is unused but had its address taken
   115   000000                     
   116 ;; Function _SPI1_IsTxReady is unused but had its address taken
   117   000000                     
   118 ;; Function _SPI1_IsRxReady is unused but had its address taken
   119   000000                     
   120 ;; Function _INT0_DefaultInterruptHandler is unused but had its address taken
   121   000000                     
   122 ;; Function _INT1_DefaultInterruptHandler is unused but had its address taken
   123   000000                     
   124 ;; Function _INT2_DefaultInterruptHandler is unused but had its address taken
   125   000000                     
   126                           	psect	idataBIGRAM
   127   000D68                     __pidataBIGRAM:
   128                           	callstack 0
   129                           
   130                           ;initializer for _rawData
   131   000D68  86                 	db	134
   132   000D69  85                 	db	133
   133   000D6A  84                 	db	132
   134   000D6B  84                 	db	132
   135   000D6C  84                 	db	132
   136   000D6D  85                 	db	133
   137   000D6E  85                 	db	133
   138   000D6F  86                 	db	134
   139   000D70  85                 	db	133
   140   000D71  85                 	db	133
   141   000D72  85                 	db	133
   142   000D73  85                 	db	133
   143   000D74  86                 	db	134
   144   000D75  86                 	db	134
   145   000D76  87                 	db	135
   146   000D77  86                 	db	134
   147   000D78  85                 	db	133
   148   000D79  84                 	db	132
   149   000D7A  83                 	db	131
   150   000D7B  83                 	db	131
   151   000D7C  84                 	db	132
   152   000D7D  85                 	db	133
   153   000D7E  87                 	db	135
   154   000D7F  89                 	db	137
   155   000D80  8A                 	db	138
   156   000D81  8A                 	db	138
   157   000D82  8B                 	db	139
   158   000D83  8A                 	db	138
   159   000D84  8A                 	db	138
   160   000D85  89                 	db	137
   161   000D86  89                 	db	137
   162   000D87  88                 	db	136
   163   000D88  87                 	db	135
   164   000D89  87                 	db	135
   165   000D8A  87                 	db	135
   166   000D8B  88                 	db	136
   167   000D8C  89                 	db	137
   168   000D8D  89                 	db	137
   169   000D8E  89                 	db	137
   170   000D8F  88                 	db	136
   171   000D90  87                 	db	135
   172   000D91  87                 	db	135
   173   000D92  86                 	db	134
   174   000D93  84                 	db	132
   175   000D94  81                 	db	129
   176   000D95  7F                 	db	127
   177   000D96  7D                 	db	125
   178   000D97  7D                 	db	125
   179   000D98  7E                 	db	126
   180   000D99  7F                 	db	127
   181   000D9A  7F                 	db	127
   182   000D9B  7D                 	db	125
   183   000D9C  7B                 	db	123
   184   000D9D  7A                 	db	122
   185   000D9E  79                 	db	121
   186   000D9F  79                 	db	121
   187   000DA0  79                 	db	121
   188   000DA1  78                 	db	120
   189   000DA2  77                 	db	119
   190   000DA3  75                 	db	117
   191   000DA4  72                 	db	114
   192   000DA5  6F                 	db	111
   193   000DA6  6F                 	db	111
   194   000DA7  72                 	db	114
   195   000DA8  76                 	db	118
   196   000DA9  7A                 	db	122
   197   000DAA  7A                 	db	122
   198   000DAB  77                 	db	119
   199   000DAC  74                 	db	116
   200   000DAD  72                 	db	114
   201   000DAE  72                 	db	114
   202   000DAF  73                 	db	115
   203   000DB0  72                 	db	114
   204   000DB1  70                 	db	112
   205   000DB2  6E                 	db	110
   206   000DB3  6C                 	db	108
   207   000DB4  6D                 	db	109
   208   000DB5  6F                 	db	111
   209   000DB6  72                 	db	114
   210   000DB7  74                 	db	116
   211   000DB8  74                 	db	116
   212   000DB9  74                 	db	116
   213   000DBA  74                 	db	116
   214   000DBB  73                 	db	115
   215   000DBC  71                 	db	113
   216   000DBD  6D                 	db	109
   217   000DBE  6A                 	db	106
   218   000DBF  68                 	db	104
   219   000DC0  69                 	db	105
   220   000DC1  6A                 	db	106
   221   000DC2  69                 	db	105
   222   000DC3  68                 	db	104
   223   000DC4  68                 	db	104
   224   000DC5  69                 	db	105
   225   000DC6  6B                 	db	107
   226   000DC7  6C                 	db	108
   227   000DC8  6C                 	db	108
   228   000DC9  6A                 	db	106
   229   000DCA  6A                 	db	106
   230   000DCB  6B                 	db	107
   231   000DCC  6C                 	db	108
   232   000DCD  6D                 	db	109
   233   000DCE  6C                 	db	108
   234   000DCF  6A                 	db	106
   235   000DD0  68                 	db	104
   236   000DD1  68                 	db	104
   237   000DD2  6B                 	db	107
   238   000DD3  6F                 	db	111
   239   000DD4  73                 	db	115
   240   000DD5  74                 	db	116
   241   000DD6  73                 	db	115
   242   000DD7  73                 	db	115
   243   000DD8  74                 	db	116
   244   000DD9  76                 	db	118
   245   000DDA  78                 	db	120
   246   000DDB  78                 	db	120
   247   000DDC  79                 	db	121
   248   000DDD  79                 	db	121
   249   000DDE  7B                 	db	123
   250   000DDF  7D                 	db	125
   251   000DE0  7F                 	db	127
   252   000DE1  82                 	db	130
   253   000DE2  84                 	db	132
   254   000DE3  86                 	db	134
   255   000DE4  89                 	db	137
   256   000DE5  8B                 	db	139
   257   000DE6  8B                 	db	139
   258   000DE7  89                 	db	137
   259   000DE8  87                 	db	135
   260   000DE9  84                 	db	132
   261   000DEA  84                 	db	132
   262   000DEB  85                 	db	133
   263   000DEC  87                 	db	135
   264   000DED  88                 	db	136
   265   000DEE  89                 	db	137
   266   000DEF  8A                 	db	138
   267   000DF0  8B                 	db	139
   268   000DF1  8C                 	db	140
   269   000DF2  8D                 	db	141
   270   000DF3  8D                 	db	141
   271   000DF4  8C                 	db	140
   272   000DF5  8C                 	db	140
   273   000DF6  8C                 	db	140
   274   000DF7  8A                 	db	138
   275   000DF8  87                 	db	135
   276   000DF9  84                 	db	132
   277   000DFA  82                 	db	130
   278   000DFB  80                 	db	128
   279   000DFC  81                 	db	129
   280   000DFD  82                 	db	130
   281   000DFE  84                 	db	132
   282   000DFF  86                 	db	134
   283   000E00  87                 	db	135
   284   000E01  87                 	db	135
   285   000E02  86                 	db	134
   286   000E03  84                 	db	132
   287   000E04  83                 	db	131
   288   000E05  83                 	db	131
   289   000E06  83                 	db	131
   290   000E07  83                 	db	131
   291   000E08  83                 	db	131
   292   000E09  82                 	db	130
   293   000E0A  82                 	db	130
   294   000E0B  83                 	db	131
   295   000E0C  84                 	db	132
   296   000E0D  85                 	db	133
   297   000E0E  86                 	db	134
   298   000E0F  87                 	db	135
   299   000E10  87                 	db	135
   300   000E11  87                 	db	135
   301   000E12  87                 	db	135
   302   000E13  87                 	db	135
   303   000E14  86                 	db	134
   304   000E15  86                 	db	134
   305   000E16  87                 	db	135
   306   000E17  89                 	db	137
   307   000E18  8C                 	db	140
   308   000E19  8E                 	db	142
   309   000E1A  8F                 	db	143
   310   000E1B  8E                 	db	142
   311   000E1C  8D                 	db	141
   312   000E1D  8C                 	db	140
   313   000E1E  8C                 	db	140
   314   000E1F  8D                 	db	141
   315   000E20  8E                 	db	142
   316   000E21  8E                 	db	142
   317   000E22  8E                 	db	142
   318   000E23  8D                 	db	141
   319   000E24  8C                 	db	140
   320   000E25  8C                 	db	140
   321   000E26  8C                 	db	140
   322   000E27  8D                 	db	141
   323   000E28  8D                 	db	141
   324   000E29  8C                 	db	140
   325   000E2A  8C                 	db	140
   326   000E2B  8C                 	db	140
   327   000E2C  8C                 	db	140
   328   000E2D  8B                 	db	139
   329   000E2E  8B                 	db	139
   330   000E2F  8A                 	db	138
   331   000E30  8A                 	db	138
   332   000E31  89                 	db	137
   333   000E32  89                 	db	137
   334   000E33  88                 	db	136
   335   000E34  87                 	db	135
   336   000E35  86                 	db	134
   337   000E36  85                 	db	133
   338   000E37  84                 	db	132
   339   000E38  84                 	db	132
   340   000E39  84                 	db	132
   341   000E3A  85                 	db	133
   342   000E3B  85                 	db	133
   343   000E3C  85                 	db	133
   344   000E3D  84                 	db	132
   345   000E3E  84                 	db	132
   346   000E3F  85                 	db	133
   347   000E40  86                 	db	134
   348   000E41  86                 	db	134
   349   000E42  85                 	db	133
   350   000E43  84                 	db	132
   351   000E44  83                 	db	131
   352   000E45  83                 	db	131
   353   000E46  83                 	db	131
   354   000E47  83                 	db	131
   355   000E48  82                 	db	130
   356   000E49  83                 	db	131
   357   000E4A  84                 	db	132
   358   000E4B  85                 	db	133
   359   000E4C  87                 	db	135
   360   000E4D  88                 	db	136
   361   000E4E  88                 	db	136
   362   000E4F  88                 	db	136
   363   000E50  87                 	db	135
   364   000E51  87                 	db	135
   365   000E52  87                 	db	135
   366   000E53  87                 	db	135
   367   000E54  86                 	db	134
   368   000E55  85                 	db	133
   369   000E56  85                 	db	133
   370   000E57  85                 	db	133
   371   000E58  86                 	db	134
   372   000E59  87                 	db	135
   373   000E5A  87                 	db	135
   374   000E5B  86                 	db	134
   375   000E5C  84                 	db	132
   376   000E5D  83                 	db	131
   377   000E5E  83                 	db	131
   378   000E5F  83                 	db	131
   379   000E60  82                 	db	130
   380   000E61  80                 	db	128
   381   000E62  7E                 	db	126
   382   000E63  7C                 	db	124
   383   000E64  7D                 	db	125
   384   000E65  7D                 	db	125
   385   000E66  7D                 	db	125
   386   000E67  7C                 	db	124
   387   000E68  7B                 	db	123
   388   000E69  7A                 	db	122
   389   000E6A  79                 	db	121
   390   000E6B  79                 	db	121
   391   000E6C  7A                 	db	122
   392   000E6D  79                 	db	121
   393   000E6E  78                 	db	120
   394   000E6F  76                 	db	118
   395   000E70  73                 	db	115
   396   000E71  70                 	db	112
   397   000E72  6F                 	db	111
   398   000E73  6F                 	db	111
   399   000E74  73                 	db	115
   400   000E75  78                 	db	120
   401   000E76  7A                 	db	122
   402   000E77  79                 	db	121
   403   000E78  76                 	db	118
   404   000E79  73                 	db	115
   405   000E7A  73                 	db	115
   406   000E7B  74                 	db	116
   407   000E7C  73                 	db	115
   408   000E7D  72                 	db	114
   409   000E7E  6F                 	db	111
   410   000E7F  6D                 	db	109
   411   000E80  6B                 	db	107
   412   000E81  6C                 	db	108
   413   000E82  6F                 	db	111
   414   000E83  72                 	db	114
   415   000E84  73                 	db	115
   416   000E85  73                 	db	115
   417   000E86  73                 	db	115
   418   000E87  73                 	db	115
   419   000E88  73                 	db	115
   420   000E89  70                 	db	112
   421   000E8A  6D                 	db	109
   422   000E8B  6A                 	db	106
   423   000E8C  69                 	db	105
   424   000E8D  6A                 	db	106
   425   000E8E  6A                 	db	106
   426   000E8F  6A                 	db	106
   427   000E90  69                 	db	105
   428   000E91  68                 	db	104
   429   000E92  69                 	db	105
   430   000E93  6B                 	db	107
   431   000E94  6D                 	db	109
   432   000E95  6D                 	db	109
   433   000E96  6C                 	db	108
   434   000E97  6C                 	db	108
   435   000E98  6D                 	db	109
   436   000E99  6D                 	db	109
   437   000E9A  6C                 	db	108
   438   000E9B  6A                 	db	106
   439   000E9C  69                 	db	105
   440   000E9D  68                 	db	104
   441   000E9E  6A                 	db	106
   442   000E9F  6E                 	db	110
   443   000EA0  72                 	db	114
   444   000EA1  74                 	db	116
   445   000EA2  74                 	db	116
   446   000EA3  74                 	db	116
   447   000EA4  74                 	db	116
   448   000EA5  76                 	db	118
   449   000EA6  78                 	db	120
   450   000EA7  79                 	db	121
   451   000EA8  79                 	db	121
   452   000EA9  79                 	db	121
   453   000EAA  79                 	db	121
   454   000EAB  7B                 	db	123
   455   000EAC  7D                 	db	125
   456   000EAD  7F                 	db	127
   457   000EAE  82                 	db	130
   458   000EAF  84                 	db	132
   459   000EB0  87                 	db	135
   460   000EB1  89                 	db	137
   461   000EB2  8A                 	db	138
   462   000EB3  8A                 	db	138
   463   000EB4  87                 	db	135
   464   000EB5  85                 	db	133
   465   000EB6  84                 	db	132
   466   000EB7  84                 	db	132
   467   000EB8  85                 	db	133
   468   000EB9  86                 	db	134
   469   000EBA  86                 	db	134
   470   000EBB  87                 	db	135
   471   000EBC  87                 	db	135
   472   000EBD  89                 	db	137
   473   000EBE  8A                 	db	138
   474   000EBF  8A                 	db	138
   475   000EC0  8B                 	db	139
   476   000EC1  8B                 	db	139
   477   000EC2  8B                 	db	139
   478   000EC3  8B                 	db	139
   479   000EC4  89                 	db	137
   480   000EC5  86                 	db	134
   481   000EC6  83                 	db	131
   482   000EC7  81                 	db	129
   483   000EC8  80                 	db	128
   484   000EC9  81                 	db	129
   485   000ECA  83                 	db	131
   486   000ECB  85                 	db	133
   487   000ECC  87                 	db	135
   488   000ECD  89                 	db	137
   489   000ECE  88                 	db	136
   490   000ECF  87                 	db	135
   491   000ED0  85                 	db	133
   492   000ED1  85                 	db	133
   493   000ED2  85                 	db	133
   494   000ED3  86                 	db	134
   495   000ED4  86                 	db	134
   496   000ED5  86                 	db	134
   497   000ED6  85                 	db	133
   498   000ED7  85                 	db	133
   499   000ED8  86                 	db	134
   500   000ED9  88                 	db	136
   501   000EDA  89                 	db	137
   502   000EDB  8A                 	db	138
   503   000EDC  8A                 	db	138
   504   000EDD  8B                 	db	139
   505   000EDE  8B                 	db	139
   506   000EDF  8B                 	db	139
   507   000EE0  8A                 	db	138
   508   000EE1  89                 	db	137
   509   000EE2  89                 	db	137
   510   000EE3  8A                 	db	138
   511   000EE4  8C                 	db	140
   512   000EE5  8F                 	db	143
   513   000EE6  91                 	db	145
   514   000EE7  91                 	db	145
   515   000EE8  90                 	db	144
   516   000EE9  8E                 	db	142
   517   000EEA  8D                 	db	141
   518   000EEB  8D                 	db	141
   519   000EEC  8F                 	db	143
   520   000EED  8F                 	db	143
   521   000EEE  8F                 	db	143
   522   000EEF  8E                 	db	142
   523   000EF0  8D                 	db	141
   524   000EF1  8C                 	db	140
   525   000EF2  8C                 	db	140
   526   000EF3  8B                 	db	139
   527   000EF4  8B                 	db	139
   528   000EF5  8A                 	db	138
   529   000EF6  8A                 	db	138
   530   000EF7  8B                 	db	139
   531   000EF8  8B                 	db	139
   532   000EF9  8C                 	db	140
   533   000EFA  8B                 	db	139
   534   000EFB  89                 	db	137
   535   000EFC  89                 	db	137
   536   000EFD  88                 	db	136
   537   000EFE  89                 	db	137
   538   000EFF  88                 	db	136
   539   000F00  87                 	db	135
   540   000F01  85                 	db	133
   541   000F02  83                 	db	131
   542   000F03  81                 	db	129
   543   000F04  80                 	db	128
   544   000F05  81                 	db	129
   545   000F06  83                 	db	131
   546   000F07  84                 	db	132
   547   000F08  85                 	db	133
   548   000F09  84                 	db	132
   549   000F0A  84                 	db	132
   550   000F0B  84                 	db	132
   551   000F0C  85                 	db	133
   552   000F0D  85                 	db	133
   553   000F0E  84                 	db	132
   554   000F0F  83                 	db	131
   555   000F10  82                 	db	130
   556   000F11  81                 	db	129
   557   000F12  81                 	db	129
   558   000F13  81                 	db	129
   559   000F14  82                 	db	130
   560   000F15  82                 	db	130
   561   000F16  83                 	db	131
   562   000F17  85                 	db	133
   563   000F18  86                 	db	134
   564   000F19  87                 	db	135
   565   000F1A  88                 	db	136
   566   000F1B  88                 	db	136
   567   000F1C  87                 	db	135
   568   000F1D  86                 	db	134
   569   000F1E  86                 	db	134
   570   000F1F  85                 	db	133
   571   000F20  85                 	db	133
   572   000F21  84                 	db	132
   573   000F22  85                 	db	133
   574   000F23  85                 	db	133
   575   000F24  87                 	db	135
   576   000F25  88                 	db	136
   577   000F26  88                 	db	136
   578   000F27  87                 	db	135
   579   000F28  86                 	db	134
   580   000F29  85                 	db	133
   581   000F2A  84                 	db	132
   582   000F2B  84                 	db	132
   583   000F2C  83                 	db	131
   584   000F2D  81                 	db	129
   585   000F2E  7E                 	db	126
   586   000F2F  7D                 	db	125
   587   000F30  7D                 	db	125
   588   000F31  7E                 	db	126
   589   000F32  7F                 	db	127
   590   000F33  7F                 	db	127
   591   000F34  7E                 	db	126
   592   000F35  7C                 	db	124
   593   000F36  7B                 	db	123
   594   000F37  7A                 	db	122
   595   000F38  7A                 	db	122
   596   000F39  7A                 	db	122
   597   000F3A  79                 	db	121
   598   000F3B  77                 	db	119
   599   000F3C  75                 	db	117
   600   000F3D  72                 	db	114
   601   000F3E  71                 	db	113
   602   000F3F  70                 	db	112
   603   000F40  70                 	db	112
   604   000F41  73                 	db	115
   605   000F42  77                 	db	119
   606   000F43  79                 	db	121
   607   000F44  79                 	db	121
   608   000F45  76                 	db	118
   609   000F46  73                 	db	115
   610   000F47  72                 	db	114
   611   000F48  72                 	db	114
   612   000F49  71                 	db	113
   613   000F4A  6F                 	db	111
   614   000F4B  6D                 	db	109
   615   000F4C  6B                 	db	107
   616   000F4D  6A                 	db	106
   617   000F4E  6A                 	db	106
   618   000F4F  6C                 	db	108
   619   000F50  6F                 	db	111
   620   000F51  71                 	db	113
   621   000F52  72                 	db	114
   622   000F53  71                 	db	113
   623   000F54  71                 	db	113
   624   000F55  70                 	db	112
   625   000F56  6D                 	db	109
   626   000F57  69                 	db	105
   627   000F58  66                 	db	102
   628   000F59  65                 	db	101
   629   000F5A  65                 	db	101
   630   000F5B  66                 	db	102
   631   000F5C  67                 	db	103
   632   000F5D  67                 	db	103
   633   000F5E  67                 	db	103
   634   000F5F  69                 	db	105
   635   000F60  6B                 	db	107
   636   000F61  6B                 	db	107
   637   000F62  6B                 	db	107
   638   000F63  6A                 	db	106
   639   000F64  6A                 	db	106
   640   000F65  6B                 	db	107
   641   000F66  6C                 	db	108
   642   000F67  6B                 	db	107
   643   000F68  69                 	db	105
   644   000F69  68                 	db	104
   645   000F6A  69                 	db	105
   646   000F6B  6C                 	db	108
   647   000F6C  70                 	db	112
   648   000F6D  75                 	db	117
   649   000F6E  78                 	db	120
   650   000F6F  78                 	db	120
   651   000F70  78                 	db	120
   652   000F71  78                 	db	120
   653   000F72  79                 	db	121
   654   000F73  7A                 	db	122
   655   000F74  7B                 	db	123
   656   000F75  7B                 	db	123
   657   000F76  7C                 	db	124
   658   000F77  7D                 	db	125
   659   000F78  7F                 	db	127
   660   000F79  81                 	db	129
   661   000F7A  83                 	db	131
   662   000F7B  86                 	db	134
   663   000F7C  89                 	db	137
   664   000F7D  8C                 	db	140
   665   000F7E  8D                 	db	141
   666   000F7F  8E                 	db	142
   667   000F80  8C                 	db	140
   668   000F81  8A                 	db	138
   669   000F82  88                 	db	136
   670   000F83  87                 	db	135
   671   000F84  87                 	db	135
   672   000F85  87                 	db	135
   673   000F86  88                 	db	136
   674   000F87  88                 	db	136
   675   000F88  89                 	db	137
   676   000F89  8A                 	db	138
   677   000F8A  8C                 	db	140
   678   000F8B  8C                 	db	140
   679   000F8C  8C                 	db	140
   680   000F8D  8C                 	db	140
   681   000F8E  8C                 	db	140
   682   000F8F  8C                 	db	140
   683   000F90  8C                 	db	140
   684   000F91  8A                 	db	138
   685   000F92  86                 	db	134
   686   000F93  83                 	db	131
   687   000F94  81                 	db	129
   688   000F95  81                 	db	129
   689   000F96  81                 	db	129
   690   000F97  82                 	db	130
   691   000F98  84                 	db	132
   692   000F99  86                 	db	134
   693   000F9A  87                 	db	135
   694   000F9B  88                 	db	136
   695   000F9C  87                 	db	135
   696   000F9D  85                 	db	133
   697   000F9E  84                 	db	132
   698   000F9F  84                 	db	132
   699   000FA0  84                 	db	132
   700   000FA1  84                 	db	132
   701   000FA2  85                 	db	133
   702   000FA3  84                 	db	132
   703   000FA4  84                 	db	132
   704   000FA5  84                 	db	132
   705   000FA6  85                 	db	133
   706   000FA7  86                 	db	134
   707   000FA8  88                 	db	136
   708   000FA9  89                 	db	137
   709   000FAA  8A                 	db	138
   710   000FAB  8A                 	db	138
   711   000FAC  8A                 	db	138
   712   000FAD  89                 	db	137
   713   000FAE  87                 	db	135
   714   000FAF  87                 	db	135
   715   000FB0  88                 	db	136
   716   000FB1  8B                 	db	139
   717   000FB2  8E                 	db	142
   718   000FB3  90                 	db	144
   719   000FB4  91                 	db	145
   720   000FB5  8F                 	db	143
   721   000FB6  8D                 	db	141
   722   000FB7  8D                 	db	141
   723   000FB8  8E                 	db	142
   724   000FB9  8F                 	db	143
   725   000FBA  90                 	db	144
   726   000FBB  90                 	db	144
   727   000FBC  8F                 	db	143
   728   000FBD  8E                 	db	142
   729   000FBE  8D                 	db	141
   730   000FBF  8D                 	db	141
   731   000FC0  8D                 	db	141
   732   000FC1  8D                 	db	141
   733   000FC2  8C                 	db	140
   734   000FC3  8B                 	db	139
   735   000FC4  8C                 	db	140
   736   000FC5  8D                 	db	141
   737   000FC6  8D                 	db	141
   738   000FC7  8D                 	db	141
   739   000FC8  8C                 	db	140
   740   000FC9  8B                 	db	139
   741   000FCA  8B                 	db	139
   742   000FCB  8B                 	db	139
   743   000FCC  8A                 	db	138
   744   000FCD  89                 	db	137
   745   000FCE  87                 	db	135
   746   000FCF  85                 	db	133
   747   000FD0  83                 	db	131
   748   000FD1  82                 	db	130
   749   000FD2  82                 	db	130
   750   000FD3  83                 	db	131
   751   000FD4  84                 	db	132
   752   000FD5  85                 	db	133
   753   000FD6  86                 	db	134
   754   000FD7  86                 	db	134
   755   000FD8  85                 	db	133
   756   000FD9  84                 	db	132
   757   000FDA  84                 	db	132
   758   000FDB  82                 	db	130
   759   000FDC  81                 	db	129
   760   000FDD  81                 	db	129
   761   000FDE  82                 	db	130
   762   000FDF  82                 	db	130
   763   000FE0  82                 	db	130
   764   000FE1  81                 	db	129
   765   000FE2  80                 	db	128
   766   000FE3  81                 	db	129
   767   000FE4  82                 	db	130
   768   000FE5  84                 	db	132
   769   000FE6  85                 	db	133
   770   000FE7  86                 	db	134
   771   000FE8  86                 	db	134
   772   000FE9  84                 	db	132
   773   000FEA  83                 	db	131
   774   000FEB  83                 	db	131
   775   000FEC  83                 	db	131
   776   000FED  83                 	db	131
   777   000FEE  83                 	db	131
   778   000FEF  82                 	db	130
   779   000FF0  82                 	db	130
   780   000FF1  83                 	db	131
   781   000FF2  84                 	db	132
   782   000FF3  85                 	db	133
   783   000FF4  85                 	db	133
   784   000FF5  83                 	db	131
   785   000FF6  82                 	db	130
   786   000FF7  81                 	db	129
   787   000FF8  80                 	db	128
   788   000FF9  80                 	db	128
   789   000FFA  7F                 	db	127
   790   000FFB  7D                 	db	125
   791   000FFC  7C                 	db	124
   792   000FFD  7B                 	db	123
   793   000FFE  7A                 	db	122
   794   000FFF  7B                 	db	123
   795   001000  7C                 	db	124
   796   001001  7C                 	db	124
   797   001002  7C                 	db	124
   798   001003  7B                 	db	123
   799   001004  79                 	db	121
   800   001005  78                 	db	120
   801   001006  77                 	db	119
   802   001007  77                 	db	119
   803   001008  77                 	db	119
   804   001009  76                 	db	118
   805   00100A  75                 	db	117
   806   00100B  73                 	db	115
   807   00100C  71                 	db	113
   808   00100D  6E                 	db	110
   809   00100E  6E                 	db	110
   810   00100F  72                 	db	114
   811   001010  77                 	db	119
   812   001011  7B                 	db	123
   813   001012  7B                 	db	123
   814   001013  78                 	db	120
   815   001014  75                 	db	117
   816   001015  74                 	db	116
   817   001016  73                 	db	115
   818   001017  73                 	db	115
   819   001018  71                 	db	113
   820   001019  6F                 	db	111
   821   00101A  6C                 	db	108
   822   00101B  6B                 	db	107
   823   00101C  6C                 	db	108
   824   00101D  6E                 	db	110
   825   00101E  72                 	db	114
   826   00101F  74                 	db	116
   827   001020  75                 	db	117
   828   001021  74                 	db	116
   829   001022  73                 	db	115
   830   001023  72                 	db	114
   831   001024  70                 	db	112
   832   001025  6C                 	db	108
   833   001026  69                 	db	105
   834   001027  68                 	db	104
   835   001028  68                 	db	104
   836   001029  6A                 	db	106
   837   00102A  6B                 	db	107
   838   00102B  6B                 	db	107
   839   00102C  6C                 	db	108
   840   00102D  6D                 	db	109
   841   00102E  6E                 	db	110
   842   00102F  6E                 	db	110
   843   001030  6D                 	db	109
   844   001031  6C                 	db	108
   845   001032  6C                 	db	108
   846   001033  6D                 	db	109
   847   001034  6D                 	db	109
   848   001035  6D                 	db	109
   849   001036  6D                 	db	109
   850   001037  6D                 	db	109
   851   001038  6E                 	db	110
   852   001039  70                 	db	112
   853   00103A  72                 	db	114
   854   00103B  75                 	db	117
   855   00103C  78                 	db	120
   856   00103D  79                 	db	121
   857   00103E  79                 	db	121
   858   00103F  78                 	db	120
   859   001040  78                 	db	120
   860   001041  79                 	db	121
   861   001042  79                 	db	121
   862   001043  79                 	db	121
   863   001044  7A                 	db	122
   864   001045  7B                 	db	123
   865   001046  7D                 	db	125
   866   001047  7F                 	db	127
   867   001048  81                 	db	129
   868   001049  83                 	db	131
   869   00104A  86                 	db	134
   870   00104B  88                 	db	136
   871   00104C  89                 	db	137
   872   00104D  8A                 	db	138
   873   00104E  89                 	db	137
   874   00104F  88                 	db	136
   875   001050  86                 	db	134
   876   001051  84                 	db	132
   877   001052  82                 	db	130
   878   001053  82                 	db	130
   879   001054  83                 	db	131
   880   001055  84                 	db	132
   881   001056  85                 	db	133
   882   001057  87                 	db	135
   883   001058  88                 	db	136
   884   001059  88                 	db	136
   885   00105A  88                 	db	136
   886   00105B  89                 	db	137
   887   00105C  89                 	db	137
   888   00105D  8A                 	db	138
   889   00105E  8A                 	db	138
   890   00105F  88                 	db	136
   891   001060  84                 	db	132
   892   001061  82                 	db	130
   893   001062  80                 	db	128
   894   001063  7F                 	db	127
   895   001064  80                 	db	128
   896   001065  81                 	db	129
   897   001066  84                 	db	132
   898   001067  87                 	db	135
   899   001068  89                 	db	137
   900   001069  89                 	db	137
   901   00106A  87                 	db	135
   902   00106B  85                 	db	133
   903   00106C  84                 	db	132
   904   00106D  84                 	db	132
   905   00106E  85                 	db	133
   906   00106F  85                 	db	133
   907   001070  85                 	db	133
   908   001071  85                 	db	133
   909   001072  86                 	db	134
   910   001073  87                 	db	135
   911   001074  88                 	db	136
   912   001075  8A                 	db	138
   913   001076  8C                 	db	140
   914   001077  8D                 	db	141
   915   001078  8C                 	db	140
   916   001079  8B                 	db	139
   917   00107A  8B                 	db	139
   918   00107B  8A                 	db	138
   919   00107C  8A                 	db	138
   920   00107D  8A                 	db	138
   921   00107E  8B                 	db	139
   922   00107F  8E                 	db	142
   923   001080  91                 	db	145
   924   001081  93                 	db	147
   925   001082  93                 	db	147
   926   001083  91                 	db	145
   927   001084  90                 	db	144
   928   001085  90                 	db	144
   929   001086  90                 	db	144
   930   001087  91                 	db	145
   931   001088  91                 	db	145
   932   001089  91                 	db	145
   933   00108A  91                 	db	145
   934   00108B  90                 	db	144
   935   00108C  8F                 	db	143
   936   00108D  8F                 	db	143
   937   00108E  8E                 	db	142
   938   00108F  8D                 	db	141
   939   001090  8C                 	db	140
   940   001091  8C                 	db	140
   941   001092  8D                 	db	141
   942   001093  8E                 	db	142
   943   001094  8E                 	db	142
   944   001095  8D                 	db	141
   945   001096  8C                 	db	140
   946   001097  8B                 	db	139
   947   001098  8A                 	db	138
   948   001099  8A                 	db	138
   949   00109A  8A                 	db	138
   950   00109B  88                 	db	136
   951   00109C  86                 	db	134
   952   00109D  84                 	db	132
   953   00109E  83                 	db	131
   954   00109F  82                 	db	130
   955   0010A0  82                 	db	130
   956   0010A1  82                 	db	130
   957   0010A2  83                 	db	131
   958   0010A3  84                 	db	132
   959   0010A4  84                 	db	132
   960   0010A5  84                 	db	132
   961   0010A6  83                 	db	131
   962   0010A7  81                 	db	129
   963   0010A8  80                 	db	128
   964   0010A9  7F                 	db	127
   965   0010AA  7F                 	db	127
   966   0010AB  7F                 	db	127
   967   0010AC  80                 	db	128
   968   0010AD  80                 	db	128
   969   0010AE  7F                 	db	127
   970   0010AF  7E                 	db	126
   971   0010B0  7D                 	db	125
   972   0010B1  7E                 	db	126
   973   0010B2  80                 	db	128
   974   0010B3  81                 	db	129
   975   0010B4  82                 	db	130
   976   0010B5  82                 	db	130
   977   0010B6  81                 	db	129
   978   0010B7  80                 	db	128
   979   0010B8  80                 	db	128
   980   0010B9  80                 	db	128
   981   0010BA  80                 	db	128
   982   0010BB  80                 	db	128
   983   0010BC  80                 	db	128
   984   0010BD  81                 	db	129
   985   0010BE  81                 	db	129
   986   0010BF  82                 	db	130
   987   0010C0  83                 	db	131
   988   0010C1  83                 	db	131
   989   0010C2  83                 	db	131
   990   0010C3  82                 	db	130
   991   0010C4  80                 	db	128
   992   0010C5  7F                 	db	127
   993   0010C6  7F                 	db	127
   994   0010C7  80                 	db	128
   995   0010C8  7F                 	db	127
   996   0010C9  7F                 	db	127
   997   0010CA  7E                 	db	126
   998   0010CB  7D                 	db	125
   999   0010CC  7C                 	db	124
  1000   0010CD  7D                 	db	125
  1001   0010CE  7E                 	db	126
  1002   0010CF  7F                 	db	127
  1003   0010D0  7E                 	db	126
  1004   0010D1  7C                 	db	124
  1005   0010D2  7B                 	db	123
  1006   0010D3  7A                 	db	122
  1007   0010D4  7B                 	db	123
  1008   0010D5  7B                 	db	123
  1009   0010D6  7B                 	db	123
  1010   0010D7  7A                 	db	122
  1011   0010D8  78                 	db	120
  1012   0010D9  76                 	db	118
  1013   0010DA  75                 	db	117
  1014   0010DB  73                 	db	115
  1015   0010DC  71                 	db	113
  1016   0010DD  71                 	db	113
  1017   0010DE  75                 	db	117
  1018   0010DF  7B                 	db	123
  1019   0010E0  7F                 	db	127
  1020   0010E1  7F                 	db	127
  1021   0010E2  7B                 	db	123
  1022   0010E3  76                 	db	118
  1023   0010E4  73                 	db	115
  1024   0010E5  72                 	db	114
  1025   0010E6  72                 	db	114
  1026   0010E7  70                 	db	112
  1027   0010E8  6E                 	db	110
  1028   0010E9  6C                 	db	108
  1029   0010EA  6B                 	db	107
  1030   0010EB  6C                 	db	108
  1031   0010EC  70                 	db	112
  1032   0010ED  74                 	db	116
  1033   0010EE  75                 	db	117
  1034   0010EF  74                 	db	116
  1035   0010F0  73                 	db	115
  1036   0010F1  72                 	db	114
  1037   0010F2  70                 	db	112
  1038   0010F3  6D                 	db	109
  1039   0010F4  6A                 	db	106
  1040   0010F5  67                 	db	103
  1041   0010F6  66                 	db	102
  1042   0010F7  68                 	db	104
  1043   0010F8  6A                 	db	106
  1044   0010F9  6B                 	db	107
  1045   0010FA  6B                 	db	107
  1046   0010FB  6A                 	db	106
  1047   0010FC  6A                 	db	106
  1048   0010FD  6B                 	db	107
  1049   0010FE  6B                 	db	107
  1050   0010FF  6B                 	db	107
  1051   001100  6A                 	db	106
  1052   001101  6B                 	db	107
  1053   001102  6C                 	db	108
  1054   001103  6D                 	db	109
  1055   001104  6D                 	db	109
  1056   001105  6E                 	db	110
  1057   001106  6D                 	db	109
  1058   001107  6D                 	db	109
  1059   001108  6E                 	db	110
  1060   001109  70                 	db	112
  1061   00110A  73                 	db	115
  1062   00110B  76                 	db	118
  1063   00110C  77                 	db	119
  1064   00110D  76                 	db	118
  1065   00110E  76                 	db	118
  1066   00110F  76                 	db	118
  1067   001110  78                 	db	120
  1068   001111  79                 	db	121
  1069   001112  7A                 	db	122
  1070   001113  7A                 	db	122
  1071   001114  7B                 	db	123
  1072   001115  7D                 	db	125
  1073   001116  7E                 	db	126
  1074   001117  80                 	db	128
  1075   001118  82                 	db	130
  1076   001119  84                 	db	132
  1077   00111A  86                 	db	134
  1078   00111B  88                 	db	136
  1079   00111C  89                 	db	137
  1080   00111D  89                 	db	137
  1081   00111E  87                 	db	135
  1082   00111F  85                 	db	133
  1083   001120  83                 	db	131
  1084   001121  82                 	db	130
  1085   001122  83                 	db	131
  1086   001123  84                 	db	132
  1087   001124  86                 	db	134
  1088   001125  86                 	db	134
  1089   001126  87                 	db	135
  1090   001127  89                 	db	137
  1091   001128  89                 	db	137
  1092   001129  8A                 	db	138
  1093   00112A  8B                 	db	139
  1094   00112B  8C                 	db	140
  1095   00112C  8C                 	db	140
  1096   00112D  8B                 	db	139
  1097   00112E  89                 	db	137
  1098   00112F  86                 	db	134
  1099   001130  84                 	db	132
  1100   001131  83                 	db	131
  1101   001132  83                 	db	131
  1102   001133  84                 	db	132
  1103   001134  86                 	db	134
  1104   001135  88                 	db	136
  1105   001136  8B                 	db	139
  1106   001137  8C                 	db	140
  1107   001138  8D                 	db	141
  1108   001139  8B                 	db	139
  1109   00113A  8A                 	db	138
  1110   00113B  89                 	db	137
  1111   00113C  88                 	db	136
  1112   00113D  89                 	db	137
  1113   00113E  89                 	db	137
  1114   00113F  8A                 	db	138
  1115   001140  8B                 	db	139
  1116   001141  8B                 	db	139
  1117   001142  8C                 	db	140
  1118   001143  8D                 	db	141
  1119   001144  8E                 	db	142
  1120   001145  90                 	db	144
  1121   001146  90                 	db	144
  1122   001147  8F                 	db	143
  1123   001148  8E                 	db	142
  1124   001149  8E                 	db	142
  1125   00114A  8D                 	db	141
  1126   00114B  8D                 	db	141
  1127   00114C  8D                 	db	141
  1128   00114D  8E                 	db	142
  1129   00114E  91                 	db	145
  1130   00114F  93                 	db	147
  1131   001150  94                 	db	148
  1132   001151  94                 	db	148
  1133   001152  92                 	db	146
  1134   001153  91                 	db	145
  1135   001154  90                 	db	144
  1136   001155  8F                 	db	143
  1137   001156  8F                 	db	143
  1138   001157  90                 	db	144
  1139   001158  90                 	db	144
  1140   001159  90                 	db	144
  1141   00115A  8F                 	db	143
  1142   00115B  8E                 	db	142
  1143   00115C  8D                 	db	141
  1144   00115D  8C                 	db	140
  1145   00115E  8B                 	db	139
  1146   00115F  8B                 	db	139
  1147   001160  8B                 	db	139
  1148   001161  8C                 	db	140
  1149   001162  8B                 	db	139
  1150   001163  8B                 	db	139
  1151   001164  8A                 	db	138
  1152   001165  89                 	db	137
  1153   001166  88                 	db	136
  1154   001167  88                 	db	136
  1155   001168  87                 	db	135
  1156   001169  86                 	db	134
  1157   00116A  85                 	db	133
  1158   00116B  83                 	db	131
  1159   00116C  81                 	db	129
  1160   00116D  80                 	db	128
  1161   00116E  7F                 	db	127
  1162   00116F  80                 	db	128
  1163   001170  81                 	db	129
  1164   001171  82                 	db	130
  1165   001172  82                 	db	130
  1166   001173  81                 	db	129
  1167   001174  80                 	db	128
  1168   001175  80                 	db	128
  1169   001176  7F                 	db	127
  1170   001177  7E                 	db	126
  1171   001178  7E                 	db	126
  1172   001179  7D                 	db	125
  1173   00117A  7D                 	db	125
  1174   00117B  7D                 	db	125
  1175   00117C  7D                 	db	125
  1176   00117D  7E                 	db	126
  1177   00117E  7E                 	db	126
  1178   00117F  7E                 	db	126
  1179   001180  7E                 	db	126
  1180   001181  7F                 	db	127
  1181   001182  80                 	db	128
  1182   001183  80                 	db	128
  1183   001184  80                 	db	128
  1184   001185  80                 	db	128
  1185   001186  7F                 	db	127
  1186   001187  7F                 	db	127
  1187   001188  7F                 	db	127
  1188   001189  80                 	db	128
  1189   00118A  81                 	db	129
  1190   00118B  81                 	db	129
  1191   00118C  82                 	db	130
  1192   00118D  83                 	db	131
  1193   00118E  83                 	db	131
  1194   00118F  83                 	db	131
  1195   001190  83                 	db	131
  1196   001191  82                 	db	130
  1197   001192  81                 	db	129
  1198   001193  80                 	db	128
  1199   001194  7F                 	db	127
  1200   001195  80                 	db	128
  1201   001196  81                 	db	129
  1202   001197  81                 	db	129
  1203   001198  80                 	db	128
  1204   001199  7F                 	db	127
  1205   00119A  7F                 	db	127
  1206   00119B  7F                 	db	127
  1207   00119C  7E                 	db	126
  1208   00119D  7E                 	db	126
  1209   00119E  7D                 	db	125
  1210   00119F  7D                 	db	125
  1211   0011A0  7C                 	db	124
  1212   0011A1  7B                 	db	123
  1213   0011A2  7B                 	db	123
  1214   0011A3  7C                 	db	124
  1215   0011A4  7B                 	db	123
  1216   0011A5  7A                 	db	122
  1217   0011A6  79                 	db	121
  1218   0011A7  77                 	db	119
  1219   0011A8  76                 	db	118
  1220   0011A9  75                 	db	117
  1221   0011AA  72                 	db	114
  1222   0011AB  70                 	db	112
  1223   0011AC  6F                 	db	111
  1224   0011AD  72                 	db	114
  1225   0011AE  78                 	db	120
  1226   0011AF  7D                 	db	125
  1227   0011B0  7D                 	db	125
  1228   0011B1  79                 	db	121
  1229   0011B2  73                 	db	115
  1230   0011B3  70                 	db	112
  1231   0011B4  6F                 	db	111
  1232   0011B5  70                 	db	112
  1233   0011B6  6E                 	db	110
  1234   0011B7  6C                 	db	108
  1235   0011B8  6A                 	db	106
  1236   0011B9  69                 	db	105
  1237   0011BA  6B                 	db	107
  1238   0011BB  6D                 	db	109
  1239   0011BC  70                 	db	112
  1240   0011BD  72                 	db	114
  1241   0011BE  71                 	db	113
  1242   0011BF  70                 	db	112
  1243   0011C0  6E                 	db	110
  1244   0011C1  6D                 	db	109
  1245   0011C2  6B                 	db	107
  1246   0011C3  68                 	db	104
  1247   0011C4  66                 	db	102
  1248   0011C5  66                 	db	102
  1249   0011C6  68                 	db	104
  1250   0011C7  6A                 	db	106
  1251   0011C8  6B                 	db	107
  1252   0011C9  6A                 	db	106
  1253   0011CA  69                 	db	105
  1254   0011CB  69                 	db	105
  1255   0011CC  6A                 	db	106
  1256   0011CD  6C                 	db	108
  1257   0011CE  6C                 	db	108
  1258   0011CF  6C                 	db	108
  1259   0011D0  6B                 	db	107
  1260   0011D1  6C                 	db	108
  1261   0011D2  6D                 	db	109
  1262   0011D3  6E                 	db	110
  1263   0011D4  6F                 	db	111
  1264   0011D5  6F                 	db	111
  1265   0011D6  70                 	db	112
  1266   0011D7  71                 	db	113
  1267   0011D8  73                 	db	115
  1268   0011D9  76                 	db	118
  1269   0011DA  79                 	db	121
  1270   0011DB  7A                 	db	122
  1271   0011DC  79                 	db	121
  1272   0011DD  78                 	db	120
  1273   0011DE  78                 	db	120
  1274   0011DF  7A                 	db	122
  1275   0011E0  7C                 	db	124
  1276   0011E1  7D                 	db	125
  1277   0011E2  7E                 	db	126
  1278   0011E3  7F                 	db	127
  1279   0011E4  80                 	db	128
  1280   0011E5  82                 	db	130
  1281   0011E6  83                 	db	131
  1282   0011E7  85                 	db	133
  1283   0011E8  87                 	db	135
  1284   0011E9  89                 	db	137
  1285   0011EA  8B                 	db	139
  1286   0011EB  8B                 	db	139
  1287   0011EC  8B                 	db	139
  1288   0011ED  8A                 	db	138
  1289   0011EE  89                 	db	137
  1290   0011EF  87                 	db	135
  1291   0011F0  87                 	db	135
  1292   0011F1  87                 	db	135
  1293   0011F2  88                 	db	136
  1294   0011F3  89                 	db	137
  1295   0011F4  89                 	db	137
  1296   0011F5  8A                 	db	138
  1297   0011F6  8B                 	db	139
  1298   0011F7  8B                 	db	139
  1299   0011F8  8C                 	db	140
  1300   0011F9  8C                 	db	140
  1301   0011FA  8D                 	db	141
  1302   0011FB  8E                 	db	142
  1303   0011FC  8E                 	db	142
  1304   0011FD  8C                 	db	140
  1305   0011FE  8A                 	db	138
  1306   0011FF  87                 	db	135
  1307   001200  85                 	db	133
  1308   001201  85                 	db	133
  1309   001202  85                 	db	133
  1310   001203  87                 	db	135
  1311   001204  89                 	db	137
  1312   001205  8B                 	db	139
  1313   001206  8C                 	db	140
  1314   001207  8C                 	db	140
  1315   001208  8B                 	db	139
  1316   001209  89                 	db	137
  1317   00120A  87                 	db	135
  1318   00120B  87                 	db	135
  1319   00120C  88                 	db	136
  1320   00120D  89                 	db	137
  1321   00120E  8A                 	db	138
  1322   00120F  8A                 	db	138
  1323   001210  8A                 	db	138
  1324   001211  89                 	db	137
  1325   001212  8A                 	db	138
  1326   001213  8B                 	db	139
  1327   001214  8D                 	db	141
  1328   001215  8E                 	db	142
  1329   001216  8E                 	db	142
  1330   001217  8D                 	db	141
  1331   001218  8C                 	db	140
  1332   001219  8B                 	db	139
  1333   00121A  8B                 	db	139
  1334   00121B  8B                 	db	139
  1335   00121C  8C                 	db	140
  1336   00121D  8E                 	db	142
  1337   00121E  90                 	db	144
  1338   00121F  91                 	db	145
  1339   001220  91                 	db	145
  1340   001221  90                 	db	144
  1341   001222  8F                 	db	143
  1342   001223  8E                 	db	142
  1343   001224  8D                 	db	141
  1344   001225  8E                 	db	142
  1345   001226  8E                 	db	142
  1346   001227  8F                 	db	143
  1347   001228  8E                 	db	142
  1348   001229  8D                 	db	141
  1349   00122A  8C                 	db	140
  1350   00122B  8B                 	db	139
  1351   00122C  8A                 	db	138
  1352   00122D  8A                 	db	138
  1353   00122E  8A                 	db	138
  1354   00122F  8A                 	db	138
  1355   001230  8A                 	db	138
  1356   001231  89                 	db	137
  1357   001232  89                 	db	137
  1358   001233  87                 	db	135
  1359   001234  86                 	db	134
  1360   001235  85                 	db	133
  1361   001236  85                 	db	133
  1362   001237  84                 	db	132
  1363   001238  84                 	db	132
  1364   001239  83                 	db	131
  1365   00123A  82                 	db	130
  1366   00123B  80                 	db	128
  1367   00123C  7F                 	db	127
  1368   00123D  7D                 	db	125
  1369   00123E  7D                 	db	125
  1370   00123F  7D                 	db	125
  1371   001240  7E                 	db	126
  1372   001241  7F                 	db	127
  1373   001242  7F                 	db	127
  1374   001243  7E                 	db	126
  1375   001244  7D                 	db	125
  1376   001245  7C                 	db	124
  1377   001246  7B                 	db	123
  1378   001247  7A                 	db	122
  1379   001248  7A                 	db	122
  1380   001249  7A                 	db	122
  1381   00124A  7B                 	db	123
  1382   00124B  7B                 	db	123
  1383   00124C  7C                 	db	124
  1384   00124D  7C                 	db	124
  1385   00124E  7C                 	db	124
  1386   00124F  7B                 	db	123
  1387   001250  7C                 	db	124
  1388   001251  7C                 	db	124
  1389   001252  7D                 	db	125
  1390   001253  7D                 	db	125
  1391   001254  7D                 	db	125
  1392   001255  7D                 	db	125
  1393   001256  7D                 	db	125
  1394   001257  7D                 	db	125
  1395   001258  7E                 	db	126
  1396   001259  80                 	db	128
  1397   00125A  81                 	db	129
  1398   00125B  81                 	db	129
  1399   00125C  81                 	db	129
  1400   00125D  80                 	db	128
  1401   00125E  80                 	db	128
  1402   00125F  80                 	db	128
  1403   001260  80                 	db	128
  1404   001261  80                 	db	128
  1405   001262  80                 	db	128
  1406   001263  80                 	db	128
  1407   001264  81                 	db	129
  1408   001265  81                 	db	129
  1409   001266  82                 	db	130
  1410   001267  81                 	db	129
  1411   001268  80                 	db	128
  1412   001269  7E                 	db	126
  1413   00126A  7D                 	db	125
  1414   00126B  7D                 	db	125
  1415   00126C  7E                 	db	126
  1416   00126D  7F                 	db	127
  1417   00126E  7E                 	db	126
  1418   00126F  7D                 	db	125
  1419   001270  7C                 	db	124
  1420   001271  7C                 	db	124
  1421   001272  7C                 	db	124
  1422   001273  7C                 	db	124
  1423   001274  7C                 	db	124
  1424   001275  7B                 	db	123
  1425   001276  79                 	db	121
  1426   001277  78                 	db	120
  1427   001278  77                 	db	119
  1428   001279  75                 	db	117
  1429   00127A  73                 	db	115
  1430   00127B  72                 	db	114
  1431   00127C  72                 	db	114
  1432   00127D  74                 	db	116
  1433   00127E  79                 	db	121
  1434   00127F  7D                 	db	125
  1435   001280  7E                 	db	126
  1436   001281  7A                 	db	122
  1437   001282  75                 	db	117
  1438   001283  70                 	db	112
  1439   001284  70                 	db	112
  1440   001285  71                 	db	113
  1441   001286  71                 	db	113
  1442   001287  6F                 	db	111
  1443   001288  6D                 	db	109
  1444   001289  6B                 	db	107
  1445   00128A  6B                 	db	107
  1446   00128B  6C                 	db	108
  1447   00128C  6F                 	db	111
  1448   00128D  72                 	db	114
  1449   00128E  73                 	db	115
  1450   00128F  72                 	db	114
  1451   001290  70                 	db	112
  1452   001291  6E                 	db	110
  1453   001292  6D                 	db	109
  1454   001293  6B                 	db	107
  1455   001294  68                 	db	104
  1456   001295  67                 	db	103
  1457   001296  68                 	db	104
  1458   001297  6A                 	db	106
  1459   001298  6C                 	db	108
  1460   001299  6D                 	db	109
  1461   00129A  6C                 	db	108
  1462   00129B  6B                 	db	107
  1463   00129C  6C                 	db	108
  1464   00129D  6D                 	db	109
  1465   00129E  6D                 	db	109
  1466   00129F  6D                 	db	109
  1467   0012A0  6D                 	db	109
  1468   0012A1  6E                 	db	110
  1469   0012A2  70                 	db	112
  1470   0012A3  71                 	db	113
  1471   0012A4  71                 	db	113
  1472   0012A5  72                 	db	114
  1473   0012A6  72                 	db	114
  1474   0012A7  73                 	db	115
  1475   0012A8  74                 	db	116
  1476   0012A9  76                 	db	118
  1477   0012AA  79                 	db	121
  1478   0012AB  7B                 	db	123
  1479   0012AC  7B                 	db	123
  1480   0012AD  7A                 	db	122
  1481   0012AE  7B                 	db	123
  1482   0012AF  7C                 	db	124
  1483   0012B0  7E                 	db	126
  1484   0012B1  80                 	db	128
  1485   0012B2  80                 	db	128
  1486   0012B3  80                 	db	128
  1487   0012B4  80                 	db	128
  1488   0012B5  80                 	db	128
  1489   0012B6  81                 	db	129
  1490   0012B7  83                 	db	131
  1491   0012B8  86                 	db	134
  1492   0012B9  89                 	db	137
  1493   0012BA  8B                 	db	139
  1494   0012BB  8D                 	db	141
  1495   0012BC  8E                 	db	142
  1496   0012BD  8E                 	db	142
  1497   0012BE  8C                 	db	140
  1498   0012BF  89                 	db	137
  1499   0012C0  87                 	db	135
  1500   0012C1  86                 	db	134
  1501   0012C2  87                 	db	135
  1502   0012C3  87                 	db	135
  1503   0012C4  88                 	db	136
  1504   0012C5  89                 	db	137
  1505   0012C6  8A                 	db	138
  1506   0012C7  8B                 	db	139
  1507   0012C8  8C                 	db	140
  1508   0012C9  8D                 	db	141
  1509   0012CA  8E                 	db	142
  1510   0012CB  8F                 	db	143
  1511   0012CC  90                 	db	144
  1512   0012CD  8E                 	db	142
  1513   0012CE  8C                 	db	140
  1514   0012CF  89                 	db	137
  1515   0012D0  87                 	db	135
  1516   0012D1  86                 	db	134
  1517   0012D2  86                 	db	134
  1518   0012D3  87                 	db	135
  1519   0012D4  89                 	db	137
  1520   0012D5  8A                 	db	138
  1521   0012D6  8C                 	db	140
  1522   0012D7  8D                 	db	141
  1523   0012D8  8D                 	db	141
  1524   0012D9  8B                 	db	139
  1525   0012DA  89                 	db	137
  1526   0012DB  88                 	db	136
  1527   0012DC  89                 	db	137
  1528   0012DD  8B                 	db	139
  1529   0012DE  8C                 	db	140
  1530   0012DF  8B                 	db	139
  1531   0012E0  8B                 	db	139
  1532   0012E1  8A                 	db	138
  1533   0012E2  8A                 	db	138
  1534   0012E3  8C                 	db	140
  1535   0012E4  8E                 	db	142
  1536   0012E5  8F                 	db	143
  1537   0012E6  8F                 	db	143
  1538   0012E7  8E                 	db	142
  1539   0012E8  8C                 	db	140
  1540   0012E9  8C                 	db	140
  1541   0012EA  8C                 	db	140
  1542   0012EB  8C                 	db	140
  1543   0012EC  8C                 	db	140
  1544   0012ED  8D                 	db	141
  1545   0012EE  8E                 	db	142
  1546   0012EF  8F                 	db	143
  1547   0012F0  90                 	db	144
  1548   0012F1  90                 	db	144
  1549   0012F2  8F                 	db	143
  1550   0012F3  8D                 	db	141
  1551   0012F4  8B                 	db	139
  1552   0012F5  8B                 	db	139
  1553   0012F6  8C                 	db	140
  1554   0012F7  8E                 	db	142
  1555   0012F8  8E                 	db	142
  1556   0012F9  8D                 	db	141
  1557   0012FA  8B                 	db	139
  1558   0012FB  8A                 	db	138
  1559   0012FC  89                 	db	137
  1560   0012FD  89                 	db	137
  1561   0012FE  89                 	db	137
  1562   0012FF  88                 	db	136
  1563   001300  87                 	db	135
  1564   001301  85                 	db	133
  1565   001302  85                 	db	133
  1566   001303  85                 	db	133
  1567   001304  85                 	db	133
  1568   001305  84                 	db	132
  1569   001306  82                 	db	130
  1570   001307  82                 	db	130
  1571   001308  82                 	db	130
  1572   001309  82                 	db	130
  1573   00130A  82                 	db	130
  1574   00130B  81                 	db	129
  1575   00130C  7F                 	db	127
  1576   00130D  7D                 	db	125
  1577   00130E  7C                 	db	124
  1578   00130F  7C                 	db	124
  1579   001310  7C                 	db	124
  1580   001311  7D                 	db	125
  1581   001312  7D                 	db	125
  1582   001313  7D                 	db	125
  1583   001314  7C                 	db	124
  1584   001315  7B                 	db	123
  1585   001316  7A                 	db	122
  1586   001317  7A                 	db	122
  1587   001318  7A                 	db	122
  1588   001319  79                 	db	121
  1589   00131A  7A                 	db	122
  1590   00131B  7B                 	db	123
  1591   00131C  7C                 	db	124
  1592   00131D  7C                 	db	124
  1593   00131E  7C                 	db	124
  1594   00131F  7B                 	db	123
  1595   001320  7B                 	db	123
  1596   001321  7B                 	db	123
  1597   001322  7B                 	db	123
  1598   001323  7D                 	db	125
  1599   001324  7D                 	db	125
  1600   001325  7D                 	db	125
  1601   001326  7C                 	db	124
  1602   001327  7C                 	db	124
  1603   001328  7D                 	db	125
  1604   001329  7E                 	db	126
  1605   00132A  80                 	db	128
  1606   00132B  81                 	db	129
  1607   00132C  81                 	db	129
  1608   00132D  80                 	db	128
  1609   00132E  80                 	db	128
  1610   00132F  80                 	db	128
  1611   001330  80                 	db	128
  1612   001331  81                 	db	129
  1613   001332  80                 	db	128
  1614   001333  80                 	db	128
  1615   001334  80                 	db	128
  1616   001335  81                 	db	129
  1617   001336  83                 	db	131
  1618   001337  83                 	db	131
  1619   001338  82                 	db	130
  1620   001339  81                 	db	129
  1621   00133A  7F                 	db	127
  1622   00133B  7E                 	db	126
  1623   00133C  7E                 	db	126
  1624   00133D  7F                 	db	127
  1625   00133E  80                 	db	128
  1626   00133F  7F                 	db	127
  1627   001340  7E                 	db	126
  1628   001341  7D                 	db	125
  1629   001342  7D                 	db	125
  1630   001343  7E                 	db	126
  1631   001344  7E                 	db	126
  1632   001345  7D                 	db	125
  1633   001346  7C                 	db	124
  1634   001347  7A                 	db	122
  1635   001348  79                 	db	121
  1636   001349  78                 	db	120
  1637   00134A  76                 	db	118
  1638   00134B  74                 	db	116
  1639   00134C  73                 	db	115
  1640   00134D  73                 	db	115
  1641   00134E  76                 	db	118
  1642   00134F  7A                 	db	122
  1643   001350  7D                 	db	125
  1644   001351  7D                 	db	125
  1645   001352  78                 	db	120
  1646   001353  73                 	db	115
  1647   001354  70                 	db	112
  1648   001355  70                 	db	112
  1649   001356  71                 	db	113
  1650   001357  71                 	db	113
  1651   001358  6F                 	db	111
  1652   001359  6D                 	db	109
  1653   00135A  6C                 	db	108
  1654   00135B  6C                 	db	108
  1655   00135C  6E                 	db	110
  1656   00135D  70                 	db	112
  1657   00135E  72                 	db	114
  1658   00135F  71                 	db	113
  1659   001360  71                 	db	113
  1660   001361  70                 	db	112
  1661   001362  70                 	db	112
  1662   001363  6E                 	db	110
  1663   001364  6B                 	db	107
  1664   001365  69                 	db	105
  1665   001366  68                 	db	104
  1666   001367  6A                 	db	106
  1667                           
  1668                           	psect	smallconst
  1669   000D00                     __psmallconst:
  1670                           	callstack 0
  1671   000D00  00                 	db	0
  1672   000D01                     _SPI1_Host:
  1673                           	callstack 0
  1674   000D01  76                 	db	low _SPI1_Initialize
  1675   000D02  35                 	db	high _SPI1_Initialize
  1676   000D03  00                 	db	0
  1677   000D04  00                 	db	0
  1678   000D05  00                 	db	0
  1679   000D06  00                 	db	0
  1680   000D07  00                 	db	0
  1681   000D08  00                 	db	0
  1682   000D09  00                 	db	0
  1683   000D0A  00                 	db	0
  1684   000D0B  00                 	db	0
  1685   000D0C  00                 	db	0
  1686   000D0D  00                 	db	0
  1687   000D0E  00                 	db	0
  1688   000D0F  00                 	db	0
  1689   000D10  00                 	db	0
  1690   000D11  00                 	db	0
  1691   000D12  00                 	db	0
  1692   000D13  00                 	db	0
  1693   000D14  00                 	db	0
  1694   000D15  00                 	db	0
  1695   000D16  00                 	db	0
  1696   000D17  00                 	db	0
  1697   000D18  00                 	db	0
  1698   000D19  00                 	db	0
  1699   000D1A  00                 	db	0
  1700   000D1B  00                 	db	0
  1701   000D1C  00                 	db	0
  1702   000D1D                     __end_of_SPI1_Host:
  1703                           	callstack 0
  1704   000D1D                     _spi1_configuration:
  1705                           	callstack 0
  1706   000D1D  02                 	db	2
  1707   000D1E  00                 	db	0
  1708   000D1F  00                 	db	0
  1709   000D20  FF                 	db	255
  1710   000D21  00                 	db	0
  1711   000D22  02                 	db	2
  1712   000D23  40                 	db	64
  1713   000D24  00                 	db	0
  1714   000D25  00                 	db	0
  1715   000D26  00                 	db	0
  1716   000D27                     __end_of_spi1_configuration:
  1717                           	callstack 0
  1718   000D27  6C3C               	dw	27708
  1719   000D29  3636               	dw	13878
  1720   000D2B                     __end_of_S4:
  1721                           	callstack 0
  1722   000D2B  07CF               	dw	1999
  1723   000D2D  B950               	dw	47440
  1724   000D2F                     __end_of_S3:
  1725                           	callstack 0
  1726   000D2F  8884               	dw	34948
  1727   000D31  3C08               	dw	15368
  1728   000D33                     __end_of_S2:
  1729                           	callstack 0
  1730   000D33  AAAB               	dw	43691
  1731   000D35  BE2A               	dw	48682
  1732   000D37                     __end_of_S1:
  1733                           	callstack 0
  1734   000D37  85A3               	dw	34211
  1735   000D39  3288               	dw	12936
  1736   000D3B                     __end_of_pio2_1t:
  1737                           	callstack 0
  1738   000D3B  0FDA               	dw	4058
  1739   000D3D  3FC9               	dw	16329
  1740   000D3F                     __end_of_pio2_1:
  1741                           	callstack 0
  1742   000D3F  F983               	dw	63875
  1743   000D41  3F22               	dw	16162
  1744   000D43                     __end_of_invpio2:
  1745                           	callstack 0
  1746   000D43  0000               	dw	0
  1747   000D45  3F00               	dw	16128
  1748   000D47                     __end_of_half:
  1749                           	callstack 0
  1750   000D47  9A17               	dw	39447
  1751   000D49  37CC               	dw	14284
  1752   000D4B                     __end_of_C3:
  1753                           	callstack 0
  1754   000D4B  043F               	dw	1087
  1755   000D4D  BAB6               	dw	47798
  1756   000D4F                     __end_of_C2:
  1757                           	callstack 0
  1758   000D4F  AA9F               	dw	43679
  1759   000D51  3D2A               	dw	15658
  1760   000D53                     __end_of_C1:
  1761                           	callstack 0
  1762   000D53  0000               	dw	0
  1763   000D55  BF00               	dw	48896
  1764   000D57                     __end_of_C0:
  1765                           	callstack 0
  1766   000D57  0FDB               	dw	4059
  1767   000D59  40C9               	dw	16585
  1768   000D5B                     __end_of_s4pio2:
  1769                           	callstack 0
  1770   000D5B  CBE4               	dw	52196
  1771   000D5D  4096               	dw	16534
  1772   000D5F                     __end_of_s3pio2:
  1773                           	callstack 0
  1774   000D5F  0FDB               	dw	4059
  1775   000D61  4049               	dw	16457
  1776   000D63                     __end_of_s2pio2:
  1777                           	callstack 0
  1778   000D63  0FDB               	dw	4059
  1779   000D65  3FC9               	dw	16329
  1780   000D67                     __end_of_s1pio2:
  1781                           	callstack 0
  1782   000000                     _OSCTUNE	set	176
  1783   000000                     _OSCFRQ	set	177
  1784   000000                     _OSCEN	set	179
  1785   000000                     _IOCBF	set	1039
  1786   000000                     _IOCBN	set	1038
  1787   000000                     _IOCBP	set	1037
  1788   000000                     _IOCAF	set	1031
  1789   000000                     _IOCAN	set	1030
  1790   000000                     _IOCAP	set	1029
  1791   000000                     _INLVLB	set	1036
  1792   000000                     _INLVLA	set	1028
  1793   000000                     _SLRCONB	set	1035
  1794   000000                     _SLRCONA	set	1027
  1795   000000                     _WPUC	set	1041
  1796   000000                     _WPUB	set	1033
  1797   000000                     _WPUA	set	1025
  1798   000000                     _ANSELC	set	1040
  1799   000000                     _ANSELB	set	1032
  1800   000000                     _ODCONC	set	1042
  1801   000000                     _ODCONB	set	1034
  1802   000000                     _SPI1RXB	set	128
  1803   000000                     _SPI1TXB	set	129
  1804   000000                     _SPI1TCNTL	set	130
  1805   000000                     _SPI1TCNTH	set	131
  1806   000000                     _SPI1CON0	set	132
  1807   000000                     _PWM2CON	set	1144
  1808   000000                     _PWM2S1CFG	set	1145
  1809   000000                     _PWM2GIE	set	1143
  1810   000000                     _PWM2GIR	set	1142
  1811   000000                     _PWM2PIPOS	set	1141
  1812   000000                     _PWM2CPRE	set	1140
  1813   000000                     _PWM2PRH	set	1139
  1814   000000                     _PWM2PRL	set	1138
  1815   000000                     _PWM2LDS	set	1137
  1816   000000                     _PWM2CLK	set	1136
  1817   000000                     _PWM2ERS	set	1135
  1818   000000                     _PWM1CON	set	1129
  1819   000000                     _PIE4bits	set	1196
  1820   000000                     _PIR4bits	set	1207
  1821   000000                     _PWM1S1P2H	set	1134
  1822   000000                     _PWM1S1P2L	set	1133
  1823   000000                     _PWM1S1P1H	set	1132
  1824   000000                     _PWM1S1P1L	set	1131
  1825   000000                     _PWM1S1CFG	set	1130
  1826   000000                     _PWM1GIE	set	1128
  1827   000000                     _PWM1GIR	set	1127
  1828   000000                     _PWM1PIPOS	set	1126
  1829   000000                     _PWM1CPRE	set	1125
  1830   000000                     _PWM1PRH	set	1124
  1831   000000                     _PWM1PRL	set	1123
  1832   000000                     _PWM1LDS	set	1122
  1833   000000                     _PWM1CLK	set	1121
  1834   000000                     _PWM1ERS	set	1120
  1835   000D67  00                 	db	0	; dummy byte at the end
  1836   000000                     
  1837                           	psect	nvCOMRAM
  1838   00055D                     __pnvCOMRAM:
  1839                           	callstack 0
  1840   00055D                     _PWM1_16BIT_Slice1Output1_InterruptHandler:
  1841                           	callstack 0
  1842   00055D                     	ds	2
  1843                           
  1844                           	psect	nvBANK5
  1845   0005D5                     __pnvBANK5:
  1846                           	callstack 0
  1847   0005D5                     _INT2_InterruptHandler:
  1848                           	callstack 0
  1849   0005D5                     	ds	2
  1850   0005D7                     _INT1_InterruptHandler:
  1851                           	callstack 0
  1852   0005D7                     	ds	2
  1853   0005D9                     _INT0_InterruptHandler:
  1854                           	callstack 0
  1855   0005D9                     	ds	2
  1856   0005DB                     _PWM2_16BIT_Period_InterruptHandler:
  1857                           	callstack 0
  1858   0005DB                     	ds	2
  1859   0005DD                     _PWM2_16BIT_Slice1Output2_InterruptHandler:
  1860                           	callstack 0
  1861   0005DD                     	ds	2
  1862   0005DF                     _PWM2_16BIT_Slice1Output1_InterruptHandler:
  1863                           	callstack 0
  1864   0005DF                     	ds	2
  1865   0005E1                     _PWM1_16BIT_Period_InterruptHandler:
  1866                           	callstack 0
  1867   0005E1                     	ds	2
  1868   0005E3                     _PWM1_16BIT_Slice1Output2_InterruptHandler:
  1869                           	callstack 0
  1870   0005E3                     	ds	2
  1871   000000                     _SPI1CON0bits	set	132
  1872   000000                     _TRISB	set	1223
  1873   000000                     _PWM2GIEbits	set	1143
  1874   000000                     _PWM2CONbits	set	1144
  1875   000000                     _PWM2GIRbits	set	1142
  1876   000000                     _PWM1GIEbits	set	1128
  1877   000000                     _PWM1CONbits	set	1129
  1878   000000                     _PWM1GIRbits	set	1127
  1879   000000                     _DAC1DATL	set	125
  1880   000000                     _DAC1CON	set	127
  1881   000000                     _PIR10bits	set	1213
  1882   000000                     _PIR6bits	set	1209
  1883   000000                     _TRISBbits	set	1223
  1884   000000                     _PIR5bits	set	1208
  1885   000000                     _PIR1bits	set	1204
  1886   000000                     _PIR3bits	set	1206
  1887   000000                     _PIE5bits	set	1197
  1888   000000                     _PIE3bits	set	1195
  1889   000000                     _PWM2S1P2H	set	1149
  1890   000000                     _PWM2S1P2L	set	1148
  1891   000000                     _PWM2S1P1H	set	1147
  1892   000000                     _PWM2S1P1L	set	1146
  1893   000000                     _SPI1BAUD	set	137
  1894   000000                     _SPI1CON2	set	134
  1895   000000                     _SPI1CON1	set	133
  1896   000000                     _SPI1INTFbits	set	138
  1897   000000                     _SPI1CLK	set	140
  1898   000000                     _ACTCON	set	172
  1899   000000                     _OSCCON1	set	173
  1900   000000                     _RA4PPS	set	517
  1901   000000                     _RB4PPS	set	525
  1902   000000                     _SPI1SDIPPS	set	619
  1903   000000                     _RB6I2C	set	646
  1904   000000                     _RB4I2C	set	647
  1905   000000                     _ANSELA	set	1024
  1906   000000                     _ODCONA	set	1026
  1907   000000                     _PORTB	set	1231
  1908   000000                     _TRISC	set	1224
  1909   000000                     _INTCON0bits	set	1238
  1910   000000                     _TRISA	set	1222
  1911   000000                     _LATC	set	1216
  1912   000000                     _LATB	set	1215
  1913   000000                     _LATA	set	1214
  1914   000000                     _IOCCF	set	1047
  1915   000000                     _IOCCN	set	1046
  1916   000000                     _IOCCP	set	1045
  1917   000000                     _INLVLC	set	1044
  1918   000000                     _SLRCONC	set	1043
  1919   000000                     _RB5PPS	set	526
  1920   000000                     _RC5PPS	set	534
  1921   000000                     _RA5PPS	set	518
  1922   000000                     _SPI1SCKPPS	set	618
  1923   000000                     _OSCCON3	set	175
  1924                           
  1925                           ; #config settings
  1926                           
  1927                           	psect	cinit
  1928   00342A                     __pcinit:
  1929                           	callstack 0
  1930   00342A                     start_initialization:
  1931                           	callstack 0
  1932   00342A                     __initialization:
  1933                           	callstack 0
  1934                           
  1935                           ; Initialize objects allocated to BIGRAM (1536 bytes)
  1936                           ; load TBLPTR registers with __pidataBIGRAM
  1937   00342A  0E68               	movlw	low __pidataBIGRAM
  1938   00342C  6EF6               	movwf	tblptrl,c
  1939   00342E  0E0D               	movlw	high __pidataBIGRAM
  1940   003430  6EF7               	movwf	tblptrh,c
  1941   003432  0E00               	movlw	low (__pidataBIGRAM shr (0+16))
  1942   003434  6EF8               	movwf	tblptru,c
  1943   003436  EE01  F264         	lfsr	0,__pdataBIGRAM
  1944   00343A  EE11 F200          	lfsr	1,1536
  1945   00343E                     copy_data0:
  1946   00343E  0009               	tblrd		*+
  1947   003440  C4F5 F4EE          	movff	tablat,postinc0
  1948   003444  50E5               	movf	postdec1,w,c
  1949   003446  50E1               	movf	fsr1l,w,c
  1950   003448  E1FA               	bnz	copy_data0
  1951   00344A  50E2               	movf	fsr1h,w,c
  1952   00344C  E1F8               	bnz	copy_data0
  1953                           
  1954                           ; Clear objects allocated to BANK6 (100 bytes)
  1955   00344E  EE01  F200         	lfsr	0,__pbssBANK6
  1956   003452  0E64               	movlw	100
  1957   003454                     clear_0:
  1958   003454  6AEE               	clrf	postinc0,c
  1959   003456  06E8               	decf	wreg,f,c
  1960   003458  E1FD               	bnz	clear_0
  1961                           
  1962                           ; Clear objects allocated to BANK5 (8 bytes)
  1963   00345A  EE01  F1E5         	lfsr	0,__pbssBANK5
  1964   00345E  0E08               	movlw	8
  1965   003460                     clear_1:
  1966   003460  6AEE               	clrf	postinc0,c
  1967   003462  06E8               	decf	wreg,f,c
  1968   003464  E1FD               	bnz	clear_1
  1969   003466                     end_of_initialization:
  1970                           	callstack 0
  1971   003466                     __end_of__initialization:
  1972                           	callstack 0
  1973   003466  0E00               	movlw	low (__Lmediumconst shr (0+16))
  1974   003468  6EF8               	movwf	tblptru,c
  1975   00346A  0100               	movlb	0
  1976   00346C  EF54  F017         	goto	_main	;jump to C main() function
  1977                           
  1978                           	psect	bssBANK5
  1979   0005E5                     __pbssBANK5:
  1980                           	callstack 0
  1981   0005E5                     fabsf@F465:
  1982                           	callstack 0
  1983   0005E5                     	ds	4
  1984   0005E9                     ___rem_pio2f@F526:
  1985                           	callstack 0
  1986   0005E9                     	ds	4
  1987                           
  1988                           	psect	bssBANK6
  1989   000600                     __pbssBANK6:
  1990                           	callstack 0
  1991   000600                     _sine_wave:
  1992                           	callstack 0
  1993   000600                     	ds	100
  1994                           
  1995                           	psect	dataBIGRAM
  1996   000664                     __pdataBIGRAM:
  1997                           	callstack 0
  1998   000664                     _rawData:
  1999                           	callstack 0
  2000   000664                     	ds	1536
  2001                           
  2002                           	psect	cstackBANK5
  2003   000560                     __pcstackBANK5:
  2004                           	callstack 0
  2005   000560                     ___cosdf@r:
  2006                           	callstack 0
  2007   000560                     ___sindf@r:
  2008                           	callstack 0
  2009                           
  2010                           ; 4 bytes @ 0x0
  2011   000560                     	ds	4
  2012   000564                     ___sindf@w:
  2013                           	callstack 0
  2014   000564                     ___cosdf$1856:
  2015                           	callstack 0
  2016                           
  2017                           ; 4 bytes @ 0x4
  2018   000564                     	ds	4
  2019   000568                     ___cosdf$1857:
  2020                           	callstack 0
  2021   000568                     ___sindf$1860:
  2022                           	callstack 0
  2023                           
  2024                           ; 4 bytes @ 0x8
  2025   000568                     	ds	4
  2026   00056C                     ___cosdf$1858:
  2027                           	callstack 0
  2028   00056C                     ___sindf$1861:
  2029                           	callstack 0
  2030                           
  2031                           ; 4 bytes @ 0xC
  2032   00056C                     	ds	4
  2033   000570                     ___cosdf@w:
  2034                           	callstack 0
  2035   000570                     ___sindf$1862:
  2036                           	callstack 0
  2037                           
  2038                           ; 4 bytes @ 0x10
  2039   000570                     	ds	4
  2040   000574                     ___cosdf@z:
  2041                           	callstack 0
  2042   000574                     ___sindf@s:
  2043                           	callstack 0
  2044                           
  2045                           ; 4 bytes @ 0x14
  2046   000574                     	ds	4
  2047   000578                     ?___flneg:
  2048                           	callstack 0
  2049   000578                     ___flneg@f1:
  2050                           	callstack 0
  2051   000578                     ___sindf@z:
  2052                           	callstack 0
  2053                           
  2054                           ; 4 bytes @ 0x18
  2055   000578                     	ds	4
  2056   00057C                     ?___rem_pio2f:
  2057                           	callstack 0
  2058   00057C                     ___rem_pio2f@x:
  2059                           	callstack 0
  2060                           
  2061                           ; 4 bytes @ 0x1C
  2062   00057C                     	ds	4
  2063   000580                     ___rem_pio2f@y:
  2064                           	callstack 0
  2065                           
  2066                           ; 2 bytes @ 0x20
  2067   000580                     	ds	2
  2068   000582                     ___rem_pio2f@ty:
  2069                           	callstack 0
  2070                           
  2071                           ; 4 bytes @ 0x22
  2072   000582                     	ds	4
  2073   000586                     ___rem_pio2f$1859:
  2074                           	callstack 0
  2075                           
  2076                           ; 4 bytes @ 0x26
  2077   000586                     	ds	4
  2078   00058A                     ___rem_pio2f@sign:
  2079                           	callstack 0
  2080                           
  2081                           ; 1 bytes @ 0x2A
  2082   00058A                     	ds	1
  2083   00058B                     ___rem_pio2f@ux:
  2084                           	callstack 0
  2085                           
  2086                           ; 4 bytes @ 0x2B
  2087   00058B                     	ds	4
  2088   00058F                     ___rem_pio2f@fn:
  2089                           	callstack 0
  2090                           
  2091                           ; 4 bytes @ 0x2F
  2092   00058F                     	ds	4
  2093   000593                     ___rem_pio2f@t:
  2094                           	callstack 0
  2095                           
  2096                           ; 4 bytes @ 0x33
  2097   000593                     	ds	4
  2098   000597                     ___rem_pio2f@n:
  2099                           	callstack 0
  2100                           
  2101                           ; 4 bytes @ 0x37
  2102   000597                     	ds	4
  2103   00059B                     ?_sinf:
  2104                           	callstack 0
  2105   00059B                     sinf@x:
  2106                           	callstack 0
  2107                           
  2108                           ; 4 bytes @ 0x3B
  2109   00059B                     	ds	4
  2110   00059F                     _sinf$1538:
  2111                           	callstack 0
  2112                           
  2113                           ; 4 bytes @ 0x3F
  2114   00059F                     	ds	4
  2115   0005A3                     _sinf$1539:
  2116                           	callstack 0
  2117                           
  2118                           ; 4 bytes @ 0x43
  2119   0005A3                     	ds	4
  2120   0005A7                     sinf@n:
  2121                           	callstack 0
  2122                           
  2123                           ; 1 bytes @ 0x47
  2124   0005A7                     	ds	1
  2125   0005A8                     sinf@sign:
  2126                           	callstack 0
  2127                           
  2128                           ; 1 bytes @ 0x48
  2129   0005A8                     	ds	1
  2130   0005A9                     _sinf$1855:
  2131                           	callstack 0
  2132                           
  2133                           ; 4 bytes @ 0x49
  2134   0005A9                     	ds	4
  2135   0005AD                     sinf@y:
  2136                           	callstack 0
  2137                           
  2138                           ; 4 bytes @ 0x4D
  2139   0005AD                     	ds	4
  2140   0005B1                     sinf@ux:
  2141                           	callstack 0
  2142                           
  2143                           ; 4 bytes @ 0x51
  2144   0005B1                     	ds	4
  2145   0005B5                     _generate_sine_wave$1852:
  2146                           	callstack 0
  2147                           
  2148                           ; 4 bytes @ 0x55
  2149   0005B5                     	ds	4
  2150   0005B9                     _generate_sine_wave$1853:
  2151                           	callstack 0
  2152                           
  2153                           ; 4 bytes @ 0x59
  2154   0005B9                     	ds	4
  2155   0005BD                     _generate_sine_wave$1854:
  2156                           	callstack 0
  2157                           
  2158                           ; 4 bytes @ 0x5D
  2159   0005BD                     	ds	4
  2160   0005C1                     generate_sine_wave@i:
  2161                           	callstack 0
  2162                           
  2163                           ; 2 bytes @ 0x61
  2164   0005C1                     	ds	2
  2165   0005C3                     ??_main:
  2166                           
  2167                           ; 1 bytes @ 0x63
  2168   0005C3                     	ds	4
  2169   0005C7                     main@yyy:
  2170                           	callstack 0
  2171                           
  2172                           ; 4 bytes @ 0x67
  2173   0005C7                     	ds	4
  2174   0005CB                     main@bShow:
  2175                           	callstack 0
  2176                           
  2177                           ; 1 bytes @ 0x6B
  2178   0005CB                     	ds	1
  2179   0005CC                     main@xxx:
  2180                           	callstack 0
  2181                           
  2182                           ; 4 bytes @ 0x6C
  2183   0005CC                     	ds	4
  2184   0005D0                     main@counter:
  2185                           	callstack 0
  2186                           
  2187                           ; 4 bytes @ 0x70
  2188   0005D0                     	ds	4
  2189   0005D4                     main@light:
  2190                           	callstack 0
  2191                           
  2192                           ; 1 bytes @ 0x74
  2193   0005D4                     	ds	1
  2194                           
  2195                           	psect	cstackCOMRAM
  2196   000501                     __pcstackCOMRAM:
  2197                           	callstack 0
  2198   000501                     ?_fabsf:
  2199                           	callstack 0
  2200   000501                     ?___xxtofl:
  2201                           	callstack 0
  2202   000501                     DAC1_SetOutput@inputData:
  2203                           	callstack 0
  2204   000501                     PWM1_16BIT_Slice1Output1_SetInterruptHandler@InterruptHandler:
  2205                           	callstack 0
  2206   000501                     PWM1_16BIT_Slice1Output2_SetInterruptHandler@InterruptHandler:
  2207                           	callstack 0
  2208   000501                     PWM1_16BIT_Period_SetInterruptHandler@InterruptHandler:
  2209                           	callstack 0
  2210   000501                     PWM2_16BIT_Slice1Output1_SetInterruptHandler@InterruptHandler:
  2211                           	callstack 0
  2212   000501                     PWM2_16BIT_Slice1Output2_SetInterruptHandler@InterruptHandler:
  2213                           	callstack 0
  2214   000501                     PWM2_16BIT_Period_SetInterruptHandler@InterruptHandler:
  2215                           	callstack 0
  2216   000501                     INT0_SetInterruptHandler@InterruptHandler:
  2217                           	callstack 0
  2218   000501                     INT1_SetInterruptHandler@InterruptHandler:
  2219                           	callstack 0
  2220   000501                     INT2_SetInterruptHandler@InterruptHandler:
  2221                           	callstack 0
  2222   000501                     ___xxtofl@val:
  2223                           	callstack 0
  2224   000501                     fabsf@x:
  2225                           	callstack 0
  2226                           
  2227                           ; 4 bytes @ 0x0
  2228   000501                     	ds	2
  2229   000503                     
  2230                           ; 1 bytes @ 0x2
  2231   000503                     	ds	2
  2232   000505                     ??___xxtofl:
  2233   000505                     fabsf@u:
  2234                           	callstack 0
  2235                           
  2236                           ; 4 bytes @ 0x4
  2237   000505                     	ds	4
  2238   000509                     ___xxtofl@sign:
  2239                           	callstack 0
  2240                           
  2241                           ; 1 bytes @ 0x8
  2242   000509                     	ds	1
  2243   00050A                     ___xxtofl@exp:
  2244                           	callstack 0
  2245                           
  2246                           ; 1 bytes @ 0x9
  2247   00050A                     	ds	1
  2248   00050B                     ___xxtofl@arg:
  2249                           	callstack 0
  2250                           
  2251                           ; 4 bytes @ 0xA
  2252   00050B                     	ds	4
  2253   00050F                     ?___flmul:
  2254                           	callstack 0
  2255   00050F                     ___flmul@b:
  2256                           	callstack 0
  2257                           
  2258                           ; 4 bytes @ 0xE
  2259   00050F                     	ds	4
  2260   000513                     ___flmul@a:
  2261                           	callstack 0
  2262                           
  2263                           ; 4 bytes @ 0x12
  2264   000513                     	ds	4
  2265   000517                     ??___flmul:
  2266                           
  2267                           ; 1 bytes @ 0x16
  2268   000517                     	ds	4
  2269   00051B                     ___flmul@sign:
  2270                           	callstack 0
  2271                           
  2272                           ; 1 bytes @ 0x1A
  2273   00051B                     	ds	1
  2274   00051C                     ___flmul@grs:
  2275                           	callstack 0
  2276                           
  2277                           ; 4 bytes @ 0x1B
  2278   00051C                     	ds	4
  2279   000520                     ___flmul@aexp:
  2280                           	callstack 0
  2281                           
  2282                           ; 1 bytes @ 0x1F
  2283   000520                     	ds	1
  2284   000521                     ___flmul@bexp:
  2285                           	callstack 0
  2286                           
  2287                           ; 1 bytes @ 0x20
  2288   000521                     	ds	1
  2289   000522                     ___flmul@prod:
  2290                           	callstack 0
  2291                           
  2292                           ; 4 bytes @ 0x21
  2293   000522                     	ds	4
  2294   000526                     ___flmul@temp:
  2295                           	callstack 0
  2296                           
  2297                           ; 2 bytes @ 0x25
  2298   000526                     	ds	2
  2299   000528                     ?___fldiv:
  2300                           	callstack 0
  2301   000528                     ___fldiv@b:
  2302                           	callstack 0
  2303                           
  2304                           ; 4 bytes @ 0x27
  2305   000528                     	ds	4
  2306   00052C                     ___fldiv@a:
  2307                           	callstack 0
  2308                           
  2309                           ; 4 bytes @ 0x2B
  2310   00052C                     	ds	4
  2311   000530                     ??___fldiv:
  2312                           
  2313                           ; 1 bytes @ 0x2F
  2314   000530                     	ds	4
  2315   000534                     ___fldiv@rem:
  2316                           	callstack 0
  2317                           
  2318                           ; 4 bytes @ 0x33
  2319   000534                     	ds	4
  2320   000538                     ___fldiv@sign:
  2321                           	callstack 0
  2322                           
  2323                           ; 1 bytes @ 0x37
  2324   000538                     	ds	1
  2325   000539                     ___fldiv@new_exp:
  2326                           	callstack 0
  2327                           
  2328                           ; 2 bytes @ 0x38
  2329   000539                     	ds	2
  2330   00053B                     ___fldiv@grs:
  2331                           	callstack 0
  2332                           
  2333                           ; 4 bytes @ 0x3A
  2334   00053B                     	ds	4
  2335   00053F                     ___fldiv@bexp:
  2336                           	callstack 0
  2337                           
  2338                           ; 1 bytes @ 0x3E
  2339   00053F                     	ds	1
  2340   000540                     ___fldiv@aexp:
  2341                           	callstack 0
  2342                           
  2343                           ; 1 bytes @ 0x3F
  2344   000540                     	ds	1
  2345   000541                     ?___fladd:
  2346                           	callstack 0
  2347   000541                     ___fladd@b:
  2348                           	callstack 0
  2349                           
  2350                           ; 4 bytes @ 0x40
  2351   000541                     	ds	4
  2352   000545                     ___fladd@a:
  2353                           	callstack 0
  2354                           
  2355                           ; 4 bytes @ 0x44
  2356   000545                     	ds	4
  2357   000549                     ??___fladd:
  2358                           
  2359                           ; 1 bytes @ 0x48
  2360   000549                     	ds	4
  2361   00054D                     ___fladd@signs:
  2362                           	callstack 0
  2363                           
  2364                           ; 1 bytes @ 0x4C
  2365   00054D                     	ds	1
  2366   00054E                     ___fladd@aexp:
  2367                           	callstack 0
  2368                           
  2369                           ; 1 bytes @ 0x4D
  2370   00054E                     	ds	1
  2371   00054F                     ___fladd@bexp:
  2372                           	callstack 0
  2373                           
  2374                           ; 1 bytes @ 0x4E
  2375   00054F                     	ds	1
  2376   000550                     ___fladd@grs:
  2377                           	callstack 0
  2378                           
  2379                           ; 1 bytes @ 0x4F
  2380   000550                     	ds	1
  2381   000551                     ?___flsub:
  2382                           	callstack 0
  2383   000551                     ?___sindf:
  2384                           	callstack 0
  2385   000551                     ?___cosdf:
  2386                           	callstack 0
  2387   000551                     ?___fltol:
  2388                           	callstack 0
  2389   000551                     ___fltol@f1:
  2390                           	callstack 0
  2391   000551                     ___flsub@b:
  2392                           	callstack 0
  2393   000551                     ___cosdf@x:
  2394                           	callstack 0
  2395   000551                     ___sindf@x:
  2396                           	callstack 0
  2397                           
  2398                           ; 4 bytes @ 0x50
  2399   000551                     	ds	4
  2400   000555                     ??___fltol:
  2401   000555                     ___flsub@a:
  2402                           	callstack 0
  2403                           
  2404                           ; 4 bytes @ 0x54
  2405   000555                     	ds	4
  2406   000559                     ___fltol@sign1:
  2407                           	callstack 0
  2408                           
  2409                           ; 1 bytes @ 0x58
  2410   000559                     	ds	1
  2411   00055A                     ___fltol@exp1:
  2412                           	callstack 0
  2413                           
  2414                           ; 1 bytes @ 0x59
  2415   00055A                     	ds	1
  2416   00055B                     ??___rem_pio2f:
  2417                           
  2418                           ; 1 bytes @ 0x5A
  2419   00055B                     	ds	2
  2420   00055D                     
  2421                           ; 1 bytes @ 0x5C
  2422 ;;
  2423 ;;Main: autosize = 0, tempsize = 4, incstack = 0, save=0
  2424 ;;
  2425 ;; *************** function _main *****************
  2426 ;; Defined at:
  2427 ;;		line 57 in file "main.c"
  2428 ;; Parameters:    Size  Location     Type
  2429 ;;		None
  2430 ;; Auto vars:     Size  Location     Type
  2431 ;;  counter         4  112[BANK5 ] unsigned long 
  2432 ;;  xxx             4  108[BANK5 ] unsigned long 
  2433 ;;  yyy             4  103[BANK5 ] unsigned long 
  2434 ;;  light           1  116[BANK5 ] char 
  2435 ;;  bShow           1  107[BANK5 ] unsigned char 
  2436 ;; Return value:  Size  Location     Type
  2437 ;;                  2  588[None  ] int 
  2438 ;; Registers used:
  2439 ;;		wreg, fsr2l, fsr2h, status,2, status,0, prodl, prodh, cstack
  2440 ;; Tracked objects:
  2441 ;;		On entry : 0/0
  2442 ;;		On exit  : 0/0
  2443 ;;		Unchanged: 0/0
  2444 ;; Data sizes:     COMRAM   BANK5   BANK6   BANK7   BANK8   BANK9  BANK10  BANK11  BANK12
  2445 ;;      Params:         0       0       0       0       0       0       0       0       0
  2446 ;;      Locals:         0      14       0       0       0       0       0       0       0
  2447 ;;      Temps:          0       4       0       0       0       0       0       0       0
  2448 ;;      Totals:         0      18       0       0       0       0       0       0       0
  2449 ;;Total ram usage:       18 bytes
  2450 ;; Hardware stack levels required when called: 5
  2451 ;; This function calls:
  2452 ;;		_DAC1_Initialize
  2453 ;;		_DAC1_SetOutput
  2454 ;;		_SYSTEM_Initialize
  2455 ;;		_generate_sine_wave
  2456 ;; This function is called by:
  2457 ;;		Startup code after reset
  2458 ;; This function uses a non-reentrant model
  2459 ;;
  2460                           
  2461                           	psect	text0
  2462   002EA8                     __ptext0:
  2463                           	callstack 0
  2464   002EA8                     _main:
  2465                           	callstack 122
  2466   002EA8                     
  2467                           ;main.c: 59:     SYSTEM_Initialize();
  2468   002EA8  ECAC  F01A         	call	_SYSTEM_Initialize	;wreg free
  2469   002EAC                     
  2470                           ;main.c: 61:     DAC1_Initialize();
  2471   002EAC  ECD8  F01A         	call	_DAC1_Initialize	;wreg free
  2472   002EB0                     
  2473                           ;main.c: 62:     generate_sine_wave();
  2474   002EB0  EC24  F018         	call	_generate_sine_wave	;wreg free
  2475   002EB4                     
  2476                           ;main.c: 74:     TRISB &= ~(1U << 7U);
  2477   002EB4  9EC7               	bcf	199,7,c	;volatile
  2478   002EB6                     
  2479                           ;main.c: 75:     TRISB &= ~(1U << 6U);
  2480   002EB6  9CC7               	bcf	199,6,c	;volatile
  2481   002EB8                     
  2482                           ;main.c: 76:     TRISB &= ~(1U << 5U);
  2483   002EB8  9AC7               	bcf	199,5,c	;volatile
  2484   002EBA                     
  2485                           ;main.c: 77:     WPUB = 0;
  2486   002EBA  0E00               	movlw	0
  2487   002EBC  0104               	movlb	4	; () banked
  2488   002EBE  6F09               	movwf	9,b	;volatile
  2489   002EC0                     
  2490                           ; BSR set to: 4
  2491                           ;main.c: 78:     ODCONB = 0;
  2492   002EC0  0E00               	movlw	0
  2493   002EC2  6F0A               	movwf	10,b	;volatile
  2494   002EC4                     
  2495                           ; BSR set to: 4
  2496                           ;main.c: 80:     uint8_t bShow = 0;
  2497   002EC4  0E00               	movlw	0
  2498   002EC6  0105               	movlb	5	; () banked
  2499   002EC8  6FCB               	movwf	main@bShow& (0+255),b
  2500   002ECA                     
  2501                           ; BSR set to: 5
  2502                           ;main.c: 81:     uint32_t xxx = 0;
  2503   002ECA  0E00               	movlw	0
  2504   002ECC  6FCC               	movwf	main@xxx& (0+255),b
  2505   002ECE  0E00               	movlw	0
  2506   002ED0  6FCD               	movwf	(main@xxx+1)& (0+255),b
  2507   002ED2  0E00               	movlw	0
  2508   002ED4  6FCE               	movwf	(main@xxx+2)& (0+255),b
  2509   002ED6  0E00               	movlw	0
  2510   002ED8  6FCF               	movwf	(main@xxx+3)& (0+255),b
  2511   002EDA                     
  2512                           ; BSR set to: 5
  2513                           ;main.c: 82:     uint32_t yyy = 0;
  2514   002EDA  0E00               	movlw	0
  2515   002EDC  6FC7               	movwf	main@yyy& (0+255),b
  2516   002EDE  0E00               	movlw	0
  2517   002EE0  6FC8               	movwf	(main@yyy+1)& (0+255),b
  2518   002EE2  0E00               	movlw	0
  2519   002EE4  6FC9               	movwf	(main@yyy+2)& (0+255),b
  2520   002EE6  0E00               	movlw	0
  2521   002EE8  6FCA               	movwf	(main@yyy+3)& (0+255),b
  2522   002EEA                     
  2523                           ; BSR set to: 5
  2524                           ;main.c: 83:     int8_t light = 0;
  2525   002EEA  0E00               	movlw	0
  2526   002EEC  6FD4               	movwf	main@light& (0+255),b
  2527   002EEE                     
  2528                           ; BSR set to: 5
  2529                           ;main.c: 84:     uint32_t counter = 0;
  2530   002EEE  0E00               	movlw	0
  2531   002EF0  6FD0               	movwf	main@counter& (0+255),b
  2532   002EF2  0E00               	movlw	0
  2533   002EF4  6FD1               	movwf	(main@counter+1)& (0+255),b
  2534   002EF6  0E00               	movlw	0
  2535   002EF8  6FD2               	movwf	(main@counter+2)& (0+255),b
  2536   002EFA  0E00               	movlw	0
  2537   002EFC  6FD3               	movwf	(main@counter+3)& (0+255),b
  2538   002EFE                     l3476:
  2539                           
  2540                           ; BSR set to: 5
  2541                           ;main.c: 86:     {;main.c: 89:         if(counter < light)
  2542   002EFE  51D4               	movf	main@light& (0+255),w,b
  2543   002F00  6FC3               	movwf	??_main& (0+255),b
  2544   002F02  0E00               	movlw	0
  2545   002F04  BFC3               	btfsc	??_main& (0+255),7,b
  2546   002F06  0EFF               	movlw	255
  2547   002F08  6FC4               	movwf	(??_main+1)& (0+255),b
  2548   002F0A  6FC5               	movwf	(??_main+2)& (0+255),b
  2549   002F0C  6FC6               	movwf	(??_main+3)& (0+255),b
  2550   002F0E  51C3               	movf	??_main& (0+255),w,b
  2551   002F10  5DD0               	subwf	main@counter& (0+255),w,b
  2552   002F12  51C4               	movf	(??_main+1)& (0+255),w,b
  2553   002F14  59D1               	subwfb	(main@counter+1)& (0+255),w,b
  2554   002F16  51C5               	movf	(??_main+2)& (0+255),w,b
  2555   002F18  59D2               	subwfb	(main@counter+2)& (0+255),w,b
  2556   002F1A  51C6               	movf	(??_main+3)& (0+255),w,b
  2557   002F1C  59D3               	subwfb	(main@counter+3)& (0+255),w,b
  2558   002F1E  B0D8               	btfsc	status,0,c
  2559   002F20  EF94  F017         	goto	u3091
  2560   002F24  EF96  F017         	goto	u3090
  2561   002F28                     u3091:
  2562   002F28  EF9B  F017         	goto	l3480
  2563   002F2C                     u3090:
  2564   002F2C                     
  2565                           ; BSR set to: 5
  2566                           ;main.c: 90:         {;main.c: 91:             PORTB |= (1U << 7U);
  2567   002F2C  8ECF               	bsf	207,7,c	;volatile
  2568                           
  2569                           ;main.c: 92:             PORTB |= (1U << 5U);
  2570   002F2E  8ACF               	bsf	207,5,c	;volatile
  2571                           
  2572                           ;main.c: 93:             PORTB &= ~(1U << 6U);
  2573   002F30  9CCF               	bcf	207,6,c	;volatile
  2574                           
  2575                           ;main.c: 94:         }
  2576   002F32  EF9F  F017         	goto	l591
  2577   002F36                     l3480:
  2578                           
  2579                           ; BSR set to: 5
  2580                           ;main.c: 96:         {;main.c: 97:             PORTB &= ~(1U << 7U);
  2581   002F36  9ECF               	bcf	207,7,c	;volatile
  2582   002F38                     
  2583                           ; BSR set to: 5
  2584                           ;main.c: 98:             PORTB &= (1U << 5U);
  2585   002F38  0E20               	movlw	32
  2586   002F3A  16CF               	andwf	207,f,c	;volatile
  2587   002F3C                     
  2588                           ; BSR set to: 5
  2589                           ;main.c: 99:             PORTB |= (1U << 6U);
  2590   002F3C  8CCF               	bsf	207,6,c	;volatile
  2591   002F3E                     l591:
  2592                           
  2593                           ; BSR set to: 5
  2594                           ;main.c: 102:         if(++counter > 10)
  2595   002F3E  0E01               	movlw	1
  2596   002F40  27D0               	addwf	main@counter& (0+255),f,b
  2597   002F42  0E00               	movlw	0
  2598   002F44  23D1               	addwfc	(main@counter+1)& (0+255),f,b
  2599   002F46  23D2               	addwfc	(main@counter+2)& (0+255),f,b
  2600   002F48  23D3               	addwfc	(main@counter+3)& (0+255),f,b
  2601   002F4A  51D3               	movf	(main@counter+3)& (0+255),w,b
  2602   002F4C  11D2               	iorwf	(main@counter+2)& (0+255),w,b
  2603   002F4E  11D1               	iorwf	(main@counter+1)& (0+255),w,b
  2604   002F50  E109               	bnz	u3100
  2605   002F52  0E0B               	movlw	11
  2606   002F54  5DD0               	subwf	main@counter& (0+255),w,b
  2607   002F56  A0D8               	btfss	status,0,c
  2608   002F58  EFB0  F017         	goto	u3101
  2609   002F5C  EFB2  F017         	goto	u3100
  2610   002F60                     u3101:
  2611   002F60  EFFB  F017         	goto	l3500
  2612   002F64                     u3100:
  2613   002F64                     
  2614                           ; BSR set to: 5
  2615                           ;main.c: 103:         {;main.c: 104:             counter = 0;
  2616   002F64  0E00               	movlw	0
  2617   002F66  6FD0               	movwf	main@counter& (0+255),b
  2618   002F68  0E00               	movlw	0
  2619   002F6A  6FD1               	movwf	(main@counter+1)& (0+255),b
  2620   002F6C  0E00               	movlw	0
  2621   002F6E  6FD2               	movwf	(main@counter+2)& (0+255),b
  2622   002F70  0E00               	movlw	0
  2623   002F72  6FD3               	movwf	(main@counter+3)& (0+255),b
  2624   002F74                     
  2625                           ; BSR set to: 5
  2626                           ;main.c: 105:             if(++yyy > 0x2000)
  2627   002F74  0E01               	movlw	1
  2628   002F76  27C7               	addwf	main@yyy& (0+255),f,b
  2629   002F78  0E00               	movlw	0
  2630   002F7A  23C8               	addwfc	(main@yyy+1)& (0+255),f,b
  2631   002F7C  23C9               	addwfc	(main@yyy+2)& (0+255),f,b
  2632   002F7E  23CA               	addwfc	(main@yyy+3)& (0+255),f,b
  2633   002F80  51CA               	movf	(main@yyy+3)& (0+255),w,b
  2634   002F82  11C9               	iorwf	(main@yyy+2)& (0+255),w,b
  2635   002F84  E10A               	bnz	u3110
  2636   002F86  05C7               	decf	main@yyy& (0+255),w,b
  2637   002F88  0E20               	movlw	32
  2638   002F8A  59C8               	subwfb	(main@yyy+1)& (0+255),w,b
  2639   002F8C  A0D8               	btfss	status,0,c
  2640   002F8E  EFCB  F017         	goto	u3111
  2641   002F92  EFCD  F017         	goto	u3110
  2642   002F96                     u3111:
  2643   002F96  EFFB  F017         	goto	l3500
  2644   002F9A                     u3110:
  2645   002F9A                     
  2646                           ; BSR set to: 5
  2647                           ;main.c: 106:             {;main.c: 107:                 yyy = 0;
  2648   002F9A  0E00               	movlw	0
  2649   002F9C  6FC7               	movwf	main@yyy& (0+255),b
  2650   002F9E  0E00               	movlw	0
  2651   002FA0  6FC8               	movwf	(main@yyy+1)& (0+255),b
  2652   002FA2  0E00               	movlw	0
  2653   002FA4  6FC9               	movwf	(main@yyy+2)& (0+255),b
  2654   002FA6  0E00               	movlw	0
  2655   002FA8  6FCA               	movwf	(main@yyy+3)& (0+255),b
  2656                           
  2657                           ;main.c: 109:                 if(bShow == 0)
  2658   002FAA  51CB               	movf	main@bShow& (0+255),w,b
  2659   002FAC  A4D8               	btfss	status,2,c
  2660   002FAE  EFDB  F017         	goto	u3121
  2661   002FB2  EFDD  F017         	goto	u3120
  2662   002FB6                     u3121:
  2663   002FB6  EFEC  F017         	goto	l3496
  2664   002FBA                     u3120:
  2665   002FBA                     
  2666                           ; BSR set to: 5
  2667                           ;main.c: 110:                 {;main.c: 111:                     if(++light > 10)
  2668   002FBA  2BD4               	incf	main@light& (0+255),f,b
  2669   002FBC  51D4               	movf	main@light& (0+255),w,b
  2670   002FBE  0A80               	xorlw	128
  2671   002FC0  0F75               	addlw	-139
  2672   002FC2  A0D8               	btfss	status,0,c
  2673   002FC4  EFE6  F017         	goto	u3131
  2674   002FC8  EFE8  F017         	goto	u3130
  2675   002FCC                     u3131:
  2676   002FCC  EFFB  F017         	goto	l593
  2677   002FD0                     u3130:
  2678   002FD0                     
  2679                           ; BSR set to: 5
  2680                           ;main.c: 112:                     {;main.c: 113:                         bShow = 1;
  2681   002FD0  0E01               	movlw	1
  2682   002FD2  6FCB               	movwf	main@bShow& (0+255),b
  2683   002FD4  EFFB  F017         	goto	l3500
  2684   002FD8                     l3496:
  2685                           
  2686                           ; BSR set to: 5
  2687                           ;main.c: 117:                 {;main.c: 118:                     if(--light <= 0)
  2688   002FD8  07D4               	decf	main@light& (0+255),f,b
  2689   002FDA  51D4               	movf	main@light& (0+255),w,b
  2690   002FDC  0A80               	xorlw	128
  2691   002FDE  0F7F               	addlw	-129
  2692   002FE0  B0D8               	btfsc	status,0,c
  2693   002FE2  EFF5  F017         	goto	u3141
  2694   002FE6  EFF7  F017         	goto	u3140
  2695   002FEA                     u3141:
  2696   002FEA  EFFB  F017         	goto	l593
  2697   002FEE                     u3140:
  2698   002FEE                     
  2699                           ; BSR set to: 5
  2700                           ;main.c: 119:                     {;main.c: 120:                         bShow = 0;
  2701   002FEE  0E00               	movlw	0
  2702   002FF0  6FCB               	movwf	main@bShow& (0+255),b
  2703   002FF2  EFFB  F017         	goto	l3500
  2704   002FF6                     l593:
  2705   002FF6                     l3500:
  2706                           
  2707                           ; BSR set to: 5
  2708                           ;main.c: 127:         DAC1_SetOutput(rawData[xxx]);
  2709   002FF6  0E64               	movlw	low _rawData
  2710   002FF8  25CC               	addwf	main@xxx& (0+255),w,b
  2711   002FFA  6ED9               	movwf	fsr2l,c
  2712   002FFC  0E06               	movlw	high _rawData
  2713   002FFE  21CD               	addwfc	(main@xxx+1)& (0+255),w,b
  2714   003000  6EDA               	movwf	fsr2h,c
  2715   003002  50DF               	movf	indf2,w,c
  2716   003004  EC0B  F01B         	call	_DAC1_SetOutput
  2717   003008                     
  2718                           ;main.c: 128:         if(++xxx > 0x600)
  2719   003008  0E01               	movlw	1
  2720   00300A  0105               	movlb	5	; () banked
  2721   00300C  27CC               	addwf	main@xxx& (0+255),f,b
  2722   00300E  0E00               	movlw	0
  2723   003010  23CD               	addwfc	(main@xxx+1)& (0+255),f,b
  2724   003012  23CE               	addwfc	(main@xxx+2)& (0+255),f,b
  2725   003014  23CF               	addwfc	(main@xxx+3)& (0+255),f,b
  2726   003016  51CF               	movf	(main@xxx+3)& (0+255),w,b
  2727   003018  11CE               	iorwf	(main@xxx+2)& (0+255),w,b
  2728   00301A  E10A               	bnz	u3150
  2729   00301C  05CC               	decf	main@xxx& (0+255),w,b
  2730   00301E  0E06               	movlw	6
  2731   003020  59CD               	subwfb	(main@xxx+1)& (0+255),w,b
  2732   003022  A0D8               	btfss	status,0,c
  2733   003024  EF16  F018         	goto	u3151
  2734   003028  EF18  F018         	goto	u3150
  2735   00302C                     u3151:
  2736   00302C  EF7F  F017         	goto	l3476
  2737   003030                     u3150:
  2738   003030                     
  2739                           ; BSR set to: 5
  2740                           ;main.c: 129:         {;main.c: 130:             xxx = 0;
  2741   003030  0E00               	movlw	0
  2742   003032  6FCC               	movwf	main@xxx& (0+255),b
  2743   003034  0E00               	movlw	0
  2744   003036  6FCD               	movwf	(main@xxx+1)& (0+255),b
  2745   003038  0E00               	movlw	0
  2746   00303A  6FCE               	movwf	(main@xxx+2)& (0+255),b
  2747   00303C  0E00               	movlw	0
  2748   00303E  6FCF               	movwf	(main@xxx+3)& (0+255),b
  2749   003040  EF7F  F017         	goto	l3476
  2750   003044  EFFE  F03F         	goto	start
  2751   003048                     __end_of_main:
  2752                           	callstack 0
  2753                           
  2754 ;; *************** function _generate_sine_wave *****************
  2755 ;; Defined at:
  2756 ;;		line 51 in file "main.c"
  2757 ;; Parameters:    Size  Location     Type
  2758 ;;		None
  2759 ;; Auto vars:     Size  Location     Type
  2760 ;;  i               2   97[BANK5 ] int 
  2761 ;; Return value:  Size  Location     Type
  2762 ;;                  1    wreg      void 
  2763 ;; Registers used:
  2764 ;;		wreg, fsr2l, fsr2h, status,2, status,0, prodl, prodh, cstack
  2765 ;; Tracked objects:
  2766 ;;		On entry : 0/0
  2767 ;;		On exit  : 0/0
  2768 ;;		Unchanged: 0/0
  2769 ;; Data sizes:     COMRAM   BANK5   BANK6   BANK7   BANK8   BANK9  BANK10  BANK11  BANK12
  2770 ;;      Params:         0       0       0       0       0       0       0       0       0
  2771 ;;      Locals:         0      14       0       0       0       0       0       0       0
  2772 ;;      Temps:          0       0       0       0       0       0       0       0       0
  2773 ;;      Totals:         0      14       0       0       0       0       0       0       0
  2774 ;;Total ram usage:       14 bytes
  2775 ;; Hardware stack levels used: 1
  2776 ;; Hardware stack levels required when called: 4
  2777 ;; This function calls:
  2778 ;;		___fladd
  2779 ;;		___fldiv
  2780 ;;		___flmul
  2781 ;;		___fltol
  2782 ;;		___xxtofl
  2783 ;;		_sinf
  2784 ;; This function is called by:
  2785 ;;		_main
  2786 ;; This function uses a non-reentrant model
  2787 ;;
  2788                           
  2789                           	psect	text1
  2790   003048                     __ptext1:
  2791                           	callstack 0
  2792   003048                     _generate_sine_wave:
  2793                           	callstack 122
  2794   003048                     
  2795                           ;main.c: 52:     for (int i = 0; i < 100; i++) {
  2796   003048  0E00               	movlw	0
  2797   00304A  0105               	movlb	5	; () banked
  2798   00304C  6FC2               	movwf	(generate_sine_wave@i+1)& (0+255),b
  2799   00304E  0E00               	movlw	0
  2800   003050  6FC1               	movwf	generate_sine_wave@i& (0+255),b
  2801   003052                     l3366:
  2802                           
  2803                           ; BSR set to: 5
  2804                           ;main.c: 53:         sine_wave[i] = (uint8_t)(2047 * (1 + sinf(2 * 3.14159265 * i / 100)
      +                          ) + 2048);
  2805   003052  0E00               	movlw	0
  2806   003054  6E2C               	movwf	___fldiv@a^(0+1280),c
  2807   003056  0E00               	movlw	0
  2808   003058  6E2D               	movwf	(___fldiv@a+1)^(0+1280),c
  2809   00305A  0EC8               	movlw	200
  2810   00305C  6E2E               	movwf	(___fldiv@a+2)^(0+1280),c
  2811   00305E  0E42               	movlw	66
  2812   003060  6E2F               	movwf	(___fldiv@a+3)^(0+1280),c
  2813   003062  0EDB               	movlw	219
  2814   003064  6E13               	movwf	___flmul@a^(0+1280),c
  2815   003066  0E0F               	movlw	15
  2816   003068  6E14               	movwf	(___flmul@a+1)^(0+1280),c
  2817   00306A  0EC9               	movlw	201
  2818   00306C  6E15               	movwf	(___flmul@a+2)^(0+1280),c
  2819   00306E  0E40               	movlw	64
  2820   003070  6E16               	movwf	(___flmul@a+3)^(0+1280),c
  2821   003072  C5C1  F501         	movff	generate_sine_wave@i,___xxtofl@val
  2822   003076  C5C2  F502         	movff	generate_sine_wave@i+1,___xxtofl@val+1
  2823   00307A  0E00               	movlw	0
  2824   00307C  BE02               	btfsc	(___xxtofl@val+1)^(0+1280),7,c
  2825   00307E  0EFF               	movlw	-1
  2826   003080  6E03               	movwf	(___xxtofl@val+2)^(0+1280),c
  2827   003082  6E04               	movwf	(___xxtofl@val+3)^(0+1280),c
  2828   003084  0E01               	movlw	1
  2829   003086  EC7A  F016         	call	___xxtofl
  2830   00308A  C501  F50F         	movff	?___xxtofl,___flmul@b
  2831   00308E  C502  F510         	movff	?___xxtofl+1,___flmul@b+1
  2832   003092  C503  F511         	movff	?___xxtofl+2,___flmul@b+2
  2833   003096  C504  F512         	movff	?___xxtofl+3,___flmul@b+3
  2834   00309A  EC9B  F00E         	call	___flmul	;wreg free
  2835   00309E  C50F  F528         	movff	?___flmul,___fldiv@b
  2836   0030A2  C510  F529         	movff	?___flmul+1,___fldiv@b+1
  2837   0030A6  C511  F52A         	movff	?___flmul+2,___fldiv@b+2
  2838   0030AA  C512  F52B         	movff	?___flmul+3,___fldiv@b+3
  2839   0030AE  EC95  F012         	call	___fldiv	;wreg free
  2840   0030B2  C528  F5B5         	movff	?___fldiv,_generate_sine_wave$1852
  2841   0030B6  C529  F5B6         	movff	?___fldiv+1,_generate_sine_wave$1852+1
  2842   0030BA  C52A  F5B7         	movff	?___fldiv+2,_generate_sine_wave$1852+2
  2843   0030BE  C52B  F5B8         	movff	?___fldiv+3,_generate_sine_wave$1852+3
  2844   0030C2                     
  2845                           ;main.c: 53:         sine_wave[i] = (uint8_t)(2047 * (1 + sinf(2 * 3.14159265 * i / 100)
      +                          ) + 2048);
  2846   0030C2  C5B5  F59B         	movff	_generate_sine_wave$1852,sinf@x
  2847   0030C6  C5B6  F59C         	movff	_generate_sine_wave$1852+1,sinf@x+1
  2848   0030CA  C5B7  F59D         	movff	_generate_sine_wave$1852+2,sinf@x+2
  2849   0030CE  C5B8  F59E         	movff	_generate_sine_wave$1852+3,sinf@x+3
  2850   0030D2  ECB4  F009         	call	_sinf	;wreg free
  2851   0030D6  C59B  F5B9         	movff	?_sinf,_generate_sine_wave$1853
  2852   0030DA  C59C  F5BA         	movff	?_sinf+1,_generate_sine_wave$1853+1
  2853   0030DE  C59D  F5BB         	movff	?_sinf+2,_generate_sine_wave$1853+2
  2854   0030E2  C59E  F5BC         	movff	?_sinf+3,_generate_sine_wave$1853+3
  2855   0030E6                     
  2856                           ;main.c: 53:         sine_wave[i] = (uint8_t)(2047 * (1 + sinf(2 * 3.14159265 * i / 100)
      +                          ) + 2048);
  2857   0030E6  0E00               	movlw	0
  2858   0030E8  6E13               	movwf	___flmul@a^(0+1280),c
  2859   0030EA  0EE0               	movlw	224
  2860   0030EC  6E14               	movwf	(___flmul@a+1)^(0+1280),c
  2861   0030EE  0EFF               	movlw	255
  2862   0030F0  6E15               	movwf	(___flmul@a+2)^(0+1280),c
  2863   0030F2  0E44               	movlw	68
  2864   0030F4  6E16               	movwf	(___flmul@a+3)^(0+1280),c
  2865   0030F6  0E00               	movlw	0
  2866   0030F8  6E45               	movwf	___fladd@a^(0+1280),c
  2867   0030FA  0E00               	movlw	0
  2868   0030FC  6E46               	movwf	(___fladd@a+1)^(0+1280),c
  2869   0030FE  0E80               	movlw	128
  2870   003100  6E47               	movwf	(___fladd@a+2)^(0+1280),c
  2871   003102  0E3F               	movlw	63
  2872   003104  6E48               	movwf	(___fladd@a+3)^(0+1280),c
  2873   003106  C5B9  F541         	movff	_generate_sine_wave$1853,___fladd@b
  2874   00310A  C5BA  F542         	movff	_generate_sine_wave$1853+1,___fladd@b+1
  2875   00310E  C5BB  F543         	movff	_generate_sine_wave$1853+2,___fladd@b+2
  2876   003112  C5BC  F544         	movff	_generate_sine_wave$1853+3,___fladd@b+3
  2877   003116  EC3B  F00C         	call	___fladd	;wreg free
  2878   00311A  C541  F50F         	movff	?___fladd,___flmul@b
  2879   00311E  C542  F510         	movff	?___fladd+1,___flmul@b+1
  2880   003122  C543  F511         	movff	?___fladd+2,___flmul@b+2
  2881   003126  C544  F512         	movff	?___fladd+3,___flmul@b+3
  2882   00312A  EC9B  F00E         	call	___flmul	;wreg free
  2883   00312E  C50F  F5BD         	movff	?___flmul,_generate_sine_wave$1854
  2884   003132  C510  F5BE         	movff	?___flmul+1,_generate_sine_wave$1854+1
  2885   003136  C511  F5BF         	movff	?___flmul+2,_generate_sine_wave$1854+2
  2886   00313A  C512  F5C0         	movff	?___flmul+3,_generate_sine_wave$1854+3
  2887   00313E                     
  2888                           ;main.c: 53:         sine_wave[i] = (uint8_t)(2047 * (1 + sinf(2 * 3.14159265 * i / 100)
      +                          ) + 2048);
  2889   00313E  0E00               	movlw	low _sine_wave
  2890   003140  0105               	movlb	5	; () banked
  2891   003142  25C1               	addwf	generate_sine_wave@i& (0+255),w,b
  2892   003144  6ED9               	movwf	fsr2l,c
  2893   003146  0E06               	movlw	high _sine_wave
  2894   003148  21C2               	addwfc	(generate_sine_wave@i+1)& (0+255),w,b
  2895   00314A  6EDA               	movwf	fsr2h,c
  2896   00314C  0E00               	movlw	0
  2897   00314E  6E45               	movwf	___fladd@a^(0+1280),c
  2898   003150  0E00               	movlw	0
  2899   003152  6E46               	movwf	(___fladd@a+1)^(0+1280),c
  2900   003154  0E00               	movlw	0
  2901   003156  6E47               	movwf	(___fladd@a+2)^(0+1280),c
  2902   003158  0E45               	movlw	69
  2903   00315A  6E48               	movwf	(___fladd@a+3)^(0+1280),c
  2904   00315C  C5BD  F541         	movff	_generate_sine_wave$1854,___fladd@b
  2905   003160  C5BE  F542         	movff	_generate_sine_wave$1854+1,___fladd@b+1
  2906   003164  C5BF  F543         	movff	_generate_sine_wave$1854+2,___fladd@b+2
  2907   003168  C5C0  F544         	movff	_generate_sine_wave$1854+3,___fladd@b+3
  2908   00316C  EC3B  F00C         	call	___fladd	;wreg free
  2909   003170  C541  F551         	movff	?___fladd,___fltol@f1
  2910   003174  C542  F552         	movff	?___fladd+1,___fltol@f1+1
  2911   003178  C543  F553         	movff	?___fladd+2,___fltol@f1+2
  2912   00317C  C544  F554         	movff	?___fladd+3,___fltol@f1+3
  2913   003180  ECD6  F018         	call	___fltol	;wreg free
  2914   003184  5051               	movf	?___fltol^(0+1280),w,c
  2915   003186  6EDF               	movwf	indf2,c
  2916   003188                     
  2917                           ;main.c: 54:     }
  2918   003188  0105               	movlb	5	; () banked
  2919   00318A  4BC1               	infsnz	generate_sine_wave@i& (0+255),f,b
  2920   00318C  2BC2               	incf	(generate_sine_wave@i+1)& (0+255),f,b
  2921   00318E                     
  2922                           ; BSR set to: 5
  2923   00318E  BFC2               	btfsc	(generate_sine_wave@i+1)& (0+255),7,b
  2924   003190  EFD3  F018         	goto	u2821
  2925   003194  51C2               	movf	(generate_sine_wave@i+1)& (0+255),w,b
  2926   003196  E109               	bnz	u2820
  2927   003198  0E64               	movlw	100
  2928   00319A  5DC1               	subwf	generate_sine_wave@i& (0+255),w,b
  2929   00319C  A0D8               	btfss	status,0,c
  2930   00319E  EFD3  F018         	goto	u2821
  2931   0031A2  EFD5  F018         	goto	u2820
  2932   0031A6                     u2821:
  2933   0031A6  EF29  F018         	goto	l3366
  2934   0031AA                     u2820:
  2935   0031AA                     
  2936                           ; BSR set to: 5
  2937   0031AA  0012               	return		;funcret
  2938   0031AC                     __end_of_generate_sine_wave:
  2939                           	callstack 0
  2940                           
  2941 ;; *************** function _sinf *****************
  2942 ;; Defined at:
  2943 ;;		line 27 in file "S:\XC8C\pic\sources\c99\common\sinf.c"
  2944 ;; Parameters:    Size  Location     Type
  2945 ;;  x               4   59[BANK5 ] float 
  2946 ;; Auto vars:     Size  Location     Type
  2947 ;;  ux              4   81[BANK5 ] struct .
  2948 ;;  y               4   77[BANK5 ] struct .
  2949 ;;  sign            1   72[BANK5 ] _Bool 
  2950 ;;  n               1   71[BANK5 ] unsigned char 
  2951 ;; Return value:  Size  Location     Type
  2952 ;;                  4   59[BANK5 ] float 
  2953 ;; Registers used:
  2954 ;;		wreg, fsr2l, fsr2h, status,2, status,0, prodl, prodh, cstack
  2955 ;; Tracked objects:
  2956 ;;		On entry : 0/0
  2957 ;;		On exit  : 0/0
  2958 ;;		Unchanged: 0/0
  2959 ;; Data sizes:     COMRAM   BANK5   BANK6   BANK7   BANK8   BANK9  BANK10  BANK11  BANK12
  2960 ;;      Params:         0       4       0       0       0       0       0       0       0
  2961 ;;      Locals:         0      22       0       0       0       0       0       0       0
  2962 ;;      Temps:          0       0       0       0       0       0       0       0       0
  2963 ;;      Totals:         0      26       0       0       0       0       0       0       0
  2964 ;;Total ram usage:       26 bytes
  2965 ;; Hardware stack levels used: 1
  2966 ;; Hardware stack levels required when called: 3
  2967 ;; This function calls:
  2968 ;;		___cosdf
  2969 ;;		___fladd
  2970 ;;		___flneg
  2971 ;;		___rem_pio2f
  2972 ;;		___sindf
  2973 ;; This function is called by:
  2974 ;;		_generate_sine_wave
  2975 ;; This function uses a non-reentrant model
  2976 ;;
  2977                           
  2978                           	psect	text2
  2979   001368                     __ptext2:
  2980                           	callstack 0
  2981   001368                     _sinf:
  2982                           	callstack 122
  2983   001368  C59B  F5B1         	movff	sinf@x,sinf@ux
  2984   00136C  C59C  F5B2         	movff	sinf@x+1,sinf@ux+1
  2985   001370  C59D  F5B3         	movff	sinf@x+2,sinf@ux+2
  2986   001374  C59E  F5B4         	movff	sinf@x+3,sinf@ux+3
  2987   001378  0105               	movlb	5	; () banked
  2988   00137A  BFB4               	btfsc	(sinf@ux+3)& (0+255),7,b
  2989   00137C  EFC2  F009         	goto	u2461
  2990   001380  EFC5  F009         	goto	u2460
  2991   001384                     u2461:
  2992   001384  0E01               	movlw	1
  2993   001386  EFC6  F009         	goto	u2470
  2994   00138A                     u2460:
  2995   00138A  0E00               	movlw	0
  2996   00138C                     u2470:
  2997   00138C  6FA8               	movwf	sinf@sign& (0+255),b
  2998   00138E                     
  2999                           ; BSR set to: 5
  3000   00138E  9FB4               	bcf	(sinf@ux+3)& (0+255),7,b
  3001   001390                     
  3002                           ; BSR set to: 5
  3003   001390  0EDB               	movlw	219
  3004   001392  5DB1               	subwf	sinf@ux& (0+255),w,b
  3005   001394  0E0F               	movlw	15
  3006   001396  59B2               	subwfb	(sinf@ux+1)& (0+255),w,b
  3007   001398  0E49               	movlw	73
  3008   00139A  59B3               	subwfb	(sinf@ux+2)& (0+255),w,b
  3009   00139C  0E3F               	movlw	63
  3010   00139E  59B4               	subwfb	(sinf@ux+3)& (0+255),w,b
  3011   0013A0  B0D8               	btfsc	status,0,c
  3012   0013A2  EFD5  F009         	goto	u2481
  3013   0013A6  EFD7  F009         	goto	u2480
  3014   0013AA                     u2481:
  3015   0013AA  EF00  F00A         	goto	l3124
  3016   0013AE                     u2480:
  3017   0013AE                     
  3018                           ; BSR set to: 5
  3019   0013AE  0E80               	movlw	128
  3020   0013B0  5DB3               	subwf	(sinf@ux+2)& (0+255),w,b
  3021   0013B2  0E39               	movlw	57
  3022   0013B4  59B4               	subwfb	(sinf@ux+3)& (0+255),w,b
  3023   0013B6  B0D8               	btfsc	status,0,c
  3024   0013B8  EFE0  F009         	goto	u2491
  3025   0013BC  EFE2  F009         	goto	u2490
  3026   0013C0                     u2491:
  3027   0013C0  EFEC  F009         	goto	l3120
  3028   0013C4                     u2490:
  3029   0013C4                     
  3030                           ; BSR set to: 5
  3031   0013C4  C59B  F59B         	movff	sinf@x,?_sinf
  3032   0013C8  C59C  F59C         	movff	sinf@x+1,?_sinf+1
  3033   0013CC  C59D  F59D         	movff	sinf@x+2,?_sinf+2
  3034   0013D0  C59E  F59E         	movff	sinf@x+3,?_sinf+3
  3035   0013D4  EF3A  F00C         	goto	l1294
  3036   0013D8                     l3120:
  3037                           
  3038                           ; BSR set to: 5
  3039   0013D8  C59B  F551         	movff	sinf@x,___sindf@x
  3040   0013DC  C59C  F552         	movff	sinf@x+1,___sindf@x+1
  3041   0013E0  C59D  F553         	movff	sinf@x+2,___sindf@x+2
  3042   0013E4  C59E  F554         	movff	sinf@x+3,___sindf@x+3
  3043   0013E8  EC62  F014         	call	___sindf	;wreg free
  3044   0013EC  C551  F59B         	movff	?___sindf,?_sinf
  3045   0013F0  C552  F59C         	movff	?___sindf+1,?_sinf+1
  3046   0013F4  C553  F59D         	movff	?___sindf+2,?_sinf+2
  3047   0013F8  C554  F59E         	movff	?___sindf+3,?_sinf+3
  3048   0013FC  EF3A  F00C         	goto	l1294
  3049   001400                     l3124:
  3050                           
  3051                           ; BSR set to: 5
  3052   001400  0ED2               	movlw	210
  3053   001402  5DB1               	subwf	sinf@ux& (0+255),w,b
  3054   001404  0E53               	movlw	83
  3055   001406  59B2               	subwfb	(sinf@ux+1)& (0+255),w,b
  3056   001408  0E7B               	movlw	123
  3057   00140A  59B3               	subwfb	(sinf@ux+2)& (0+255),w,b
  3058   00140C  0E40               	movlw	64
  3059   00140E  59B4               	subwfb	(sinf@ux+3)& (0+255),w,b
  3060   001410  B0D8               	btfsc	status,0,c
  3061   001412  EF0D  F00A         	goto	u2501
  3062   001416  EF0F  F00A         	goto	u2500
  3063   00141A                     u2501:
  3064   00141A  EFF2  F00A         	goto	l3154
  3065   00141E                     u2500:
  3066   00141E                     
  3067                           ; BSR set to: 5
  3068   00141E  0EE4               	movlw	228
  3069   001420  5DB1               	subwf	sinf@ux& (0+255),w,b
  3070   001422  0ECB               	movlw	203
  3071   001424  59B2               	subwfb	(sinf@ux+1)& (0+255),w,b
  3072   001426  0E16               	movlw	22
  3073   001428  59B3               	subwfb	(sinf@ux+2)& (0+255),w,b
  3074   00142A  0E40               	movlw	64
  3075   00142C  59B4               	subwfb	(sinf@ux+3)& (0+255),w,b
  3076   00142E  B0D8               	btfsc	status,0,c
  3077   001430  EF1C  F00A         	goto	u2511
  3078   001434  EF1E  F00A         	goto	u2510
  3079   001438                     u2511:
  3080   001438  EF8C  F00A         	goto	l3144
  3081   00143C                     u2510:
  3082   00143C                     
  3083                           ; BSR set to: 5
  3084   00143C  51A8               	movf	sinf@sign& (0+255),w,b
  3085   00143E  B4D8               	btfsc	status,2,c
  3086   001440  EF24  F00A         	goto	u2521
  3087   001444  EF26  F00A         	goto	u2520
  3088   001448                     u2521:
  3089   001448  EF5E  F00A         	goto	l3138
  3090   00144C                     u2520:
  3091   00144C                     
  3092                           ; BSR set to: 5
  3093   00144C  0EDB               	movlw	219
  3094   00144E  6E45               	movwf	___fladd@a^(0+1280),c
  3095   001450  0E0F               	movlw	15
  3096   001452  6E46               	movwf	(___fladd@a+1)^(0+1280),c
  3097   001454  0EC9               	movlw	201
  3098   001456  6E47               	movwf	(___fladd@a+2)^(0+1280),c
  3099   001458  0E3F               	movlw	63
  3100   00145A  6E48               	movwf	(___fladd@a+3)^(0+1280),c
  3101   00145C  C59B  F541         	movff	sinf@x,___fladd@b
  3102   001460  C59C  F542         	movff	sinf@x+1,___fladd@b+1
  3103   001464  C59D  F543         	movff	sinf@x+2,___fladd@b+2
  3104   001468  C59E  F544         	movff	sinf@x+3,___fladd@b+3
  3105   00146C  EC3B  F00C         	call	___fladd	;wreg free
  3106   001470  C541  F5A9         	movff	?___fladd,_sinf$1855
  3107   001474  C542  F5AA         	movff	?___fladd+1,_sinf$1855+1
  3108   001478  C543  F5AB         	movff	?___fladd+2,_sinf$1855+2
  3109   00147C  C544  F5AC         	movff	?___fladd+3,_sinf$1855+3
  3110   001480                     l3132:
  3111   001480  C5A9  F551         	movff	_sinf$1855,___cosdf@x
  3112   001484  C5AA  F552         	movff	_sinf$1855+1,___cosdf@x+1
  3113   001488  C5AB  F553         	movff	_sinf$1855+2,___cosdf@x+2
  3114   00148C  C5AC  F554         	movff	_sinf$1855+3,___cosdf@x+3
  3115   001490  EC7B  F015         	call	___cosdf	;wreg free
  3116   001494  C551  F578         	movff	?___cosdf,___flneg@f1
  3117   001498  C552  F579         	movff	?___cosdf+1,___flneg@f1+1
  3118   00149C  C553  F57A         	movff	?___cosdf+2,___flneg@f1+2
  3119   0014A0  C554  F57B         	movff	?___cosdf+3,___flneg@f1+3
  3120   0014A4  EC5B  F01A         	call	___flneg	;wreg free
  3121   0014A8  C578  F59B         	movff	?___flneg,?_sinf
  3122   0014AC  C579  F59C         	movff	?___flneg+1,?_sinf+1
  3123   0014B0  C57A  F59D         	movff	?___flneg+2,?_sinf+2
  3124   0014B4  C57B  F59E         	movff	?___flneg+3,?_sinf+3
  3125   0014B8  EF3A  F00C         	goto	l1294
  3126   0014BC                     l3138:
  3127                           
  3128                           ; BSR set to: 5
  3129   0014BC  C59B  F541         	movff	sinf@x,___fladd@b
  3130   0014C0  C59C  F542         	movff	sinf@x+1,___fladd@b+1
  3131   0014C4  C59D  F543         	movff	sinf@x+2,___fladd@b+2
  3132   0014C8  C59E  F544         	movff	sinf@x+3,___fladd@b+3
  3133   0014CC  0EDB               	movlw	219
  3134   0014CE  6E45               	movwf	___fladd@a^(0+1280),c
  3135   0014D0  0E0F               	movlw	15
  3136   0014D2  6E46               	movwf	(___fladd@a+1)^(0+1280),c
  3137   0014D4  0EC9               	movlw	201
  3138   0014D6  6E47               	movwf	(___fladd@a+2)^(0+1280),c
  3139   0014D8  0EBF               	movlw	191
  3140   0014DA  6E48               	movwf	(___fladd@a+3)^(0+1280),c
  3141   0014DC  EC3B  F00C         	call	___fladd	;wreg free
  3142   0014E0  C541  F5A9         	movff	?___fladd,_sinf$1855
  3143   0014E4  C542  F5AA         	movff	?___fladd+1,_sinf$1855+1
  3144   0014E8  C543  F5AB         	movff	?___fladd+2,_sinf$1855+2
  3145   0014EC  C544  F5AC         	movff	?___fladd+3,_sinf$1855+3
  3146   0014F0                     l3140:
  3147   0014F0  C5A9  F551         	movff	_sinf$1855,___cosdf@x
  3148   0014F4  C5AA  F552         	movff	_sinf$1855+1,___cosdf@x+1
  3149   0014F8  C5AB  F553         	movff	_sinf$1855+2,___cosdf@x+2
  3150   0014FC  C5AC  F554         	movff	_sinf$1855+3,___cosdf@x+3
  3151   001500  EC7B  F015         	call	___cosdf	;wreg free
  3152   001504  C551  F59B         	movff	?___cosdf,?_sinf
  3153   001508  C552  F59C         	movff	?___cosdf+1,?_sinf+1
  3154   00150C  C553  F59D         	movff	?___cosdf+2,?_sinf+2
  3155   001510  C554  F59E         	movff	?___cosdf+3,?_sinf+3
  3156   001514  EF3A  F00C         	goto	l1294
  3157   001518                     l3144:
  3158                           
  3159                           ; BSR set to: 5
  3160   001518  51A8               	movf	sinf@sign& (0+255),w,b
  3161   00151A  A4D8               	btfss	status,2,c
  3162   00151C  EF92  F00A         	goto	u2531
  3163   001520  EF94  F00A         	goto	u2530
  3164   001524                     u2531:
  3165   001524  EFBA  F00A         	goto	l3148
  3166   001528                     u2530:
  3167   001528                     
  3168                           ; BSR set to: 5
  3169   001528  0EDB               	movlw	219
  3170   00152A  6E45               	movwf	___fladd@a^(0+1280),c
  3171   00152C  0E0F               	movlw	15
  3172   00152E  6E46               	movwf	(___fladd@a+1)^(0+1280),c
  3173   001530  0E49               	movlw	73
  3174   001532  6E47               	movwf	(___fladd@a+2)^(0+1280),c
  3175   001534  0EC0               	movlw	192
  3176   001536  6E48               	movwf	(___fladd@a+3)^(0+1280),c
  3177   001538  C59B  F541         	movff	sinf@x,___fladd@b
  3178   00153C  C59C  F542         	movff	sinf@x+1,___fladd@b+1
  3179   001540  C59D  F543         	movff	sinf@x+2,___fladd@b+2
  3180   001544  C59E  F544         	movff	sinf@x+3,___fladd@b+3
  3181   001548  EC3B  F00C         	call	___fladd	;wreg free
  3182   00154C  C541  F578         	movff	?___fladd,___flneg@f1
  3183   001550  C542  F579         	movff	?___fladd+1,___flneg@f1+1
  3184   001554  C543  F57A         	movff	?___fladd+2,___flneg@f1+2
  3185   001558  C544  F57B         	movff	?___fladd+3,___flneg@f1+3
  3186   00155C  EC5B  F01A         	call	___flneg	;wreg free
  3187   001560  C578  F59F         	movff	?___flneg,_sinf$1538
  3188   001564  C579  F5A0         	movff	?___flneg+1,_sinf$1538+1
  3189   001568  C57A  F5A1         	movff	?___flneg+2,_sinf$1538+2
  3190   00156C  C57B  F5A2         	movff	?___flneg+3,_sinf$1538+3
  3191   001570  EFDE  F00A         	goto	l3150
  3192   001574                     l3148:
  3193                           
  3194                           ; BSR set to: 5
  3195   001574  0EDB               	movlw	219
  3196   001576  6E45               	movwf	___fladd@a^(0+1280),c
  3197   001578  0E0F               	movlw	15
  3198   00157A  6E46               	movwf	(___fladd@a+1)^(0+1280),c
  3199   00157C  0E49               	movlw	73
  3200   00157E  6E47               	movwf	(___fladd@a+2)^(0+1280),c
  3201   001580  0E40               	movlw	64
  3202   001582  6E48               	movwf	(___fladd@a+3)^(0+1280),c
  3203   001584  C59B  F541         	movff	sinf@x,___fladd@b
  3204   001588  C59C  F542         	movff	sinf@x+1,___fladd@b+1
  3205   00158C  C59D  F543         	movff	sinf@x+2,___fladd@b+2
  3206   001590  C59E  F544         	movff	sinf@x+3,___fladd@b+3
  3207   001594  EC3B  F00C         	call	___fladd	;wreg free
  3208   001598  C541  F578         	movff	?___fladd,___flneg@f1
  3209   00159C  C542  F579         	movff	?___fladd+1,___flneg@f1+1
  3210   0015A0  C543  F57A         	movff	?___fladd+2,___flneg@f1+2
  3211   0015A4  C544  F57B         	movff	?___fladd+3,___flneg@f1+3
  3212   0015A8  EC5B  F01A         	call	___flneg	;wreg free
  3213   0015AC  C578  F59F         	movff	?___flneg,_sinf$1538
  3214   0015B0  C579  F5A0         	movff	?___flneg+1,_sinf$1538+1
  3215   0015B4  C57A  F5A1         	movff	?___flneg+2,_sinf$1538+2
  3216   0015B8  C57B  F5A2         	movff	?___flneg+3,_sinf$1538+3
  3217   0015BC                     l3150:
  3218   0015BC  C59F  F551         	movff	_sinf$1538,___sindf@x
  3219   0015C0  C5A0  F552         	movff	_sinf$1538+1,___sindf@x+1
  3220   0015C4  C5A1  F553         	movff	_sinf$1538+2,___sindf@x+2
  3221   0015C8  C5A2  F554         	movff	_sinf$1538+3,___sindf@x+3
  3222   0015CC  EC62  F014         	call	___sindf	;wreg free
  3223   0015D0  C551  F59B         	movff	?___sindf,?_sinf
  3224   0015D4  C552  F59C         	movff	?___sindf+1,?_sinf+1
  3225   0015D8  C553  F59D         	movff	?___sindf+2,?_sinf+2
  3226   0015DC  C554  F59E         	movff	?___sindf+3,?_sinf+3
  3227   0015E0  EF3A  F00C         	goto	l1294
  3228   0015E4                     l3154:
  3229                           
  3230                           ; BSR set to: 5
  3231   0015E4  0ED6               	movlw	214
  3232   0015E6  5DB1               	subwf	sinf@ux& (0+255),w,b
  3233   0015E8  0E31               	movlw	49
  3234   0015EA  59B2               	subwfb	(sinf@ux+1)& (0+255),w,b
  3235   0015EC  0EE2               	movlw	226
  3236   0015EE  59B3               	subwfb	(sinf@ux+2)& (0+255),w,b
  3237   0015F0  0E40               	movlw	64
  3238   0015F2  59B4               	subwfb	(sinf@ux+3)& (0+255),w,b
  3239   0015F4  B0D8               	btfsc	status,0,c
  3240   0015F6  EFFF  F00A         	goto	u2541
  3241   0015FA  EF01  F00B         	goto	u2540
  3242   0015FE                     u2541:
  3243   0015FE  EFA2  F00B         	goto	l3184
  3244   001602                     u2540:
  3245   001602                     
  3246                           ; BSR set to: 5
  3247   001602  0EE0               	movlw	224
  3248   001604  5DB1               	subwf	sinf@ux& (0+255),w,b
  3249   001606  0EED               	movlw	237
  3250   001608  59B2               	subwfb	(sinf@ux+1)& (0+255),w,b
  3251   00160A  0EAF               	movlw	175
  3252   00160C  59B3               	subwfb	(sinf@ux+2)& (0+255),w,b
  3253   00160E  0E40               	movlw	64
  3254   001610  59B4               	subwfb	(sinf@ux+3)& (0+255),w,b
  3255   001612  B0D8               	btfsc	status,0,c
  3256   001614  EF0E  F00B         	goto	u2551
  3257   001618  EF10  F00B         	goto	u2550
  3258   00161C                     u2551:
  3259   00161C  EF50  F00B         	goto	l3174
  3260   001620                     u2550:
  3261   001620                     
  3262                           ; BSR set to: 5
  3263   001620  51A8               	movf	sinf@sign& (0+255),w,b
  3264   001622  B4D8               	btfsc	status,2,c
  3265   001624  EF16  F00B         	goto	u2561
  3266   001628  EF18  F00B         	goto	u2560
  3267   00162C                     u2561:
  3268   00162C  EF34  F00B         	goto	l3168
  3269   001630                     u2560:
  3270   001630                     
  3271                           ; BSR set to: 5
  3272   001630  C59B  F541         	movff	sinf@x,___fladd@b
  3273   001634  C59C  F542         	movff	sinf@x+1,___fladd@b+1
  3274   001638  C59D  F543         	movff	sinf@x+2,___fladd@b+2
  3275   00163C  C59E  F544         	movff	sinf@x+3,___fladd@b+3
  3276   001640  0EE4               	movlw	228
  3277   001642  6E45               	movwf	___fladd@a^(0+1280),c
  3278   001644  0ECB               	movlw	203
  3279   001646  6E46               	movwf	(___fladd@a+1)^(0+1280),c
  3280   001648  0E96               	movlw	150
  3281   00164A  6E47               	movwf	(___fladd@a+2)^(0+1280),c
  3282   00164C  0E40               	movlw	64
  3283   00164E  6E48               	movwf	(___fladd@a+3)^(0+1280),c
  3284   001650  EC3B  F00C         	call	___fladd	;wreg free
  3285   001654  C541  F5A9         	movff	?___fladd,_sinf$1855
  3286   001658  C542  F5AA         	movff	?___fladd+1,_sinf$1855+1
  3287   00165C  C543  F5AB         	movff	?___fladd+2,_sinf$1855+2
  3288   001660  C544  F5AC         	movff	?___fladd+3,_sinf$1855+3
  3289   001664  EF78  F00A         	goto	l3140
  3290   001668                     l3168:
  3291                           
  3292                           ; BSR set to: 5
  3293   001668  0EE4               	movlw	228
  3294   00166A  6E45               	movwf	___fladd@a^(0+1280),c
  3295   00166C  0ECB               	movlw	203
  3296   00166E  6E46               	movwf	(___fladd@a+1)^(0+1280),c
  3297   001670  0E96               	movlw	150
  3298   001672  6E47               	movwf	(___fladd@a+2)^(0+1280),c
  3299   001674  0EC0               	movlw	192
  3300   001676  6E48               	movwf	(___fladd@a+3)^(0+1280),c
  3301   001678  C59B  F541         	movff	sinf@x,___fladd@b
  3302   00167C  C59C  F542         	movff	sinf@x+1,___fladd@b+1
  3303   001680  C59D  F543         	movff	sinf@x+2,___fladd@b+2
  3304   001684  C59E  F544         	movff	sinf@x+3,___fladd@b+3
  3305   001688  EC3B  F00C         	call	___fladd	;wreg free
  3306   00168C  C541  F5A9         	movff	?___fladd,_sinf$1855
  3307   001690  C542  F5AA         	movff	?___fladd+1,_sinf$1855+1
  3308   001694  C543  F5AB         	movff	?___fladd+2,_sinf$1855+2
  3309   001698  C544  F5AC         	movff	?___fladd+3,_sinf$1855+3
  3310   00169C  EF40  F00A         	goto	l3132
  3311   0016A0                     l3174:
  3312                           
  3313                           ; BSR set to: 5
  3314   0016A0  51A8               	movf	sinf@sign& (0+255),w,b
  3315   0016A2  A4D8               	btfss	status,2,c
  3316   0016A4  EF56  F00B         	goto	u2571
  3317   0016A8  EF58  F00B         	goto	u2570
  3318   0016AC                     u2571:
  3319   0016AC  EF74  F00B         	goto	l3178
  3320   0016B0                     u2570:
  3321   0016B0                     
  3322                           ; BSR set to: 5
  3323   0016B0  C59B  F541         	movff	sinf@x,___fladd@b
  3324   0016B4  C59C  F542         	movff	sinf@x+1,___fladd@b+1
  3325   0016B8  C59D  F543         	movff	sinf@x+2,___fladd@b+2
  3326   0016BC  C59E  F544         	movff	sinf@x+3,___fladd@b+3
  3327   0016C0  0EDB               	movlw	219
  3328   0016C2  6E45               	movwf	___fladd@a^(0+1280),c
  3329   0016C4  0E0F               	movlw	15
  3330   0016C6  6E46               	movwf	(___fladd@a+1)^(0+1280),c
  3331   0016C8  0EC9               	movlw	201
  3332   0016CA  6E47               	movwf	(___fladd@a+2)^(0+1280),c
  3333   0016CC  0EC0               	movlw	192
  3334   0016CE  6E48               	movwf	(___fladd@a+3)^(0+1280),c
  3335   0016D0  EC3B  F00C         	call	___fladd	;wreg free
  3336   0016D4  C541  F5A3         	movff	?___fladd,_sinf$1539
  3337   0016D8  C542  F5A4         	movff	?___fladd+1,_sinf$1539+1
  3338   0016DC  C543  F5A5         	movff	?___fladd+2,_sinf$1539+2
  3339   0016E0  C544  F5A6         	movff	?___fladd+3,_sinf$1539+3
  3340   0016E4  EF8E  F00B         	goto	l3180
  3341   0016E8                     l3178:
  3342                           
  3343                           ; BSR set to: 5
  3344   0016E8  C59B  F541         	movff	sinf@x,___fladd@b
  3345   0016EC  C59C  F542         	movff	sinf@x+1,___fladd@b+1
  3346   0016F0  C59D  F543         	movff	sinf@x+2,___fladd@b+2
  3347   0016F4  C59E  F544         	movff	sinf@x+3,___fladd@b+3
  3348   0016F8  0EDB               	movlw	219
  3349   0016FA  6E45               	movwf	___fladd@a^(0+1280),c
  3350   0016FC  0E0F               	movlw	15
  3351   0016FE  6E46               	movwf	(___fladd@a+1)^(0+1280),c
  3352   001700  0EC9               	movlw	201
  3353   001702  6E47               	movwf	(___fladd@a+2)^(0+1280),c
  3354   001704  0E40               	movlw	64
  3355   001706  6E48               	movwf	(___fladd@a+3)^(0+1280),c
  3356   001708  EC3B  F00C         	call	___fladd	;wreg free
  3357   00170C  C541  F5A3         	movff	?___fladd,_sinf$1539
  3358   001710  C542  F5A4         	movff	?___fladd+1,_sinf$1539+1
  3359   001714  C543  F5A5         	movff	?___fladd+2,_sinf$1539+2
  3360   001718  C544  F5A6         	movff	?___fladd+3,_sinf$1539+3
  3361   00171C                     l3180:
  3362   00171C  C5A3  F551         	movff	_sinf$1539,___sindf@x
  3363   001720  C5A4  F552         	movff	_sinf$1539+1,___sindf@x+1
  3364   001724  C5A5  F553         	movff	_sinf$1539+2,___sindf@x+2
  3365   001728  C5A6  F554         	movff	_sinf$1539+3,___sindf@x+3
  3366   00172C  EC62  F014         	call	___sindf	;wreg free
  3367   001730  C551  F59B         	movff	?___sindf,?_sinf
  3368   001734  C552  F59C         	movff	?___sindf+1,?_sinf+1
  3369   001738  C553  F59D         	movff	?___sindf+2,?_sinf+2
  3370   00173C  C554  F59E         	movff	?___sindf+3,?_sinf+3
  3371   001740  EF3A  F00C         	goto	l1294
  3372   001744                     l3184:
  3373                           
  3374                           ; BSR set to: 5
  3375   001744  0E80               	movlw	128
  3376   001746  5DB3               	subwf	(sinf@ux+2)& (0+255),w,b
  3377   001748  0E7F               	movlw	127
  3378   00174A  59B4               	subwfb	(sinf@ux+3)& (0+255),w,b
  3379   00174C  A0D8               	btfss	status,0,c
  3380   00174E  EFAB  F00B         	goto	u2581
  3381   001752  EFAD  F00B         	goto	u2580
  3382   001756                     u2581:
  3383   001756  EFBF  F00B         	goto	l3192
  3384   00175A                     u2580:
  3385   00175A                     
  3386                           ; BSR set to: 5
  3387   00175A  0EFF               	movlw	255
  3388   00175C  13B1               	iorwf	sinf@ux& (0+255),f,b
  3389   00175E  0EFF               	movlw	255
  3390   001760  13B2               	iorwf	(sinf@ux+1)& (0+255),f,b
  3391   001762  0EFF               	movlw	255
  3392   001764  13B3               	iorwf	(sinf@ux+2)& (0+255),f,b
  3393   001766  0E00               	movlw	0
  3394   001768  13B4               	iorwf	(sinf@ux+3)& (0+255),f,b
  3395   00176A                     
  3396                           ; BSR set to: 5
  3397   00176A  C5B1  F59B         	movff	sinf@ux,?_sinf
  3398   00176E  C5B2  F59C         	movff	sinf@ux+1,?_sinf+1
  3399   001772  C5B3  F59D         	movff	sinf@ux+2,?_sinf+2
  3400   001776  C5B4  F59E         	movff	sinf@ux+3,?_sinf+3
  3401   00177A  EF3A  F00C         	goto	l1294
  3402   00177E                     l3192:
  3403                           
  3404                           ; BSR set to: 5
  3405   00177E  C59B  F57C         	movff	sinf@x,___rem_pio2f@x
  3406   001782  C59C  F57D         	movff	sinf@x+1,___rem_pio2f@x+1
  3407   001786  C59D  F57E         	movff	sinf@x+2,___rem_pio2f@x+2
  3408   00178A  C59E  F57F         	movff	sinf@x+3,___rem_pio2f@x+3
  3409   00178E  0EAD               	movlw	low sinf@y
  3410   001790  6F80               	movwf	___rem_pio2f@y& (0+255),b
  3411   001792  0E05               	movlw	high sinf@y
  3412   001794  6F81               	movwf	(___rem_pio2f@y+1)& (0+255),b
  3413   001796  ECB0  F010         	call	___rem_pio2f	;wreg free
  3414   00179A  0105               	movlb	5	; () banked
  3415   00179C  517C               	movf	?___rem_pio2f& (0+255),w,b
  3416   00179E  0B03               	andlw	3
  3417   0017A0  6FA7               	movwf	sinf@n& (0+255),b
  3418   0017A2  EF2B  F00C         	goto	l3210
  3419   0017A6                     l3194:
  3420                           
  3421                           ; BSR set to: 5
  3422   0017A6  C5AD  F578         	movff	sinf@y,___flneg@f1
  3423   0017AA  C5AE  F579         	movff	sinf@y+1,___flneg@f1+1
  3424   0017AE  C5AF  F57A         	movff	sinf@y+2,___flneg@f1+2
  3425   0017B2  C5B0  F57B         	movff	sinf@y+3,___flneg@f1+3
  3426   0017B6  EC5B  F01A         	call	___flneg	;wreg free
  3427   0017BA  C578  F5AD         	movff	?___flneg,sinf@y
  3428   0017BE  C579  F5AE         	movff	?___flneg+1,sinf@y+1
  3429   0017C2  C57A  F5AF         	movff	?___flneg+2,sinf@y+2
  3430   0017C6  C57B  F5B0         	movff	?___flneg+3,sinf@y+3
  3431   0017CA                     l3196:
  3432   0017CA  C5AD  F551         	movff	sinf@y,___sindf@x
  3433   0017CE  C5AE  F552         	movff	sinf@y+1,___sindf@x+1
  3434   0017D2  C5AF  F553         	movff	sinf@y+2,___sindf@x+2
  3435   0017D6  C5B0  F554         	movff	sinf@y+3,___sindf@x+3
  3436   0017DA  EC62  F014         	call	___sindf	;wreg free
  3437   0017DE  C551  F59B         	movff	?___sindf,?_sinf
  3438   0017E2  C552  F59C         	movff	?___sindf+1,?_sinf+1
  3439   0017E6  C553  F59D         	movff	?___sindf+2,?_sinf+2
  3440   0017EA  C554  F59E         	movff	?___sindf+3,?_sinf+3
  3441   0017EE  EF3A  F00C         	goto	l1294
  3442   0017F2                     l3200:
  3443                           
  3444                           ; BSR set to: 5
  3445   0017F2  C5AD  F551         	movff	sinf@y,___cosdf@x
  3446   0017F6  C5AE  F552         	movff	sinf@y+1,___cosdf@x+1
  3447   0017FA  C5AF  F553         	movff	sinf@y+2,___cosdf@x+2
  3448   0017FE  C5B0  F554         	movff	sinf@y+3,___cosdf@x+3
  3449   001802  EC7B  F015         	call	___cosdf	;wreg free
  3450   001806  C551  F59B         	movff	?___cosdf,?_sinf
  3451   00180A  C552  F59C         	movff	?___cosdf+1,?_sinf+1
  3452   00180E  C553  F59D         	movff	?___cosdf+2,?_sinf+2
  3453   001812  C554  F59E         	movff	?___cosdf+3,?_sinf+3
  3454   001816  EF3A  F00C         	goto	l1294
  3455   00181A                     l3204:
  3456                           
  3457                           ; BSR set to: 5
  3458   00181A  C5AD  F551         	movff	sinf@y,___cosdf@x
  3459   00181E  C5AE  F552         	movff	sinf@y+1,___cosdf@x+1
  3460   001822  C5AF  F553         	movff	sinf@y+2,___cosdf@x+2
  3461   001826  C5B0  F554         	movff	sinf@y+3,___cosdf@x+3
  3462   00182A  EC7B  F015         	call	___cosdf	;wreg free
  3463   00182E  C551  F578         	movff	?___cosdf,___flneg@f1
  3464   001832  C552  F579         	movff	?___cosdf+1,___flneg@f1+1
  3465   001836  C553  F57A         	movff	?___cosdf+2,___flneg@f1+2
  3466   00183A  C554  F57B         	movff	?___cosdf+3,___flneg@f1+3
  3467   00183E  EC5B  F01A         	call	___flneg	;wreg free
  3468   001842  C578  F59B         	movff	?___flneg,?_sinf
  3469   001846  C579  F59C         	movff	?___flneg+1,?_sinf+1
  3470   00184A  C57A  F59D         	movff	?___flneg+2,?_sinf+2
  3471   00184E  C57B  F59E         	movff	?___flneg+3,?_sinf+3
  3472   001852  EF3A  F00C         	goto	l1294
  3473   001856                     l3210:
  3474                           
  3475                           ; BSR set to: 5
  3476   001856  51A7               	movf	sinf@n& (0+255),w,b
  3477                           
  3478                           ; Switch size 1, requested type "simple"
  3479                           ; Number of cases is 3, Range of values is 0 to 2
  3480                           ; switch strategies available:
  3481                           ; Name         Instructions Cycles
  3482                           ; simple_byte           10     6 (average)
  3483                           ;	Chosen strategy is simple_byte
  3484   001858  0A00               	xorlw	0	; case 0
  3485   00185A  B4D8               	btfsc	status,2,c
  3486   00185C  EFE5  F00B         	goto	l3196
  3487   001860  0A01               	xorlw	1	; case 1
  3488   001862  B4D8               	btfsc	status,2,c
  3489   001864  EFF9  F00B         	goto	l3200
  3490   001868  0A03               	xorlw	3	; case 2
  3491   00186A  B4D8               	btfsc	status,2,c
  3492   00186C  EFD3  F00B         	goto	l3194
  3493   001870  EF0D  F00C         	goto	l3204
  3494   001874                     l1294:
  3495   001874  0012               	return		;funcret
  3496   001876                     __end_of_sinf:
  3497                           	callstack 0
  3498                           
  3499 ;; *************** function ___sindf *****************
  3500 ;; Defined at:
  3501 ;;		line 26 in file "S:\XC8C\pic\sources\c99\common\__sindf.c"
  3502 ;; Parameters:    Size  Location     Type
  3503 ;;  x               4   80[COMRAM] float 
  3504 ;; Auto vars:     Size  Location     Type
  3505 ;;  z               4   24[BANK5 ] float 
  3506 ;;  s               4   20[BANK5 ] float 
  3507 ;;  w               4    4[BANK5 ] float 
  3508 ;;  r               4    0[BANK5 ] float 
  3509 ;; Return value:  Size  Location     Type
  3510 ;;                  4   80[COMRAM] float 
  3511 ;; Registers used:
  3512 ;;		wreg, status,2, status,0, prodl, prodh, cstack
  3513 ;; Tracked objects:
  3514 ;;		On entry : 0/0
  3515 ;;		On exit  : 0/0
  3516 ;;		Unchanged: 0/0
  3517 ;; Data sizes:     COMRAM   BANK5   BANK6   BANK7   BANK8   BANK9  BANK10  BANK11  BANK12
  3518 ;;      Params:         4       0       0       0       0       0       0       0       0
  3519 ;;      Locals:         0      28       0       0       0       0       0       0       0
  3520 ;;      Temps:          0       0       0       0       0       0       0       0       0
  3521 ;;      Totals:         4      28       0       0       0       0       0       0       0
  3522 ;;Total ram usage:       32 bytes
  3523 ;; Hardware stack levels used: 1
  3524 ;; Hardware stack levels required when called: 1
  3525 ;; This function calls:
  3526 ;;		___fladd
  3527 ;;		___flmul
  3528 ;; This function is called by:
  3529 ;;		_sinf
  3530 ;; This function uses a non-reentrant model
  3531 ;;
  3532                           
  3533                           	psect	text3
  3534   0028C4                     __ptext3:
  3535                           	callstack 0
  3536   0028C4                     ___sindf:
  3537                           	callstack 123
  3538   0028C4  C551  F50F         	movff	___sindf@x,___flmul@b
  3539   0028C8  C552  F510         	movff	___sindf@x+1,___flmul@b+1
  3540   0028CC  C553  F511         	movff	___sindf@x+2,___flmul@b+2
  3541   0028D0  C554  F512         	movff	___sindf@x+3,___flmul@b+3
  3542   0028D4  C551  F513         	movff	___sindf@x,___flmul@a
  3543   0028D8  C552  F514         	movff	___sindf@x+1,___flmul@a+1
  3544   0028DC  C553  F515         	movff	___sindf@x+2,___flmul@a+2
  3545   0028E0  C554  F516         	movff	___sindf@x+3,___flmul@a+3
  3546   0028E4  EC9B  F00E         	call	___flmul	;wreg free
  3547   0028E8  C50F  F578         	movff	?___flmul,___sindf@z
  3548   0028EC  C510  F579         	movff	?___flmul+1,___sindf@z+1
  3549   0028F0  C511  F57A         	movff	?___flmul+2,___sindf@z+2
  3550   0028F4  C512  F57B         	movff	?___flmul+3,___sindf@z+3
  3551   0028F8  C578  F50F         	movff	___sindf@z,___flmul@b
  3552   0028FC  C579  F510         	movff	___sindf@z+1,___flmul@b+1
  3553   002900  C57A  F511         	movff	___sindf@z+2,___flmul@b+2
  3554   002904  C57B  F512         	movff	___sindf@z+3,___flmul@b+3
  3555   002908  C578  F513         	movff	___sindf@z,___flmul@a
  3556   00290C  C579  F514         	movff	___sindf@z+1,___flmul@a+1
  3557   002910  C57A  F515         	movff	___sindf@z+2,___flmul@a+2
  3558   002914  C57B  F516         	movff	___sindf@z+3,___flmul@a+3
  3559   002918  EC9B  F00E         	call	___flmul	;wreg free
  3560   00291C  C50F  F564         	movff	?___flmul,___sindf@w
  3561   002920  C510  F565         	movff	?___flmul+1,___sindf@w+1
  3562   002924  C511  F566         	movff	?___flmul+2,___sindf@w+2
  3563   002928  C512  F567         	movff	?___flmul+3,___sindf@w+3
  3564   00292C  0E3C               	movlw	60
  3565   00292E  6E13               	movwf	___flmul@a^(0+1280),c
  3566   002930  0E6C               	movlw	108
  3567   002932  6E14               	movwf	(___flmul@a+1)^(0+1280),c
  3568   002934  0E36               	movlw	54
  3569   002936  6E15               	movwf	(___flmul@a+2)^(0+1280),c
  3570   002938  0E36               	movlw	54
  3571   00293A  6E16               	movwf	(___flmul@a+3)^(0+1280),c
  3572   00293C  C578  F50F         	movff	___sindf@z,___flmul@b
  3573   002940  C579  F510         	movff	___sindf@z+1,___flmul@b+1
  3574   002944  C57A  F511         	movff	___sindf@z+2,___flmul@b+2
  3575   002948  C57B  F512         	movff	___sindf@z+3,___flmul@b+3
  3576   00294C  EC9B  F00E         	call	___flmul	;wreg free
  3577   002950  C50F  F541         	movff	?___flmul,___fladd@b
  3578   002954  C510  F542         	movff	?___flmul+1,___fladd@b+1
  3579   002958  C511  F543         	movff	?___flmul+2,___fladd@b+2
  3580   00295C  C512  F544         	movff	?___flmul+3,___fladd@b+3
  3581   002960  0ECF               	movlw	207
  3582   002962  6E45               	movwf	___fladd@a^(0+1280),c
  3583   002964  0E07               	movlw	7
  3584   002966  6E46               	movwf	(___fladd@a+1)^(0+1280),c
  3585   002968  0E50               	movlw	80
  3586   00296A  6E47               	movwf	(___fladd@a+2)^(0+1280),c
  3587   00296C  0EB9               	movlw	185
  3588   00296E  6E48               	movwf	(___fladd@a+3)^(0+1280),c
  3589   002970  EC3B  F00C         	call	___fladd	;wreg free
  3590   002974  C541  F560         	movff	?___fladd,___sindf@r
  3591   002978  C542  F561         	movff	?___fladd+1,___sindf@r+1
  3592   00297C  C543  F562         	movff	?___fladd+2,___sindf@r+2
  3593   002980  C544  F563         	movff	?___fladd+3,___sindf@r+3
  3594   002984  C578  F50F         	movff	___sindf@z,___flmul@b
  3595   002988  C579  F510         	movff	___sindf@z+1,___flmul@b+1
  3596   00298C  C57A  F511         	movff	___sindf@z+2,___flmul@b+2
  3597   002990  C57B  F512         	movff	___sindf@z+3,___flmul@b+3
  3598   002994  C551  F513         	movff	___sindf@x,___flmul@a
  3599   002998  C552  F514         	movff	___sindf@x+1,___flmul@a+1
  3600   00299C  C553  F515         	movff	___sindf@x+2,___flmul@a+2
  3601   0029A0  C554  F516         	movff	___sindf@x+3,___flmul@a+3
  3602   0029A4  EC9B  F00E         	call	___flmul	;wreg free
  3603   0029A8  C50F  F574         	movff	?___flmul,___sindf@s
  3604   0029AC  C510  F575         	movff	?___flmul+1,___sindf@s+1
  3605   0029B0  C511  F576         	movff	?___flmul+2,___sindf@s+2
  3606   0029B4  C512  F577         	movff	?___flmul+3,___sindf@s+3
  3607   0029B8  0EAB               	movlw	171
  3608   0029BA  6E45               	movwf	___fladd@a^(0+1280),c
  3609   0029BC  0EAA               	movlw	170
  3610   0029BE  6E46               	movwf	(___fladd@a+1)^(0+1280),c
  3611   0029C0  0E2A               	movlw	42
  3612   0029C2  6E47               	movwf	(___fladd@a+2)^(0+1280),c
  3613   0029C4  0EBE               	movlw	190
  3614   0029C6  6E48               	movwf	(___fladd@a+3)^(0+1280),c
  3615   0029C8  0E84               	movlw	132
  3616   0029CA  6E13               	movwf	___flmul@a^(0+1280),c
  3617   0029CC  0E88               	movlw	136
  3618   0029CE  6E14               	movwf	(___flmul@a+1)^(0+1280),c
  3619   0029D0  0E08               	movlw	8
  3620   0029D2  6E15               	movwf	(___flmul@a+2)^(0+1280),c
  3621   0029D4  0E3C               	movlw	60
  3622   0029D6  6E16               	movwf	(___flmul@a+3)^(0+1280),c
  3623   0029D8  C578  F50F         	movff	___sindf@z,___flmul@b
  3624   0029DC  C579  F510         	movff	___sindf@z+1,___flmul@b+1
  3625   0029E0  C57A  F511         	movff	___sindf@z+2,___flmul@b+2
  3626   0029E4  C57B  F512         	movff	___sindf@z+3,___flmul@b+3
  3627   0029E8  EC9B  F00E         	call	___flmul	;wreg free
  3628   0029EC  C50F  F541         	movff	?___flmul,___fladd@b
  3629   0029F0  C510  F542         	movff	?___flmul+1,___fladd@b+1
  3630   0029F4  C511  F543         	movff	?___flmul+2,___fladd@b+2
  3631   0029F8  C512  F544         	movff	?___flmul+3,___fladd@b+3
  3632   0029FC  EC3B  F00C         	call	___fladd	;wreg free
  3633   002A00  C541  F568         	movff	?___fladd,___sindf$1860
  3634   002A04  C542  F569         	movff	?___fladd+1,___sindf$1860+1
  3635   002A08  C543  F56A         	movff	?___fladd+2,___sindf$1860+2
  3636   002A0C  C544  F56B         	movff	?___fladd+3,___sindf$1860+3
  3637   002A10  C564  F513         	movff	___sindf@w,___flmul@a
  3638   002A14  C565  F514         	movff	___sindf@w+1,___flmul@a+1
  3639   002A18  C566  F515         	movff	___sindf@w+2,___flmul@a+2
  3640   002A1C  C567  F516         	movff	___sindf@w+3,___flmul@a+3
  3641   002A20  C574  F50F         	movff	___sindf@s,___flmul@b
  3642   002A24  C575  F510         	movff	___sindf@s+1,___flmul@b+1
  3643   002A28  C576  F511         	movff	___sindf@s+2,___flmul@b+2
  3644   002A2C  C577  F512         	movff	___sindf@s+3,___flmul@b+3
  3645   002A30  EC9B  F00E         	call	___flmul	;wreg free
  3646   002A34  C50F  F56C         	movff	?___flmul,___sindf$1861
  3647   002A38  C510  F56D         	movff	?___flmul+1,___sindf$1861+1
  3648   002A3C  C511  F56E         	movff	?___flmul+2,___sindf$1861+2
  3649   002A40  C512  F56F         	movff	?___flmul+3,___sindf$1861+3
  3650   002A44  C551  F545         	movff	___sindf@x,___fladd@a
  3651   002A48  C552  F546         	movff	___sindf@x+1,___fladd@a+1
  3652   002A4C  C553  F547         	movff	___sindf@x+2,___fladd@a+2
  3653   002A50  C554  F548         	movff	___sindf@x+3,___fladd@a+3
  3654   002A54  C574  F513         	movff	___sindf@s,___flmul@a
  3655   002A58  C575  F514         	movff	___sindf@s+1,___flmul@a+1
  3656   002A5C  C576  F515         	movff	___sindf@s+2,___flmul@a+2
  3657   002A60  C577  F516         	movff	___sindf@s+3,___flmul@a+3
  3658   002A64  C568  F50F         	movff	___sindf$1860,___flmul@b
  3659   002A68  C569  F510         	movff	___sindf$1860+1,___flmul@b+1
  3660   002A6C  C56A  F511         	movff	___sindf$1860+2,___flmul@b+2
  3661   002A70  C56B  F512         	movff	___sindf$1860+3,___flmul@b+3
  3662   002A74  EC9B  F00E         	call	___flmul	;wreg free
  3663   002A78  C50F  F541         	movff	?___flmul,___fladd@b
  3664   002A7C  C510  F542         	movff	?___flmul+1,___fladd@b+1
  3665   002A80  C511  F543         	movff	?___flmul+2,___fladd@b+2
  3666   002A84  C512  F544         	movff	?___flmul+3,___fladd@b+3
  3667   002A88  EC3B  F00C         	call	___fladd	;wreg free
  3668   002A8C  C541  F570         	movff	?___fladd,___sindf$1862
  3669   002A90  C542  F571         	movff	?___fladd+1,___sindf$1862+1
  3670   002A94  C543  F572         	movff	?___fladd+2,___sindf$1862+2
  3671   002A98  C544  F573         	movff	?___fladd+3,___sindf$1862+3
  3672   002A9C  C570  F541         	movff	___sindf$1862,___fladd@b
  3673   002AA0  C571  F542         	movff	___sindf$1862+1,___fladd@b+1
  3674   002AA4  C572  F543         	movff	___sindf$1862+2,___fladd@b+2
  3675   002AA8  C573  F544         	movff	___sindf$1862+3,___fladd@b+3
  3676   002AAC  C560  F513         	movff	___sindf@r,___flmul@a
  3677   002AB0  C561  F514         	movff	___sindf@r+1,___flmul@a+1
  3678   002AB4  C562  F515         	movff	___sindf@r+2,___flmul@a+2
  3679   002AB8  C563  F516         	movff	___sindf@r+3,___flmul@a+3
  3680   002ABC  C56C  F50F         	movff	___sindf$1861,___flmul@b
  3681   002AC0  C56D  F510         	movff	___sindf$1861+1,___flmul@b+1
  3682   002AC4  C56E  F511         	movff	___sindf$1861+2,___flmul@b+2
  3683   002AC8  C56F  F512         	movff	___sindf$1861+3,___flmul@b+3
  3684   002ACC  EC9B  F00E         	call	___flmul	;wreg free
  3685   002AD0  C50F  F545         	movff	?___flmul,___fladd@a
  3686   002AD4  C510  F546         	movff	?___flmul+1,___fladd@a+1
  3687   002AD8  C511  F547         	movff	?___flmul+2,___fladd@a+2
  3688   002ADC  C512  F548         	movff	?___flmul+3,___fladd@a+3
  3689   002AE0  EC3B  F00C         	call	___fladd	;wreg free
  3690   002AE4  C541  F551         	movff	?___fladd,?___sindf
  3691   002AE8  C542  F552         	movff	?___fladd+1,?___sindf+1
  3692   002AEC  C543  F553         	movff	?___fladd+2,?___sindf+2
  3693   002AF0  C544  F554         	movff	?___fladd+3,?___sindf+3
  3694   002AF4  0012               	return		;funcret
  3695   002AF6                     __end_of___sindf:
  3696                           	callstack 0
  3697                           
  3698 ;; *************** function ___rem_pio2f *****************
  3699 ;; Defined at:
  3700 ;;		line 44 in file "S:\XC8C\pic\sources\c99\common\__rem_pio2f.c"
  3701 ;; Parameters:    Size  Location     Type
  3702 ;;  x               4   28[BANK5 ] float 
  3703 ;;  y               2   32[BANK5 ] PTR 
  3704 ;;		 -> sinf@y(4), 
  3705 ;; Auto vars:     Size  Location     Type
  3706 ;;  n               4   55[BANK5 ] long 
  3707 ;;  t               4   51[BANK5 ] float 
  3708 ;;  fn              4   47[BANK5 ] float 
  3709 ;;  ux              4   43[BANK5 ] struct .
  3710 ;;  ty              4   34[BANK5 ] [1]
  3711 ;;  sign            1   42[BANK5 ] _Bool 
  3712 ;; Return value:  Size  Location     Type
  3713 ;;                  2   28[BANK5 ] int 
  3714 ;; Registers used:
  3715 ;;		wreg, fsr2l, fsr2h, status,2, status,0, prodl, prodh, cstack
  3716 ;; Tracked objects:
  3717 ;;		On entry : 0/0
  3718 ;;		On exit  : 0/0
  3719 ;;		Unchanged: 0/0
  3720 ;; Data sizes:     COMRAM   BANK5   BANK6   BANK7   BANK8   BANK9  BANK10  BANK11  BANK12
  3721 ;;      Params:         0       6       0       0       0       0       0       0       0
  3722 ;;      Locals:         0      25       0       0       0       0       0       0       0
  3723 ;;      Temps:          2       0       0       0       0       0       0       0       0
  3724 ;;      Totals:         2      31       0       0       0       0       0       0       0
  3725 ;;Total ram usage:       33 bytes
  3726 ;; Hardware stack levels used: 1
  3727 ;; Hardware stack levels required when called: 2
  3728 ;; This function calls:
  3729 ;;		___fladd
  3730 ;;		___flmul
  3731 ;;		___flneg
  3732 ;;		___flsub
  3733 ;;		___fltol
  3734 ;;		___xxtofl
  3735 ;;		_fabsf
  3736 ;; This function is called by:
  3737 ;;		_sinf
  3738 ;; This function uses a non-reentrant model
  3739 ;;
  3740                           
  3741                           	psect	text4
  3742   002160                     __ptext4:
  3743                           	callstack 0
  3744   002160                     ___rem_pio2f:
  3745                           	callstack 122
  3746   002160  C5E9  F58B         	movff	___rem_pio2f@F526,___rem_pio2f@ux
  3747   002164  C5EA  F58C         	movff	___rem_pio2f@F526+1,___rem_pio2f@ux+1
  3748   002168  C5EB  F58D         	movff	___rem_pio2f@F526+2,___rem_pio2f@ux+2
  3749   00216C  C5EC  F58E         	movff	___rem_pio2f@F526+3,___rem_pio2f@ux+3
  3750   002170  C57C  F58B         	movff	___rem_pio2f@x,___rem_pio2f@ux
  3751   002174  C57D  F58C         	movff	___rem_pio2f@x+1,___rem_pio2f@ux+1
  3752   002178  C57E  F58D         	movff	___rem_pio2f@x+2,___rem_pio2f@ux+2
  3753   00217C  C57F  F58E         	movff	___rem_pio2f@x+3,___rem_pio2f@ux+3
  3754   002180  0105               	movlb	5	; () banked
  3755   002182  BF8E               	btfsc	(___rem_pio2f@ux+3)& (0+255),7,b
  3756   002184  EFC6  F010         	goto	u2411
  3757   002188  EFC9  F010         	goto	u2410
  3758   00218C                     u2411:
  3759   00218C  0E01               	movlw	1
  3760   00218E  EFCA  F010         	goto	u2420
  3761   002192                     u2410:
  3762   002192  0E00               	movlw	0
  3763   002194                     u2420:
  3764   002194  6F8A               	movwf	___rem_pio2f@sign& (0+255),b
  3765   002196                     
  3766                           ; BSR set to: 5
  3767   002196  9F8E               	bcf	(___rem_pio2f@ux+3)& (0+255),7,b
  3768   002198                     
  3769                           ; BSR set to: 5
  3770   002198  0EDB               	movlw	219
  3771   00219A  5D8B               	subwf	___rem_pio2f@ux& (0+255),w,b
  3772   00219C  0E0F               	movlw	15
  3773   00219E  598C               	subwfb	(___rem_pio2f@ux+1)& (0+255),w,b
  3774   0021A0  0EC9               	movlw	201
  3775   0021A2  598D               	subwfb	(___rem_pio2f@ux+2)& (0+255),w,b
  3776   0021A4  0E4D               	movlw	77
  3777   0021A6  598E               	subwfb	(___rem_pio2f@ux+3)& (0+255),w,b
  3778   0021A8  B0D8               	btfsc	status,0,c
  3779   0021AA  EFD9  F010         	goto	u2431
  3780   0021AE  EFDB  F010         	goto	u2430
  3781   0021B2                     u2431:
  3782   0021B2  EFCA  F011         	goto	l3014
  3783   0021B6                     u2430:
  3784   0021B6                     
  3785                           ; BSR set to: 5
  3786   0021B6  C57C  F501         	movff	___rem_pio2f@x,fabsf@x
  3787   0021BA  C57D  F502         	movff	___rem_pio2f@x+1,fabsf@x+1
  3788   0021BE  C57E  F503         	movff	___rem_pio2f@x+2,fabsf@x+2
  3789   0021C2  C57F  F504         	movff	___rem_pio2f@x+3,fabsf@x+3
  3790   0021C6  EC78  F01A         	call	_fabsf	;wreg free
  3791   0021CA  C501  F593         	movff	?_fabsf,___rem_pio2f@t
  3792   0021CE  C502  F594         	movff	?_fabsf+1,___rem_pio2f@t+1
  3793   0021D2  C503  F595         	movff	?_fabsf+2,___rem_pio2f@t+2
  3794   0021D6  C504  F596         	movff	?_fabsf+3,___rem_pio2f@t+3
  3795   0021DA  0E00               	movlw	0
  3796   0021DC  6E45               	movwf	___fladd@a^(0+1280),c
  3797   0021DE  0E00               	movlw	0
  3798   0021E0  6E46               	movwf	(___fladd@a+1)^(0+1280),c
  3799   0021E2  0E00               	movlw	0
  3800   0021E4  6E47               	movwf	(___fladd@a+2)^(0+1280),c
  3801   0021E6  0E3F               	movlw	63
  3802   0021E8  6E48               	movwf	(___fladd@a+3)^(0+1280),c
  3803   0021EA  0E83               	movlw	131
  3804   0021EC  6E13               	movwf	___flmul@a^(0+1280),c
  3805   0021EE  0EF9               	movlw	249
  3806   0021F0  6E14               	movwf	(___flmul@a+1)^(0+1280),c
  3807   0021F2  0E22               	movlw	34
  3808   0021F4  6E15               	movwf	(___flmul@a+2)^(0+1280),c
  3809   0021F6  0E3F               	movlw	63
  3810   0021F8  6E16               	movwf	(___flmul@a+3)^(0+1280),c
  3811   0021FA  C593  F50F         	movff	___rem_pio2f@t,___flmul@b
  3812   0021FE  C594  F510         	movff	___rem_pio2f@t+1,___flmul@b+1
  3813   002202  C595  F511         	movff	___rem_pio2f@t+2,___flmul@b+2
  3814   002206  C596  F512         	movff	___rem_pio2f@t+3,___flmul@b+3
  3815   00220A  EC9B  F00E         	call	___flmul	;wreg free
  3816   00220E  C50F  F541         	movff	?___flmul,___fladd@b
  3817   002212  C510  F542         	movff	?___flmul+1,___fladd@b+1
  3818   002216  C511  F543         	movff	?___flmul+2,___fladd@b+2
  3819   00221A  C512  F544         	movff	?___flmul+3,___fladd@b+3
  3820   00221E  EC3B  F00C         	call	___fladd	;wreg free
  3821   002222  C541  F551         	movff	?___fladd,___fltol@f1
  3822   002226  C542  F552         	movff	?___fladd+1,___fltol@f1+1
  3823   00222A  C543  F553         	movff	?___fladd+2,___fltol@f1+2
  3824   00222E  C544  F554         	movff	?___fladd+3,___fltol@f1+3
  3825   002232  ECD6  F018         	call	___fltol	;wreg free
  3826   002236  C551  F597         	movff	?___fltol,___rem_pio2f@n
  3827   00223A  C552  F598         	movff	?___fltol+1,___rem_pio2f@n+1
  3828   00223E  C553  F599         	movff	?___fltol+2,___rem_pio2f@n+2
  3829   002242  C554  F59A         	movff	?___fltol+3,___rem_pio2f@n+3
  3830   002246  C597  F501         	movff	___rem_pio2f@n,___xxtofl@val
  3831   00224A  C598  F502         	movff	___rem_pio2f@n+1,___xxtofl@val+1
  3832   00224E  C599  F503         	movff	___rem_pio2f@n+2,___xxtofl@val+2
  3833   002252  C59A  F504         	movff	___rem_pio2f@n+3,___xxtofl@val+3
  3834   002256  0E01               	movlw	1
  3835   002258  EC7A  F016         	call	___xxtofl
  3836   00225C  C501  F58F         	movff	?___xxtofl,___rem_pio2f@fn
  3837   002260  C502  F590         	movff	?___xxtofl+1,___rem_pio2f@fn+1
  3838   002264  C503  F591         	movff	?___xxtofl+2,___rem_pio2f@fn+2
  3839   002268  C504  F592         	movff	?___xxtofl+3,___rem_pio2f@fn+3
  3840   00226C  0EDA               	movlw	218
  3841   00226E  6E13               	movwf	___flmul@a^(0+1280),c
  3842   002270  0E0F               	movlw	15
  3843   002272  6E14               	movwf	(___flmul@a+1)^(0+1280),c
  3844   002274  0EC9               	movlw	201
  3845   002276  6E15               	movwf	(___flmul@a+2)^(0+1280),c
  3846   002278  0E3F               	movlw	63
  3847   00227A  6E16               	movwf	(___flmul@a+3)^(0+1280),c
  3848   00227C  C58F  F50F         	movff	___rem_pio2f@fn,___flmul@b
  3849   002280  C590  F510         	movff	___rem_pio2f@fn+1,___flmul@b+1
  3850   002284  C591  F511         	movff	___rem_pio2f@fn+2,___flmul@b+2
  3851   002288  C592  F512         	movff	___rem_pio2f@fn+3,___flmul@b+3
  3852   00228C  EC9B  F00E         	call	___flmul	;wreg free
  3853   002290  C50F  F555         	movff	?___flmul,___flsub@a
  3854   002294  C510  F556         	movff	?___flmul+1,___flsub@a+1
  3855   002298  C511  F557         	movff	?___flmul+2,___flsub@a+2
  3856   00229C  C512  F558         	movff	?___flmul+3,___flsub@a+3
  3857   0022A0  C593  F551         	movff	___rem_pio2f@t,___flsub@b
  3858   0022A4  C594  F552         	movff	___rem_pio2f@t+1,___flsub@b+1
  3859   0022A8  C595  F553         	movff	___rem_pio2f@t+2,___flsub@b+2
  3860   0022AC  C596  F554         	movff	___rem_pio2f@t+3,___flsub@b+3
  3861   0022B0  EC38  F01A         	call	___flsub	;wreg free
  3862   0022B4  C551  F586         	movff	?___flsub,___rem_pio2f$1859
  3863   0022B8  C552  F587         	movff	?___flsub+1,___rem_pio2f$1859+1
  3864   0022BC  C553  F588         	movff	?___flsub+2,___rem_pio2f$1859+2
  3865   0022C0  C554  F589         	movff	?___flsub+3,___rem_pio2f$1859+3
  3866   0022C4  C586  F551         	movff	___rem_pio2f$1859,___flsub@b
  3867   0022C8  C587  F552         	movff	___rem_pio2f$1859+1,___flsub@b+1
  3868   0022CC  C588  F553         	movff	___rem_pio2f$1859+2,___flsub@b+2
  3869   0022D0  C589  F554         	movff	___rem_pio2f$1859+3,___flsub@b+3
  3870   0022D4  0EA3               	movlw	163
  3871   0022D6  6E13               	movwf	___flmul@a^(0+1280),c
  3872   0022D8  0E85               	movlw	133
  3873   0022DA  6E14               	movwf	(___flmul@a+1)^(0+1280),c
  3874   0022DC  0E88               	movlw	136
  3875   0022DE  6E15               	movwf	(___flmul@a+2)^(0+1280),c
  3876   0022E0  0E32               	movlw	50
  3877   0022E2  6E16               	movwf	(___flmul@a+3)^(0+1280),c
  3878   0022E4  C58F  F50F         	movff	___rem_pio2f@fn,___flmul@b
  3879   0022E8  C590  F510         	movff	___rem_pio2f@fn+1,___flmul@b+1
  3880   0022EC  C591  F511         	movff	___rem_pio2f@fn+2,___flmul@b+2
  3881   0022F0  C592  F512         	movff	___rem_pio2f@fn+3,___flmul@b+3
  3882   0022F4  EC9B  F00E         	call	___flmul	;wreg free
  3883   0022F8  C50F  F555         	movff	?___flmul,___flsub@a
  3884   0022FC  C510  F556         	movff	?___flmul+1,___flsub@a+1
  3885   002300  C511  F557         	movff	?___flmul+2,___flsub@a+2
  3886   002304  C512  F558         	movff	?___flmul+3,___flsub@a+3
  3887   002308  EC38  F01A         	call	___flsub	;wreg free
  3888   00230C  C580  F4D9         	movff	___rem_pio2f@y,fsr2l
  3889   002310  C581  F4DA         	movff	___rem_pio2f@y+1,fsr2h
  3890   002314  C551  F4DE         	movff	?___flsub,postinc2
  3891   002318  C552  F4DE         	movff	?___flsub+1,postinc2
  3892   00231C  C553  F4DE         	movff	?___flsub+2,postinc2
  3893   002320  C554  F4DE         	movff	?___flsub+3,postinc2
  3894   002324  0105               	movlb	5	; () banked
  3895   002326  518A               	movf	___rem_pio2f@sign& (0+255),w,b
  3896   002328  B4D8               	btfsc	status,2,c
  3897   00232A  EF99  F011         	goto	u2441
  3898   00232E  EF9B  F011         	goto	u2440
  3899   002332                     u2441:
  3900   002332  EFC4  F011         	goto	l1344
  3901   002336                     u2440:
  3902   002336                     l3008:
  3903                           
  3904                           ; BSR set to: 5
  3905   002336  C580  F4D9         	movff	___rem_pio2f@y,fsr2l
  3906   00233A  C581  F4DA         	movff	___rem_pio2f@y+1,fsr2h
  3907   00233E  C4DE F578          	movff	postinc2,___flneg@f1
  3908   002342  C4DE F579          	movff	postinc2,___flneg@f1+1
  3909   002346  C4DE F57A          	movff	postinc2,___flneg@f1+2
  3910   00234A  C4DE F57B          	movff	postinc2,___flneg@f1+3
  3911   00234E  EC5B  F01A         	call	___flneg	;wreg free
  3912   002352  C580  F4D9         	movff	___rem_pio2f@y,fsr2l
  3913   002356  C581  F4DA         	movff	___rem_pio2f@y+1,fsr2h
  3914   00235A  0105               	movlb	5	; () banked
  3915   00235C  C578  F4DE         	movff	?___flneg,postinc2
  3916   002360  C579  F4DE         	movff	?___flneg+1,postinc2
  3917   002364  C57A  F4DE         	movff	?___flneg+2,postinc2
  3918   002368  C57B  F4DE         	movff	?___flneg+3,postinc2
  3919   00236C                     
  3920                           ; BSR set to: 5
  3921   00236C  C597  F55B         	movff	___rem_pio2f@n,??___rem_pio2f
  3922   002370  C598  F55C         	movff	___rem_pio2f@n+1,??___rem_pio2f+1
  3923   002374  1E5B               	comf	??___rem_pio2f^(0+1280),f,c
  3924   002376  1E5C               	comf	(??___rem_pio2f+1)^(0+1280),f,c
  3925   002378  4A5B               	infsnz	??___rem_pio2f^(0+1280),f,c
  3926   00237A  2A5C               	incf	(??___rem_pio2f+1)^(0+1280),f,c
  3927   00237C  C55B  F57C         	movff	??___rem_pio2f,?___rem_pio2f
  3928   002380  C55C  F57D         	movff	??___rem_pio2f+1,?___rem_pio2f+1
  3929   002384  EF94  F012         	goto	l1345
  3930   002388                     l1344:
  3931                           
  3932                           ; BSR set to: 5
  3933   002388  C597  F57C         	movff	___rem_pio2f@n,?___rem_pio2f
  3934   00238C  C598  F57D         	movff	___rem_pio2f@n+1,?___rem_pio2f+1
  3935   002390  EF94  F012         	goto	l1345
  3936   002394                     l3014:
  3937                           
  3938                           ; BSR set to: 5
  3939   002394  C57C  F501         	movff	___rem_pio2f@x,fabsf@x
  3940   002398  C57D  F502         	movff	___rem_pio2f@x+1,fabsf@x+1
  3941   00239C  C57E  F503         	movff	___rem_pio2f@x+2,fabsf@x+2
  3942   0023A0  C57F  F504         	movff	___rem_pio2f@x+3,fabsf@x+3
  3943   0023A4  EC78  F01A         	call	_fabsf	;wreg free
  3944   0023A8  C501  F593         	movff	?_fabsf,___rem_pio2f@t
  3945   0023AC  C502  F594         	movff	?_fabsf+1,___rem_pio2f@t+1
  3946   0023B0  C503  F595         	movff	?_fabsf+2,___rem_pio2f@t+2
  3947   0023B4  C504  F596         	movff	?_fabsf+3,___rem_pio2f@t+3
  3948   0023B8  0E00               	movlw	0
  3949   0023BA  6E45               	movwf	___fladd@a^(0+1280),c
  3950   0023BC  0E00               	movlw	0
  3951   0023BE  6E46               	movwf	(___fladd@a+1)^(0+1280),c
  3952   0023C0  0E00               	movlw	0
  3953   0023C2  6E47               	movwf	(___fladd@a+2)^(0+1280),c
  3954   0023C4  0E3F               	movlw	63
  3955   0023C6  6E48               	movwf	(___fladd@a+3)^(0+1280),c
  3956   0023C8  0E83               	movlw	131
  3957   0023CA  6E13               	movwf	___flmul@a^(0+1280),c
  3958   0023CC  0EF9               	movlw	249
  3959   0023CE  6E14               	movwf	(___flmul@a+1)^(0+1280),c
  3960   0023D0  0E22               	movlw	34
  3961   0023D2  6E15               	movwf	(___flmul@a+2)^(0+1280),c
  3962   0023D4  0E3F               	movlw	63
  3963   0023D6  6E16               	movwf	(___flmul@a+3)^(0+1280),c
  3964   0023D8  C593  F50F         	movff	___rem_pio2f@t,___flmul@b
  3965   0023DC  C594  F510         	movff	___rem_pio2f@t+1,___flmul@b+1
  3966   0023E0  C595  F511         	movff	___rem_pio2f@t+2,___flmul@b+2
  3967   0023E4  C596  F512         	movff	___rem_pio2f@t+3,___flmul@b+3
  3968   0023E8  EC9B  F00E         	call	___flmul	;wreg free
  3969   0023EC  C50F  F541         	movff	?___flmul,___fladd@b
  3970   0023F0  C510  F542         	movff	?___flmul+1,___fladd@b+1
  3971   0023F4  C511  F543         	movff	?___flmul+2,___fladd@b+2
  3972   0023F8  C512  F544         	movff	?___flmul+3,___fladd@b+3
  3973   0023FC  EC3B  F00C         	call	___fladd	;wreg free
  3974   002400  C541  F551         	movff	?___fladd,___fltol@f1
  3975   002404  C542  F552         	movff	?___fladd+1,___fltol@f1+1
  3976   002408  C543  F553         	movff	?___fladd+2,___fltol@f1+2
  3977   00240C  C544  F554         	movff	?___fladd+3,___fltol@f1+3
  3978   002410  ECD6  F018         	call	___fltol	;wreg free
  3979   002414  C551  F597         	movff	?___fltol,___rem_pio2f@n
  3980   002418  C552  F598         	movff	?___fltol+1,___rem_pio2f@n+1
  3981   00241C  C553  F599         	movff	?___fltol+2,___rem_pio2f@n+2
  3982   002420  C554  F59A         	movff	?___fltol+3,___rem_pio2f@n+3
  3983   002424  C597  F501         	movff	___rem_pio2f@n,___xxtofl@val
  3984   002428  C598  F502         	movff	___rem_pio2f@n+1,___xxtofl@val+1
  3985   00242C  C599  F503         	movff	___rem_pio2f@n+2,___xxtofl@val+2
  3986   002430  C59A  F504         	movff	___rem_pio2f@n+3,___xxtofl@val+3
  3987   002434  0E01               	movlw	1
  3988   002436  EC7A  F016         	call	___xxtofl
  3989   00243A  C501  F58F         	movff	?___xxtofl,___rem_pio2f@fn
  3990   00243E  C502  F590         	movff	?___xxtofl+1,___rem_pio2f@fn+1
  3991   002442  C503  F591         	movff	?___xxtofl+2,___rem_pio2f@fn+2
  3992   002446  C504  F592         	movff	?___xxtofl+3,___rem_pio2f@fn+3
  3993   00244A  0EDA               	movlw	218
  3994   00244C  6E13               	movwf	___flmul@a^(0+1280),c
  3995   00244E  0E0F               	movlw	15
  3996   002450  6E14               	movwf	(___flmul@a+1)^(0+1280),c
  3997   002452  0EC9               	movlw	201
  3998   002454  6E15               	movwf	(___flmul@a+2)^(0+1280),c
  3999   002456  0E3F               	movlw	63
  4000   002458  6E16               	movwf	(___flmul@a+3)^(0+1280),c
  4001   00245A  C58F  F50F         	movff	___rem_pio2f@fn,___flmul@b
  4002   00245E  C590  F510         	movff	___rem_pio2f@fn+1,___flmul@b+1
  4003   002462  C591  F511         	movff	___rem_pio2f@fn+2,___flmul@b+2
  4004   002466  C592  F512         	movff	___rem_pio2f@fn+3,___flmul@b+3
  4005   00246A  EC9B  F00E         	call	___flmul	;wreg free
  4006   00246E  C50F  F555         	movff	?___flmul,___flsub@a
  4007   002472  C510  F556         	movff	?___flmul+1,___flsub@a+1
  4008   002476  C511  F557         	movff	?___flmul+2,___flsub@a+2
  4009   00247A  C512  F558         	movff	?___flmul+3,___flsub@a+3
  4010   00247E  C593  F551         	movff	___rem_pio2f@t,___flsub@b
  4011   002482  C594  F552         	movff	___rem_pio2f@t+1,___flsub@b+1
  4012   002486  C595  F553         	movff	___rem_pio2f@t+2,___flsub@b+2
  4013   00248A  C596  F554         	movff	___rem_pio2f@t+3,___flsub@b+3
  4014   00248E  EC38  F01A         	call	___flsub	;wreg free
  4015   002492  C551  F586         	movff	?___flsub,___rem_pio2f$1859
  4016   002496  C552  F587         	movff	?___flsub+1,___rem_pio2f$1859+1
  4017   00249A  C553  F588         	movff	?___flsub+2,___rem_pio2f$1859+2
  4018   00249E  C554  F589         	movff	?___flsub+3,___rem_pio2f$1859+3
  4019   0024A2  C586  F551         	movff	___rem_pio2f$1859,___flsub@b
  4020   0024A6  C587  F552         	movff	___rem_pio2f$1859+1,___flsub@b+1
  4021   0024AA  C588  F553         	movff	___rem_pio2f$1859+2,___flsub@b+2
  4022   0024AE  C589  F554         	movff	___rem_pio2f$1859+3,___flsub@b+3
  4023   0024B2  0EA3               	movlw	163
  4024   0024B4  6E13               	movwf	___flmul@a^(0+1280),c
  4025   0024B6  0E85               	movlw	133
  4026   0024B8  6E14               	movwf	(___flmul@a+1)^(0+1280),c
  4027   0024BA  0E88               	movlw	136
  4028   0024BC  6E15               	movwf	(___flmul@a+2)^(0+1280),c
  4029   0024BE  0E32               	movlw	50
  4030   0024C0  6E16               	movwf	(___flmul@a+3)^(0+1280),c
  4031   0024C2  C58F  F50F         	movff	___rem_pio2f@fn,___flmul@b
  4032   0024C6  C590  F510         	movff	___rem_pio2f@fn+1,___flmul@b+1
  4033   0024CA  C591  F511         	movff	___rem_pio2f@fn+2,___flmul@b+2
  4034   0024CE  C592  F512         	movff	___rem_pio2f@fn+3,___flmul@b+3
  4035   0024D2  EC9B  F00E         	call	___flmul	;wreg free
  4036   0024D6  C50F  F555         	movff	?___flmul,___flsub@a
  4037   0024DA  C510  F556         	movff	?___flmul+1,___flsub@a+1
  4038   0024DE  C511  F557         	movff	?___flmul+2,___flsub@a+2
  4039   0024E2  C512  F558         	movff	?___flmul+3,___flsub@a+3
  4040   0024E6  EC38  F01A         	call	___flsub	;wreg free
  4041   0024EA  C551  F582         	movff	?___flsub,___rem_pio2f@ty
  4042   0024EE  C552  F583         	movff	?___flsub+1,___rem_pio2f@ty+1
  4043   0024F2  C553  F584         	movff	?___flsub+2,___rem_pio2f@ty+2
  4044   0024F6  C554  F585         	movff	?___flsub+3,___rem_pio2f@ty+3
  4045   0024FA  C580  F4D9         	movff	___rem_pio2f@y,fsr2l
  4046   0024FE  C581  F4DA         	movff	___rem_pio2f@y+1,fsr2h
  4047   002502  C582  F4DE         	movff	___rem_pio2f@ty,postinc2
  4048   002506  C583  F4DE         	movff	___rem_pio2f@ty+1,postinc2
  4049   00250A  C584  F4DE         	movff	___rem_pio2f@ty+2,postinc2
  4050   00250E  C585  F4DE         	movff	___rem_pio2f@ty+3,postinc2
  4051   002512  0105               	movlb	5	; () banked
  4052   002514  518A               	movf	___rem_pio2f@sign& (0+255),w,b
  4053   002516  B4D8               	btfsc	status,2,c
  4054   002518  EF90  F012         	goto	u2451
  4055   00251C  EF92  F012         	goto	u2450
  4056   002520                     u2451:
  4057   002520  EFC4  F011         	goto	l1344
  4058   002524                     u2450:
  4059   002524  EF9B  F011         	goto	l3008
  4060   002528                     l1345:
  4061                           
  4062                           ; BSR set to: 5
  4063   002528  0012               	return		;funcret
  4064   00252A                     __end_of___rem_pio2f:
  4065                           	callstack 0
  4066                           
  4067 ;; *************** function _fabsf *****************
  4068 ;; Defined at:
  4069 ;;		line 4 in file "S:\XC8C\pic\sources\c99\common\fabsf.c"
  4070 ;; Parameters:    Size  Location     Type
  4071 ;;  x               4    0[COMRAM] float 
  4072 ;; Auto vars:     Size  Location     Type
  4073 ;;  u               4    4[COMRAM] struct .
  4074 ;; Return value:  Size  Location     Type
  4075 ;;                  4    0[COMRAM] float 
  4076 ;; Registers used:
  4077 ;;		status,2, status,0
  4078 ;; Tracked objects:
  4079 ;;		On entry : 0/0
  4080 ;;		On exit  : 0/0
  4081 ;;		Unchanged: 0/0
  4082 ;; Data sizes:     COMRAM   BANK5   BANK6   BANK7   BANK8   BANK9  BANK10  BANK11  BANK12
  4083 ;;      Params:         4       0       0       0       0       0       0       0       0
  4084 ;;      Locals:         4       0       0       0       0       0       0       0       0
  4085 ;;      Temps:          0       0       0       0       0       0       0       0       0
  4086 ;;      Totals:         8       0       0       0       0       0       0       0       0
  4087 ;;Total ram usage:        8 bytes
  4088 ;; Hardware stack levels used: 1
  4089 ;; This function calls:
  4090 ;;		Nothing
  4091 ;; This function is called by:
  4092 ;;		___rem_pio2f
  4093 ;; This function uses a non-reentrant model
  4094 ;;
  4095                           
  4096                           	psect	text5
  4097   0034F0                     __ptext5:
  4098                           	callstack 0
  4099   0034F0                     _fabsf:
  4100                           	callstack 123
  4101   0034F0  C5E5  F505         	movff	fabsf@F465,fabsf@u
  4102   0034F4  C5E6  F506         	movff	fabsf@F465+1,fabsf@u+1
  4103   0034F8  C5E7  F507         	movff	fabsf@F465+2,fabsf@u+2
  4104   0034FC  C5E8  F508         	movff	fabsf@F465+3,fabsf@u+3
  4105   003500  C501  F505         	movff	fabsf@x,fabsf@u
  4106   003504  C502  F506         	movff	fabsf@x+1,fabsf@u+1
  4107   003508  C503  F507         	movff	fabsf@x+2,fabsf@u+2
  4108   00350C  C504  F508         	movff	fabsf@x+3,fabsf@u+3
  4109   003510  9E08               	bcf	(fabsf@u+3)^(0+1280),7,c
  4110   003512  C505  F501         	movff	fabsf@u,?_fabsf
  4111   003516  C506  F502         	movff	fabsf@u+1,?_fabsf+1
  4112   00351A  C507  F503         	movff	fabsf@u+2,?_fabsf+2
  4113   00351E  C508  F504         	movff	fabsf@u+3,?_fabsf+3
  4114   003522  0012               	return		;funcret
  4115   003524                     __end_of_fabsf:
  4116                           	callstack 0
  4117                           
  4118 ;; *************** function ___xxtofl *****************
  4119 ;; Defined at:
  4120 ;;		line 10 in file "S:\XC8C\pic\sources\c99\common\xxtofl.c"
  4121 ;; Parameters:    Size  Location     Type
  4122 ;;  sign            1    wreg     unsigned char 
  4123 ;;  val             4    0[COMRAM] long 
  4124 ;; Auto vars:     Size  Location     Type
  4125 ;;  sign            1    8[COMRAM] unsigned char 
  4126 ;;  arg             4   10[COMRAM] unsigned long 
  4127 ;;  exp             1    9[COMRAM] unsigned char 
  4128 ;; Return value:  Size  Location     Type
  4129 ;;                  4    0[COMRAM] unsigned char 
  4130 ;; Registers used:
  4131 ;;		wreg, status,2, status,0
  4132 ;; Tracked objects:
  4133 ;;		On entry : 0/0
  4134 ;;		On exit  : 0/0
  4135 ;;		Unchanged: 0/0
  4136 ;; Data sizes:     COMRAM   BANK5   BANK6   BANK7   BANK8   BANK9  BANK10  BANK11  BANK12
  4137 ;;      Params:         4       0       0       0       0       0       0       0       0
  4138 ;;      Locals:         6       0       0       0       0       0       0       0       0
  4139 ;;      Temps:          4       0       0       0       0       0       0       0       0
  4140 ;;      Totals:        14       0       0       0       0       0       0       0       0
  4141 ;;Total ram usage:       14 bytes
  4142 ;; Hardware stack levels used: 1
  4143 ;; This function calls:
  4144 ;;		Nothing
  4145 ;; This function is called by:
  4146 ;;		_generate_sine_wave
  4147 ;;		___rem_pio2f
  4148 ;; This function uses a non-reentrant model
  4149 ;;
  4150                           
  4151                           	psect	text6
  4152   002CF4                     __ptext6:
  4153                           	callstack 0
  4154   002CF4                     ___xxtofl:
  4155                           	callstack 123
  4156                           
  4157                           ;incstack = 0
  4158                           ;___xxtofl@sign stored from wreg
  4159   002CF4  6E09               	movwf	___xxtofl@sign^(0+1280),c
  4160   002CF6  5009               	movf	___xxtofl@sign^(0+1280),w,c
  4161   002CF8  B4D8               	btfsc	status,2,c
  4162   002CFA  EF81  F016         	goto	u2311
  4163   002CFE  EF83  F016         	goto	u2310
  4164   002D02                     u2311:
  4165   002D02  EFA5  F016         	goto	l1259
  4166   002D06                     u2310:
  4167   002D06  BE04               	btfsc	(___xxtofl@val+3)^(0+1280),7,c
  4168   002D08  EF8A  F016         	goto	u2320
  4169   002D0C  EF88  F016         	goto	u2321
  4170   002D10                     u2321:
  4171   002D10  EFA5  F016         	goto	l1259
  4172   002D14                     u2320:
  4173   002D14  C501  F505         	movff	___xxtofl@val,??___xxtofl
  4174   002D18  C502  F506         	movff	___xxtofl@val+1,??___xxtofl+1
  4175   002D1C  C503  F507         	movff	___xxtofl@val+2,??___xxtofl+2
  4176   002D20  C504  F508         	movff	___xxtofl@val+3,??___xxtofl+3
  4177   002D24  1E05               	comf	??___xxtofl^(0+1280),f,c
  4178   002D26  1E06               	comf	(??___xxtofl+1)^(0+1280),f,c
  4179   002D28  1E07               	comf	(??___xxtofl+2)^(0+1280),f,c
  4180   002D2A  1E08               	comf	(??___xxtofl+3)^(0+1280),f,c
  4181   002D2C  2A05               	incf	??___xxtofl^(0+1280),f,c
  4182   002D2E  0E00               	movlw	0
  4183   002D30  2206               	addwfc	(??___xxtofl+1)^(0+1280),f,c
  4184   002D32  2207               	addwfc	(??___xxtofl+2)^(0+1280),f,c
  4185   002D34  2208               	addwfc	(??___xxtofl+3)^(0+1280),f,c
  4186   002D36  C505  F50B         	movff	??___xxtofl,___xxtofl@arg
  4187   002D3A  C506  F50C         	movff	??___xxtofl+1,___xxtofl@arg+1
  4188   002D3E  C507  F50D         	movff	??___xxtofl+2,___xxtofl@arg+2
  4189   002D42  C508  F50E         	movff	??___xxtofl+3,___xxtofl@arg+3
  4190   002D46  EFAD  F016         	goto	l2914
  4191   002D4A                     l1259:
  4192   002D4A  C501  F50B         	movff	___xxtofl@val,___xxtofl@arg
  4193   002D4E  C502  F50C         	movff	___xxtofl@val+1,___xxtofl@arg+1
  4194   002D52  C503  F50D         	movff	___xxtofl@val+2,___xxtofl@arg+2
  4195   002D56  C504  F50E         	movff	___xxtofl@val+3,___xxtofl@arg+3
  4196   002D5A                     l2914:
  4197   002D5A  5001               	movf	___xxtofl@val^(0+1280),w,c
  4198   002D5C  1002               	iorwf	(___xxtofl@val+1)^(0+1280),w,c
  4199   002D5E  1003               	iorwf	(___xxtofl@val+2)^(0+1280),w,c
  4200   002D60  1004               	iorwf	(___xxtofl@val+3)^(0+1280),w,c
  4201   002D62  A4D8               	btfss	status,2,c
  4202   002D64  EFB6  F016         	goto	u2331
  4203   002D68  EFB8  F016         	goto	u2330
  4204   002D6C                     u2331:
  4205   002D6C  EFC2  F016         	goto	l2920
  4206   002D70                     u2330:
  4207   002D70  0E00               	movlw	0
  4208   002D72  6E01               	movwf	?___xxtofl^(0+1280),c
  4209   002D74  0E00               	movlw	0
  4210   002D76  6E02               	movwf	(?___xxtofl+1)^(0+1280),c
  4211   002D78  0E00               	movlw	0
  4212   002D7A  6E03               	movwf	(?___xxtofl+2)^(0+1280),c
  4213   002D7C  0E00               	movlw	0
  4214   002D7E  6E04               	movwf	(?___xxtofl+3)^(0+1280),c
  4215   002D80  EF53  F017         	goto	l1262
  4216   002D84                     l2920:
  4217   002D84  0E96               	movlw	150
  4218   002D86  6E0A               	movwf	___xxtofl@exp^(0+1280),c
  4219   002D88  EFCC  F016         	goto	l2924
  4220   002D8C                     l2922:
  4221   002D8C  2A0A               	incf	___xxtofl@exp^(0+1280),f,c
  4222   002D8E  90D8               	bcf	status,0,c
  4223   002D90  320E               	rrcf	(___xxtofl@arg+3)^(0+1280),f,c
  4224   002D92  320D               	rrcf	(___xxtofl@arg+2)^(0+1280),f,c
  4225   002D94  320C               	rrcf	(___xxtofl@arg+1)^(0+1280),f,c
  4226   002D96  320B               	rrcf	___xxtofl@arg^(0+1280),f,c
  4227   002D98                     l2924:
  4228   002D98  0E00               	movlw	0
  4229   002D9A  140B               	andwf	___xxtofl@arg^(0+1280),w,c
  4230   002D9C  6E05               	movwf	??___xxtofl^(0+1280),c
  4231   002D9E  0E00               	movlw	0
  4232   002DA0  140C               	andwf	(___xxtofl@arg+1)^(0+1280),w,c
  4233   002DA2  6E06               	movwf	(??___xxtofl+1)^(0+1280),c
  4234   002DA4  0E00               	movlw	0
  4235   002DA6  140D               	andwf	(___xxtofl@arg+2)^(0+1280),w,c
  4236   002DA8  6E07               	movwf	(??___xxtofl+2)^(0+1280),c
  4237   002DAA  0EFE               	movlw	254
  4238   002DAC  140E               	andwf	(___xxtofl@arg+3)^(0+1280),w,c
  4239   002DAE  6E08               	movwf	(??___xxtofl+3)^(0+1280),c
  4240   002DB0  5005               	movf	??___xxtofl^(0+1280),w,c
  4241   002DB2  1006               	iorwf	(??___xxtofl+1)^(0+1280),w,c
  4242   002DB4  1007               	iorwf	(??___xxtofl+2)^(0+1280),w,c
  4243   002DB6  1008               	iorwf	(??___xxtofl+3)^(0+1280),w,c
  4244   002DB8  A4D8               	btfss	status,2,c
  4245   002DBA  EFE1  F016         	goto	u2341
  4246   002DBE  EFE3  F016         	goto	u2340
  4247   002DC2                     u2341:
  4248   002DC2  EFC6  F016         	goto	l2922
  4249   002DC6                     u2340:
  4250   002DC6  EFF1  F016         	goto	l1266
  4251   002DCA                     l2926:
  4252   002DCA  2A0A               	incf	___xxtofl@exp^(0+1280),f,c
  4253   002DCC  0E01               	movlw	1
  4254   002DCE  260B               	addwf	___xxtofl@arg^(0+1280),f,c
  4255   002DD0  0E00               	movlw	0
  4256   002DD2  220C               	addwfc	(___xxtofl@arg+1)^(0+1280),f,c
  4257   002DD4  220D               	addwfc	(___xxtofl@arg+2)^(0+1280),f,c
  4258   002DD6  220E               	addwfc	(___xxtofl@arg+3)^(0+1280),f,c
  4259   002DD8  90D8               	bcf	status,0,c
  4260   002DDA  320E               	rrcf	(___xxtofl@arg+3)^(0+1280),f,c
  4261   002DDC  320D               	rrcf	(___xxtofl@arg+2)^(0+1280),f,c
  4262   002DDE  320C               	rrcf	(___xxtofl@arg+1)^(0+1280),f,c
  4263   002DE0  320B               	rrcf	___xxtofl@arg^(0+1280),f,c
  4264   002DE2                     l1266:
  4265   002DE2  0E00               	movlw	0
  4266   002DE4  140B               	andwf	___xxtofl@arg^(0+1280),w,c
  4267   002DE6  6E05               	movwf	??___xxtofl^(0+1280),c
  4268   002DE8  0E00               	movlw	0
  4269   002DEA  140C               	andwf	(___xxtofl@arg+1)^(0+1280),w,c
  4270   002DEC  6E06               	movwf	(??___xxtofl+1)^(0+1280),c
  4271   002DEE  0E00               	movlw	0
  4272   002DF0  140D               	andwf	(___xxtofl@arg+2)^(0+1280),w,c
  4273   002DF2  6E07               	movwf	(??___xxtofl+2)^(0+1280),c
  4274   002DF4  0EFF               	movlw	255
  4275   002DF6  140E               	andwf	(___xxtofl@arg+3)^(0+1280),w,c
  4276   002DF8  6E08               	movwf	(??___xxtofl+3)^(0+1280),c
  4277   002DFA  5005               	movf	??___xxtofl^(0+1280),w,c
  4278   002DFC  1006               	iorwf	(??___xxtofl+1)^(0+1280),w,c
  4279   002DFE  1007               	iorwf	(??___xxtofl+2)^(0+1280),w,c
  4280   002E00  1008               	iorwf	(??___xxtofl+3)^(0+1280),w,c
  4281   002E02  A4D8               	btfss	status,2,c
  4282   002E04  EF06  F017         	goto	u2351
  4283   002E08  EF08  F017         	goto	u2350
  4284   002E0C                     u2351:
  4285   002E0C  EFE5  F016         	goto	l2926
  4286   002E10                     u2350:
  4287   002E10  EF10  F017         	goto	l2934
  4288   002E14                     l2932:
  4289   002E14  060A               	decf	___xxtofl@exp^(0+1280),f,c
  4290   002E16  90D8               	bcf	status,0,c
  4291   002E18  360B               	rlcf	___xxtofl@arg^(0+1280),f,c
  4292   002E1A  360C               	rlcf	(___xxtofl@arg+1)^(0+1280),f,c
  4293   002E1C  360D               	rlcf	(___xxtofl@arg+2)^(0+1280),f,c
  4294   002E1E  360E               	rlcf	(___xxtofl@arg+3)^(0+1280),f,c
  4295   002E20                     l2934:
  4296   002E20  BE0D               	btfsc	(___xxtofl@arg+2)^(0+1280),7,c
  4297   002E22  EF15  F017         	goto	u2361
  4298   002E26  EF17  F017         	goto	u2360
  4299   002E2A                     u2361:
  4300   002E2A  EF1F  F017         	goto	l1273
  4301   002E2E                     u2360:
  4302   002E2E  0E02               	movlw	2
  4303   002E30  600A               	cpfslt	___xxtofl@exp^(0+1280),c
  4304   002E32  EF1D  F017         	goto	u2371
  4305   002E36  EF1F  F017         	goto	u2370
  4306   002E3A                     u2371:
  4307   002E3A  EF0A  F017         	goto	l2932
  4308   002E3E                     u2370:
  4309   002E3E                     l1273:
  4310   002E3E  B00A               	btfsc	___xxtofl@exp^(0+1280),0,c
  4311   002E40  EF24  F017         	goto	u2381
  4312   002E44  EF26  F017         	goto	u2380
  4313   002E48                     u2381:
  4314   002E48  EF27  F017         	goto	l2940
  4315   002E4C                     u2380:
  4316   002E4C  9E0D               	bcf	(___xxtofl@arg+2)^(0+1280),7,c
  4317   002E4E                     l2940:
  4318   002E4E  90D8               	bcf	status,0,c
  4319   002E50  320A               	rrcf	___xxtofl@exp^(0+1280),f,c
  4320   002E52  C50A  F505         	movff	___xxtofl@exp,??___xxtofl
  4321   002E56  6A06               	clrf	(??___xxtofl+1)^(0+1280),c
  4322   002E58  6A07               	clrf	(??___xxtofl+2)^(0+1280),c
  4323   002E5A  6A08               	clrf	(??___xxtofl+3)^(0+1280),c
  4324   002E5C  C505  F508         	movff	??___xxtofl,??___xxtofl+3
  4325   002E60  6A07               	clrf	(??___xxtofl+2)^(0+1280),c
  4326   002E62  6A06               	clrf	(??___xxtofl+1)^(0+1280),c
  4327   002E64  6A05               	clrf	??___xxtofl^(0+1280),c
  4328   002E66  5005               	movf	??___xxtofl^(0+1280),w,c
  4329   002E68  120B               	iorwf	___xxtofl@arg^(0+1280),f,c
  4330   002E6A  5006               	movf	(??___xxtofl+1)^(0+1280),w,c
  4331   002E6C  120C               	iorwf	(___xxtofl@arg+1)^(0+1280),f,c
  4332   002E6E  5007               	movf	(??___xxtofl+2)^(0+1280),w,c
  4333   002E70  120D               	iorwf	(___xxtofl@arg+2)^(0+1280),f,c
  4334   002E72  5008               	movf	(??___xxtofl+3)^(0+1280),w,c
  4335   002E74  120E               	iorwf	(___xxtofl@arg+3)^(0+1280),f,c
  4336   002E76  5009               	movf	___xxtofl@sign^(0+1280),w,c
  4337   002E78  B4D8               	btfsc	status,2,c
  4338   002E7A  EF41  F017         	goto	u2391
  4339   002E7E  EF43  F017         	goto	u2390
  4340   002E82                     u2391:
  4341   002E82  EF4B  F017         	goto	l2950
  4342   002E86                     u2390:
  4343   002E86  BE04               	btfsc	(___xxtofl@val+3)^(0+1280),7,c
  4344   002E88  EF4A  F017         	goto	u2400
  4345   002E8C  EF48  F017         	goto	u2401
  4346   002E90                     u2401:
  4347   002E90  EF4B  F017         	goto	l2950
  4348   002E94                     u2400:
  4349   002E94  8E0E               	bsf	(___xxtofl@arg+3)^(0+1280),7,c
  4350   002E96                     l2950:
  4351   002E96  C50B  F501         	movff	___xxtofl@arg,?___xxtofl
  4352   002E9A  C50C  F502         	movff	___xxtofl@arg+1,?___xxtofl+1
  4353   002E9E  C50D  F503         	movff	___xxtofl@arg+2,?___xxtofl+2
  4354   002EA2  C50E  F504         	movff	___xxtofl@arg+3,?___xxtofl+3
  4355   002EA6                     l1262:
  4356   002EA6  0012               	return		;funcret
  4357   002EA8                     __end_of___xxtofl:
  4358                           	callstack 0
  4359                           
  4360 ;; *************** function ___fltol *****************
  4361 ;; Defined at:
  4362 ;;		line 43 in file "S:\XC8C\pic\sources\c99\common\fltol.c"
  4363 ;; Parameters:    Size  Location     Type
  4364 ;;  f1              4   80[COMRAM] unsigned char 
  4365 ;; Auto vars:     Size  Location     Type
  4366 ;;  exp1            1   89[COMRAM] unsigned char 
  4367 ;;  sign1           1   88[COMRAM] unsigned char 
  4368 ;; Return value:  Size  Location     Type
  4369 ;;                  4   80[COMRAM] long 
  4370 ;; Registers used:
  4371 ;;		wreg, status,2, status,0
  4372 ;; Tracked objects:
  4373 ;;		On entry : 0/0
  4374 ;;		On exit  : 0/0
  4375 ;;		Unchanged: 0/0
  4376 ;; Data sizes:     COMRAM   BANK5   BANK6   BANK7   BANK8   BANK9  BANK10  BANK11  BANK12
  4377 ;;      Params:         4       0       0       0       0       0       0       0       0
  4378 ;;      Locals:         2       0       0       0       0       0       0       0       0
  4379 ;;      Temps:          4       0       0       0       0       0       0       0       0
  4380 ;;      Totals:        10       0       0       0       0       0       0       0       0
  4381 ;;Total ram usage:       10 bytes
  4382 ;; Hardware stack levels used: 1
  4383 ;; This function calls:
  4384 ;;		Nothing
  4385 ;; This function is called by:
  4386 ;;		_generate_sine_wave
  4387 ;;		___rem_pio2f
  4388 ;; This function uses a non-reentrant model
  4389 ;;
  4390                           
  4391                           	psect	text7
  4392   0031AC                     __ptext7:
  4393                           	callstack 0
  4394   0031AC                     ___fltol:
  4395                           	callstack 123
  4396   0031AC  3453               	rlcf	(___fltol@f1+2)^(0+1280),w,c
  4397   0031AE  3454               	rlcf	(___fltol@f1+3)^(0+1280),w,c
  4398   0031B0  6E5A               	movwf	___fltol@exp1^(0+1280),c
  4399   0031B2  505A               	movf	___fltol@exp1^(0+1280),w,c
  4400   0031B4  A4D8               	btfss	status,2,c
  4401   0031B6  EFDF  F018         	goto	u2241
  4402   0031BA  EFE1  F018         	goto	u2240
  4403   0031BE                     u2241:
  4404   0031BE  EFEB  F018         	goto	l2870
  4405   0031C2                     u2240:
  4406   0031C2                     l2866:
  4407   0031C2  0E00               	movlw	0
  4408   0031C4  6E51               	movwf	?___fltol^(0+1280),c
  4409   0031C6  0E00               	movlw	0
  4410   0031C8  6E52               	movwf	(?___fltol+1)^(0+1280),c
  4411   0031CA  0E00               	movlw	0
  4412   0031CC  6E53               	movwf	(?___fltol+2)^(0+1280),c
  4413   0031CE  0E00               	movlw	0
  4414   0031D0  6E54               	movwf	(?___fltol+3)^(0+1280),c
  4415   0031D2  EF58  F019         	goto	l901
  4416   0031D6                     l2870:
  4417   0031D6  C551  F555         	movff	___fltol@f1,??___fltol
  4418   0031DA  C552  F556         	movff	___fltol@f1+1,??___fltol+1
  4419   0031DE  C553  F557         	movff	___fltol@f1+2,??___fltol+2
  4420   0031E2  C554  F558         	movff	___fltol@f1+3,??___fltol+3
  4421   0031E6  0E20               	movlw	32
  4422   0031E8  EFFB  F018         	goto	u2250
  4423   0031EC                     u2255:
  4424   0031EC  90D8               	bcf	status,0,c
  4425   0031EE  3258               	rrcf	(??___fltol+3)^(0+1280),f,c
  4426   0031F0  3257               	rrcf	(??___fltol+2)^(0+1280),f,c
  4427   0031F2  3256               	rrcf	(??___fltol+1)^(0+1280),f,c
  4428   0031F4  3255               	rrcf	??___fltol^(0+1280),f,c
  4429   0031F6                     u2250:
  4430   0031F6  2EE8               	decfsz	wreg,f,c
  4431   0031F8  EFF6  F018         	goto	u2255
  4432   0031FC  5055               	movf	??___fltol^(0+1280),w,c
  4433   0031FE  6E59               	movwf	___fltol@sign1^(0+1280),c
  4434   003200  8E53               	bsf	(___fltol@f1+2)^(0+1280),7,c
  4435   003202  0EFF               	movlw	255
  4436   003204  1651               	andwf	___fltol@f1^(0+1280),f,c
  4437   003206  0EFF               	movlw	255
  4438   003208  1652               	andwf	(___fltol@f1+1)^(0+1280),f,c
  4439   00320A  0EFF               	movlw	255
  4440   00320C  1653               	andwf	(___fltol@f1+2)^(0+1280),f,c
  4441   00320E  0E00               	movlw	0
  4442   003210  1654               	andwf	(___fltol@f1+3)^(0+1280),f,c
  4443   003212  0E96               	movlw	150
  4444   003214  5E5A               	subwf	___fltol@exp1^(0+1280),f,c
  4445   003216  BE5A               	btfsc	___fltol@exp1^(0+1280),7,c
  4446   003218  EF12  F019         	goto	u2260
  4447   00321C  EF10  F019         	goto	u2261
  4448   003220                     u2261:
  4449   003220  EF28  F019         	goto	l2890
  4450   003224                     u2260:
  4451   003224  505A               	movf	___fltol@exp1^(0+1280),w,c
  4452   003226  0A80               	xorlw	128
  4453   003228  0F97               	addlw	151
  4454   00322A  B0D8               	btfsc	status,0,c
  4455   00322C  EF1A  F019         	goto	u2271
  4456   003230  EF1C  F019         	goto	u2270
  4457   003234                     u2271:
  4458   003234  EF1E  F019         	goto	l2886
  4459   003238                     u2270:
  4460   003238  EFE1  F018         	goto	l2866
  4461   00323C                     l2886:
  4462   00323C  90D8               	bcf	status,0,c
  4463   00323E  3254               	rrcf	(___fltol@f1+3)^(0+1280),f,c
  4464   003240  3253               	rrcf	(___fltol@f1+2)^(0+1280),f,c
  4465   003242  3252               	rrcf	(___fltol@f1+1)^(0+1280),f,c
  4466   003244  3251               	rrcf	___fltol@f1^(0+1280),f,c
  4467   003246  3E5A               	incfsz	___fltol@exp1^(0+1280),f,c
  4468   003248  EF1E  F019         	goto	l2886
  4469   00324C  EF40  F019         	goto	l2900
  4470   003250                     l2890:
  4471   003250  0E1F               	movlw	31
  4472   003252  645A               	cpfsgt	___fltol@exp1^(0+1280),c
  4473   003254  EF2E  F019         	goto	u2281
  4474   003258  EF30  F019         	goto	u2280
  4475   00325C                     u2281:
  4476   00325C  EF38  F019         	goto	l2898
  4477   003260                     u2280:
  4478   003260  EFE1  F018         	goto	l2866
  4479   003264                     l2896:
  4480   003264  90D8               	bcf	status,0,c
  4481   003266  3651               	rlcf	___fltol@f1^(0+1280),f,c
  4482   003268  3652               	rlcf	(___fltol@f1+1)^(0+1280),f,c
  4483   00326A  3653               	rlcf	(___fltol@f1+2)^(0+1280),f,c
  4484   00326C  3654               	rlcf	(___fltol@f1+3)^(0+1280),f,c
  4485   00326E  065A               	decf	___fltol@exp1^(0+1280),f,c
  4486   003270                     l2898:
  4487   003270  505A               	movf	___fltol@exp1^(0+1280),w,c
  4488   003272  A4D8               	btfss	status,2,c
  4489   003274  EF3E  F019         	goto	u2291
  4490   003278  EF40  F019         	goto	u2290
  4491   00327C                     u2291:
  4492   00327C  EF32  F019         	goto	l2896
  4493   003280                     u2290:
  4494   003280                     l2900:
  4495   003280  5059               	movf	___fltol@sign1^(0+1280),w,c
  4496   003282  B4D8               	btfsc	status,2,c
  4497   003284  EF46  F019         	goto	u2301
  4498   003288  EF48  F019         	goto	u2300
  4499   00328C                     u2301:
  4500   00328C  EF50  F019         	goto	l2904
  4501   003290                     u2300:
  4502   003290  1E54               	comf	(___fltol@f1+3)^(0+1280),f,c
  4503   003292  1E53               	comf	(___fltol@f1+2)^(0+1280),f,c
  4504   003294  1E52               	comf	(___fltol@f1+1)^(0+1280),f,c
  4505   003296  6C51               	negf	___fltol@f1^(0+1280),c
  4506   003298  0E00               	movlw	0
  4507   00329A  2252               	addwfc	(___fltol@f1+1)^(0+1280),f,c
  4508   00329C  2253               	addwfc	(___fltol@f1+2)^(0+1280),f,c
  4509   00329E  2254               	addwfc	(___fltol@f1+3)^(0+1280),f,c
  4510   0032A0                     l2904:
  4511   0032A0  C551  F551         	movff	___fltol@f1,?___fltol
  4512   0032A4  C552  F552         	movff	___fltol@f1+1,?___fltol+1
  4513   0032A8  C553  F553         	movff	___fltol@f1+2,?___fltol+2
  4514   0032AC  C554  F554         	movff	___fltol@f1+3,?___fltol+3
  4515   0032B0                     l901:
  4516   0032B0  0012               	return		;funcret
  4517   0032B2                     __end_of___fltol:
  4518                           	callstack 0
  4519                           
  4520 ;; *************** function ___flsub *****************
  4521 ;; Defined at:
  4522 ;;		line 245 in file "S:\XC8C\pic\sources\c99\common\sprcadd.c"
  4523 ;; Parameters:    Size  Location     Type
  4524 ;;  b               4   80[COMRAM] long 
  4525 ;;  a               4   84[COMRAM] long 
  4526 ;; Auto vars:     Size  Location     Type
  4527 ;;		None
  4528 ;; Return value:  Size  Location     Type
  4529 ;;                  4   80[COMRAM] long 
  4530 ;; Registers used:
  4531 ;;		wreg, status,2, status,0, cstack
  4532 ;; Tracked objects:
  4533 ;;		On entry : 0/0
  4534 ;;		On exit  : 0/0
  4535 ;;		Unchanged: 0/0
  4536 ;; Data sizes:     COMRAM   BANK5   BANK6   BANK7   BANK8   BANK9  BANK10  BANK11  BANK12
  4537 ;;      Params:         8       0       0       0       0       0       0       0       0
  4538 ;;      Locals:         0       0       0       0       0       0       0       0       0
  4539 ;;      Temps:          0       0       0       0       0       0       0       0       0
  4540 ;;      Totals:         8       0       0       0       0       0       0       0       0
  4541 ;;Total ram usage:        8 bytes
  4542 ;; Hardware stack levels used: 1
  4543 ;; Hardware stack levels required when called: 1
  4544 ;; This function calls:
  4545 ;;		___fladd
  4546 ;; This function is called by:
  4547 ;;		___rem_pio2f
  4548 ;; This function uses a non-reentrant model
  4549 ;;
  4550                           
  4551                           	psect	text8
  4552   003470                     __ptext8:
  4553                           	callstack 0
  4554   003470                     ___flsub:
  4555                           	callstack 122
  4556   003470  0E00               	movlw	0
  4557   003472  1A55               	xorwf	___flsub@a^(0+1280),f,c
  4558   003474  0E00               	movlw	0
  4559   003476  1A56               	xorwf	(___flsub@a+1)^(0+1280),f,c
  4560   003478  0E00               	movlw	0
  4561   00347A  1A57               	xorwf	(___flsub@a+2)^(0+1280),f,c
  4562   00347C  0E80               	movlw	128
  4563   00347E  1A58               	xorwf	(___flsub@a+3)^(0+1280),f,c
  4564   003480  C551  F541         	movff	___flsub@b,___fladd@b
  4565   003484  C552  F542         	movff	___flsub@b+1,___fladd@b+1
  4566   003488  C553  F543         	movff	___flsub@b+2,___fladd@b+2
  4567   00348C  C554  F544         	movff	___flsub@b+3,___fladd@b+3
  4568   003490  C555  F545         	movff	___flsub@a,___fladd@a
  4569   003494  C556  F546         	movff	___flsub@a+1,___fladd@a+1
  4570   003498  C557  F547         	movff	___flsub@a+2,___fladd@a+2
  4571   00349C  C558  F548         	movff	___flsub@a+3,___fladd@a+3
  4572   0034A0  EC3B  F00C         	call	___fladd	;wreg free
  4573   0034A4  C541  F551         	movff	?___fladd,?___flsub
  4574   0034A8  C542  F552         	movff	?___fladd+1,?___flsub+1
  4575   0034AC  C543  F553         	movff	?___fladd+2,?___flsub+2
  4576   0034B0  C544  F554         	movff	?___fladd+3,?___flsub+3
  4577   0034B4  0012               	return		;funcret
  4578   0034B6                     __end_of___flsub:
  4579                           	callstack 0
  4580                           
  4581 ;; *************** function ___flneg *****************
  4582 ;; Defined at:
  4583 ;;		line 15 in file "S:\XC8C\pic\sources\c99\common\flneg.c"
  4584 ;; Parameters:    Size  Location     Type
  4585 ;;  f1              4   24[BANK5 ] long 
  4586 ;; Auto vars:     Size  Location     Type
  4587 ;;		None
  4588 ;; Return value:  Size  Location     Type
  4589 ;;                  4   24[BANK5 ] long 
  4590 ;; Registers used:
  4591 ;;		wreg, status,2, status,0
  4592 ;; Tracked objects:
  4593 ;;		On entry : 0/0
  4594 ;;		On exit  : 0/0
  4595 ;;		Unchanged: 0/0
  4596 ;; Data sizes:     COMRAM   BANK5   BANK6   BANK7   BANK8   BANK9  BANK10  BANK11  BANK12
  4597 ;;      Params:         0       4       0       0       0       0       0       0       0
  4598 ;;      Locals:         0       0       0       0       0       0       0       0       0
  4599 ;;      Temps:          0       0       0       0       0       0       0       0       0
  4600 ;;      Totals:         0       4       0       0       0       0       0       0       0
  4601 ;;Total ram usage:        4 bytes
  4602 ;; Hardware stack levels used: 1
  4603 ;; This function calls:
  4604 ;;		Nothing
  4605 ;; This function is called by:
  4606 ;;		_sinf
  4607 ;;		___rem_pio2f
  4608 ;; This function uses a non-reentrant model
  4609 ;;
  4610                           
  4611                           	psect	text9
  4612   0034B6                     __ptext9:
  4613                           	callstack 0
  4614   0034B6                     ___flneg:
  4615                           	callstack 123
  4616   0034B6  0105               	movlb	5	; () banked
  4617   0034B8  5178               	movf	___flneg@f1& (0+255),w,b
  4618   0034BA  1179               	iorwf	(___flneg@f1+1)& (0+255),w,b
  4619   0034BC  117A               	iorwf	(___flneg@f1+2)& (0+255),w,b
  4620   0034BE  117B               	iorwf	(___flneg@f1+3)& (0+255),w,b
  4621   0034C0  B4D8               	btfsc	status,2,c
  4622   0034C2  EF65  F01A         	goto	u2231
  4623   0034C6  EF67  F01A         	goto	u2230
  4624   0034CA                     u2231:
  4625   0034CA  EF6F  F01A         	goto	l2860
  4626   0034CE                     u2230:
  4627   0034CE                     
  4628                           ; BSR set to: 5
  4629   0034CE  0E00               	movlw	0
  4630   0034D0  1B78               	xorwf	___flneg@f1& (0+255),f,b
  4631   0034D2  0E00               	movlw	0
  4632   0034D4  1B79               	xorwf	(___flneg@f1+1)& (0+255),f,b
  4633   0034D6  0E00               	movlw	0
  4634   0034D8  1B7A               	xorwf	(___flneg@f1+2)& (0+255),f,b
  4635   0034DA  0E80               	movlw	128
  4636   0034DC  1B7B               	xorwf	(___flneg@f1+3)& (0+255),f,b
  4637   0034DE                     l2860:
  4638                           
  4639                           ; BSR set to: 5
  4640   0034DE  C578  F578         	movff	___flneg@f1,?___flneg
  4641   0034E2  C579  F579         	movff	___flneg@f1+1,?___flneg+1
  4642   0034E6  C57A  F57A         	movff	___flneg@f1+2,?___flneg+2
  4643   0034EA  C57B  F57B         	movff	___flneg@f1+3,?___flneg+3
  4644   0034EE                     
  4645                           ; BSR set to: 5
  4646   0034EE  0012               	return		;funcret
  4647   0034F0                     __end_of___flneg:
  4648                           	callstack 0
  4649                           
  4650 ;; *************** function ___cosdf *****************
  4651 ;; Defined at:
  4652 ;;		line 26 in file "S:\XC8C\pic\sources\c99\common\__cosdf.c"
  4653 ;; Parameters:    Size  Location     Type
  4654 ;;  x               4   80[COMRAM] long 
  4655 ;; Auto vars:     Size  Location     Type
  4656 ;;  z               4   20[BANK5 ] long 
  4657 ;;  w               4   16[BANK5 ] long 
  4658 ;;  r               4    0[BANK5 ] long 
  4659 ;; Return value:  Size  Location     Type
  4660 ;;                  4   80[COMRAM] float 
  4661 ;; Registers used:
  4662 ;;		wreg, status,2, status,0, prodl, prodh, cstack
  4663 ;; Tracked objects:
  4664 ;;		On entry : 0/0
  4665 ;;		On exit  : 0/0
  4666 ;;		Unchanged: 0/0
  4667 ;; Data sizes:     COMRAM   BANK5   BANK6   BANK7   BANK8   BANK9  BANK10  BANK11  BANK12
  4668 ;;      Params:         4       0       0       0       0       0       0       0       0
  4669 ;;      Locals:         0      24       0       0       0       0       0       0       0
  4670 ;;      Temps:          0       0       0       0       0       0       0       0       0
  4671 ;;      Totals:         4      24       0       0       0       0       0       0       0
  4672 ;;Total ram usage:       28 bytes
  4673 ;; Hardware stack levels used: 1
  4674 ;; Hardware stack levels required when called: 1
  4675 ;; This function calls:
  4676 ;;		___fladd
  4677 ;;		___flmul
  4678 ;; This function is called by:
  4679 ;;		_sinf
  4680 ;; This function uses a non-reentrant model
  4681 ;;
  4682                           
  4683                           	psect	text10
  4684   002AF6                     __ptext10:
  4685                           	callstack 0
  4686   002AF6                     ___cosdf:
  4687                           	callstack 123
  4688   002AF6  C551  F50F         	movff	___cosdf@x,___flmul@b
  4689   002AFA  C552  F510         	movff	___cosdf@x+1,___flmul@b+1
  4690   002AFE  C553  F511         	movff	___cosdf@x+2,___flmul@b+2
  4691   002B02  C554  F512         	movff	___cosdf@x+3,___flmul@b+3
  4692   002B06  C551  F513         	movff	___cosdf@x,___flmul@a
  4693   002B0A  C552  F514         	movff	___cosdf@x+1,___flmul@a+1
  4694   002B0E  C553  F515         	movff	___cosdf@x+2,___flmul@a+2
  4695   002B12  C554  F516         	movff	___cosdf@x+3,___flmul@a+3
  4696   002B16  EC9B  F00E         	call	___flmul	;wreg free
  4697   002B1A  C50F  F574         	movff	?___flmul,___cosdf@z
  4698   002B1E  C510  F575         	movff	?___flmul+1,___cosdf@z+1
  4699   002B22  C511  F576         	movff	?___flmul+2,___cosdf@z+2
  4700   002B26  C512  F577         	movff	?___flmul+3,___cosdf@z+3
  4701   002B2A  C574  F50F         	movff	___cosdf@z,___flmul@b
  4702   002B2E  C575  F510         	movff	___cosdf@z+1,___flmul@b+1
  4703   002B32  C576  F511         	movff	___cosdf@z+2,___flmul@b+2
  4704   002B36  C577  F512         	movff	___cosdf@z+3,___flmul@b+3
  4705   002B3A  C574  F513         	movff	___cosdf@z,___flmul@a
  4706   002B3E  C575  F514         	movff	___cosdf@z+1,___flmul@a+1
  4707   002B42  C576  F515         	movff	___cosdf@z+2,___flmul@a+2
  4708   002B46  C577  F516         	movff	___cosdf@z+3,___flmul@a+3
  4709   002B4A  EC9B  F00E         	call	___flmul	;wreg free
  4710   002B4E  C50F  F570         	movff	?___flmul,___cosdf@w
  4711   002B52  C510  F571         	movff	?___flmul+1,___cosdf@w+1
  4712   002B56  C511  F572         	movff	?___flmul+2,___cosdf@w+2
  4713   002B5A  C512  F573         	movff	?___flmul+3,___cosdf@w+3
  4714   002B5E  0E17               	movlw	23
  4715   002B60  6E13               	movwf	___flmul@a^(0+1280),c
  4716   002B62  0E9A               	movlw	154
  4717   002B64  6E14               	movwf	(___flmul@a+1)^(0+1280),c
  4718   002B66  0ECC               	movlw	204
  4719   002B68  6E15               	movwf	(___flmul@a+2)^(0+1280),c
  4720   002B6A  0E37               	movlw	55
  4721   002B6C  6E16               	movwf	(___flmul@a+3)^(0+1280),c
  4722   002B6E  C574  F50F         	movff	___cosdf@z,___flmul@b
  4723   002B72  C575  F510         	movff	___cosdf@z+1,___flmul@b+1
  4724   002B76  C576  F511         	movff	___cosdf@z+2,___flmul@b+2
  4725   002B7A  C577  F512         	movff	___cosdf@z+3,___flmul@b+3
  4726   002B7E  EC9B  F00E         	call	___flmul	;wreg free
  4727   002B82  C50F  F541         	movff	?___flmul,___fladd@b
  4728   002B86  C510  F542         	movff	?___flmul+1,___fladd@b+1
  4729   002B8A  C511  F543         	movff	?___flmul+2,___fladd@b+2
  4730   002B8E  C512  F544         	movff	?___flmul+3,___fladd@b+3
  4731   002B92  0E3F               	movlw	63
  4732   002B94  6E45               	movwf	___fladd@a^(0+1280),c
  4733   002B96  0E04               	movlw	4
  4734   002B98  6E46               	movwf	(___fladd@a+1)^(0+1280),c
  4735   002B9A  0EB6               	movlw	182
  4736   002B9C  6E47               	movwf	(___fladd@a+2)^(0+1280),c
  4737   002B9E  0EBA               	movlw	186
  4738   002BA0  6E48               	movwf	(___fladd@a+3)^(0+1280),c
  4739   002BA2  EC3B  F00C         	call	___fladd	;wreg free
  4740   002BA6  C541  F560         	movff	?___fladd,___cosdf@r
  4741   002BAA  C542  F561         	movff	?___fladd+1,___cosdf@r+1
  4742   002BAE  C543  F562         	movff	?___fladd+2,___cosdf@r+2
  4743   002BB2  C544  F563         	movff	?___fladd+3,___cosdf@r+3
  4744   002BB6  0E00               	movlw	0
  4745   002BB8  6E45               	movwf	___fladd@a^(0+1280),c
  4746   002BBA  0E00               	movlw	0
  4747   002BBC  6E46               	movwf	(___fladd@a+1)^(0+1280),c
  4748   002BBE  0E80               	movlw	128
  4749   002BC0  6E47               	movwf	(___fladd@a+2)^(0+1280),c
  4750   002BC2  0E3F               	movlw	63
  4751   002BC4  6E48               	movwf	(___fladd@a+3)^(0+1280),c
  4752   002BC6  0E00               	movlw	0
  4753   002BC8  6E13               	movwf	___flmul@a^(0+1280),c
  4754   002BCA  0E00               	movlw	0
  4755   002BCC  6E14               	movwf	(___flmul@a+1)^(0+1280),c
  4756   002BCE  0E00               	movlw	0
  4757   002BD0  6E15               	movwf	(___flmul@a+2)^(0+1280),c
  4758   002BD2  0EBF               	movlw	191
  4759   002BD4  6E16               	movwf	(___flmul@a+3)^(0+1280),c
  4760   002BD6  C574  F50F         	movff	___cosdf@z,___flmul@b
  4761   002BDA  C575  F510         	movff	___cosdf@z+1,___flmul@b+1
  4762   002BDE  C576  F511         	movff	___cosdf@z+2,___flmul@b+2
  4763   002BE2  C577  F512         	movff	___cosdf@z+3,___flmul@b+3
  4764   002BE6  EC9B  F00E         	call	___flmul	;wreg free
  4765   002BEA  C50F  F541         	movff	?___flmul,___fladd@b
  4766   002BEE  C510  F542         	movff	?___flmul+1,___fladd@b+1
  4767   002BF2  C511  F543         	movff	?___flmul+2,___fladd@b+2
  4768   002BF6  C512  F544         	movff	?___flmul+3,___fladd@b+3
  4769   002BFA  EC3B  F00C         	call	___fladd	;wreg free
  4770   002BFE  C541  F564         	movff	?___fladd,___cosdf$1856
  4771   002C02  C542  F565         	movff	?___fladd+1,___cosdf$1856+1
  4772   002C06  C543  F566         	movff	?___fladd+2,___cosdf$1856+2
  4773   002C0A  C544  F567         	movff	?___fladd+3,___cosdf$1856+3
  4774   002C0E  C574  F513         	movff	___cosdf@z,___flmul@a
  4775   002C12  C575  F514         	movff	___cosdf@z+1,___flmul@a+1
  4776   002C16  C576  F515         	movff	___cosdf@z+2,___flmul@a+2
  4777   002C1A  C577  F516         	movff	___cosdf@z+3,___flmul@a+3
  4778   002C1E  C570  F50F         	movff	___cosdf@w,___flmul@b
  4779   002C22  C571  F510         	movff	___cosdf@w+1,___flmul@b+1
  4780   002C26  C572  F511         	movff	___cosdf@w+2,___flmul@b+2
  4781   002C2A  C573  F512         	movff	___cosdf@w+3,___flmul@b+3
  4782   002C2E  EC9B  F00E         	call	___flmul	;wreg free
  4783   002C32  C50F  F568         	movff	?___flmul,___cosdf$1857
  4784   002C36  C510  F569         	movff	?___flmul+1,___cosdf$1857+1
  4785   002C3A  C511  F56A         	movff	?___flmul+2,___cosdf$1857+2
  4786   002C3E  C512  F56B         	movff	?___flmul+3,___cosdf$1857+3
  4787   002C42  0E9F               	movlw	159
  4788   002C44  6E13               	movwf	___flmul@a^(0+1280),c
  4789   002C46  0EAA               	movlw	170
  4790   002C48  6E14               	movwf	(___flmul@a+1)^(0+1280),c
  4791   002C4A  0E2A               	movlw	42
  4792   002C4C  6E15               	movwf	(___flmul@a+2)^(0+1280),c
  4793   002C4E  0E3D               	movlw	61
  4794   002C50  6E16               	movwf	(___flmul@a+3)^(0+1280),c
  4795   002C52  C570  F50F         	movff	___cosdf@w,___flmul@b
  4796   002C56  C571  F510         	movff	___cosdf@w+1,___flmul@b+1
  4797   002C5A  C572  F511         	movff	___cosdf@w+2,___flmul@b+2
  4798   002C5E  C573  F512         	movff	___cosdf@w+3,___flmul@b+3
  4799   002C62  EC9B  F00E         	call	___flmul	;wreg free
  4800   002C66  C50F  F545         	movff	?___flmul,___fladd@a
  4801   002C6A  C510  F546         	movff	?___flmul+1,___fladd@a+1
  4802   002C6E  C511  F547         	movff	?___flmul+2,___fladd@a+2
  4803   002C72  C512  F548         	movff	?___flmul+3,___fladd@a+3
  4804   002C76  C564  F541         	movff	___cosdf$1856,___fladd@b
  4805   002C7A  C565  F542         	movff	___cosdf$1856+1,___fladd@b+1
  4806   002C7E  C566  F543         	movff	___cosdf$1856+2,___fladd@b+2
  4807   002C82  C567  F544         	movff	___cosdf$1856+3,___fladd@b+3
  4808   002C86  EC3B  F00C         	call	___fladd	;wreg free
  4809   002C8A  C541  F56C         	movff	?___fladd,___cosdf$1858
  4810   002C8E  C542  F56D         	movff	?___fladd+1,___cosdf$1858+1
  4811   002C92  C543  F56E         	movff	?___fladd+2,___cosdf$1858+2
  4812   002C96  C544  F56F         	movff	?___fladd+3,___cosdf$1858+3
  4813   002C9A  C56C  F541         	movff	___cosdf$1858,___fladd@b
  4814   002C9E  C56D  F542         	movff	___cosdf$1858+1,___fladd@b+1
  4815   002CA2  C56E  F543         	movff	___cosdf$1858+2,___fladd@b+2
  4816   002CA6  C56F  F544         	movff	___cosdf$1858+3,___fladd@b+3
  4817   002CAA  C560  F513         	movff	___cosdf@r,___flmul@a
  4818   002CAE  C561  F514         	movff	___cosdf@r+1,___flmul@a+1
  4819   002CB2  C562  F515         	movff	___cosdf@r+2,___flmul@a+2
  4820   002CB6  C563  F516         	movff	___cosdf@r+3,___flmul@a+3
  4821   002CBA  C568  F50F         	movff	___cosdf$1857,___flmul@b
  4822   002CBE  C569  F510         	movff	___cosdf$1857+1,___flmul@b+1
  4823   002CC2  C56A  F511         	movff	___cosdf$1857+2,___flmul@b+2
  4824   002CC6  C56B  F512         	movff	___cosdf$1857+3,___flmul@b+3
  4825   002CCA  EC9B  F00E         	call	___flmul	;wreg free
  4826   002CCE  C50F  F545         	movff	?___flmul,___fladd@a
  4827   002CD2  C510  F546         	movff	?___flmul+1,___fladd@a+1
  4828   002CD6  C511  F547         	movff	?___flmul+2,___fladd@a+2
  4829   002CDA  C512  F548         	movff	?___flmul+3,___fladd@a+3
  4830   002CDE  EC3B  F00C         	call	___fladd	;wreg free
  4831   002CE2  C541  F551         	movff	?___fladd,?___cosdf
  4832   002CE6  C542  F552         	movff	?___fladd+1,?___cosdf+1
  4833   002CEA  C543  F553         	movff	?___fladd+2,?___cosdf+2
  4834   002CEE  C544  F554         	movff	?___fladd+3,?___cosdf+3
  4835   002CF2  0012               	return		;funcret
  4836   002CF4                     __end_of___cosdf:
  4837                           	callstack 0
  4838                           
  4839 ;; *************** function ___flmul *****************
  4840 ;; Defined at:
  4841 ;;		line 8 in file "S:\XC8C\pic\sources\c99\common\sprcmul.c"
  4842 ;; Parameters:    Size  Location     Type
  4843 ;;  b               4   14[COMRAM] float 
  4844 ;;  a               4   18[COMRAM] float 
  4845 ;; Auto vars:     Size  Location     Type
  4846 ;;  prod            4   33[COMRAM] struct .
  4847 ;;  grs             4   27[COMRAM] unsigned long 
  4848 ;;  temp            2   37[COMRAM] struct .
  4849 ;;  bexp            1   32[COMRAM] unsigned char 
  4850 ;;  aexp            1   31[COMRAM] unsigned char 
  4851 ;;  sign            1   26[COMRAM] unsigned char 
  4852 ;; Return value:  Size  Location     Type
  4853 ;;                  4   14[COMRAM] unsigned char 
  4854 ;; Registers used:
  4855 ;;		wreg, status,2, status,0, prodl, prodh
  4856 ;; Tracked objects:
  4857 ;;		On entry : 0/0
  4858 ;;		On exit  : 0/0
  4859 ;;		Unchanged: 0/0
  4860 ;; Data sizes:     COMRAM   BANK5   BANK6   BANK7   BANK8   BANK9  BANK10  BANK11  BANK12
  4861 ;;      Params:         8       0       0       0       0       0       0       0       0
  4862 ;;      Locals:        13       0       0       0       0       0       0       0       0
  4863 ;;      Temps:          4       0       0       0       0       0       0       0       0
  4864 ;;      Totals:        25       0       0       0       0       0       0       0       0
  4865 ;;Total ram usage:       25 bytes
  4866 ;; Hardware stack levels used: 1
  4867 ;; This function calls:
  4868 ;;		Nothing
  4869 ;; This function is called by:
  4870 ;;		_generate_sine_wave
  4871 ;;		___cosdf
  4872 ;;		___rem_pio2f
  4873 ;;		___sindf
  4874 ;; This function uses a non-reentrant model
  4875 ;;
  4876                           
  4877                           	psect	text11
  4878   001D36                     __ptext11:
  4879                           	callstack 0
  4880   001D36                     ___flmul:
  4881                           	callstack 123
  4882   001D36  5012               	movf	(___flmul@b+3)^(0+1280),w,c
  4883   001D38  0B80               	andlw	128
  4884   001D3A  6E1B               	movwf	___flmul@sign^(0+1280),c
  4885   001D3C  5012               	movf	(___flmul@b+3)^(0+1280),w,c
  4886   001D3E  2412               	addwf	(___flmul@b+3)^(0+1280),w,c
  4887   001D40  6E21               	movwf	___flmul@bexp^(0+1280),c
  4888   001D42  AE11               	btfss	(___flmul@b+2)^(0+1280),7,c
  4889   001D44  EFA6  F00E         	goto	u2041
  4890   001D48  EFA8  F00E         	goto	u2040
  4891   001D4C                     u2041:
  4892   001D4C  EFA9  F00E         	goto	l2726
  4893   001D50                     u2040:
  4894   001D50  8021               	bsf	___flmul@bexp^(0+1280),0,c
  4895   001D52                     l2726:
  4896   001D52  5021               	movf	___flmul@bexp^(0+1280),w,c
  4897   001D54  B4D8               	btfsc	status,2,c
  4898   001D56  EFAF  F00E         	goto	u2051
  4899   001D5A  EFB1  F00E         	goto	u2050
  4900   001D5E                     u2051:
  4901   001D5E  EFC4  F00E         	goto	l2734
  4902   001D62                     u2050:
  4903   001D62  2821               	incf	___flmul@bexp^(0+1280),w,c
  4904   001D64  A4D8               	btfss	status,2,c
  4905   001D66  EFB7  F00E         	goto	u2061
  4906   001D6A  EFB9  F00E         	goto	u2060
  4907   001D6E                     u2061:
  4908   001D6E  EFC1  F00E         	goto	l2732
  4909   001D72                     u2060:
  4910   001D72  0E00               	movlw	0
  4911   001D74  6E0F               	movwf	___flmul@b^(0+1280),c
  4912   001D76  0E00               	movlw	0
  4913   001D78  6E10               	movwf	(___flmul@b+1)^(0+1280),c
  4914   001D7A  0E00               	movlw	0
  4915   001D7C  6E11               	movwf	(___flmul@b+2)^(0+1280),c
  4916   001D7E  0E00               	movlw	0
  4917   001D80  6E12               	movwf	(___flmul@b+3)^(0+1280),c
  4918   001D82                     l2732:
  4919   001D82  8E11               	bsf	(___flmul@b+2)^(0+1280),7,c
  4920   001D84  EFCC  F00E         	goto	l2736
  4921   001D88                     l2734:
  4922   001D88  0E00               	movlw	0
  4923   001D8A  6E0F               	movwf	___flmul@b^(0+1280),c
  4924   001D8C  0E00               	movlw	0
  4925   001D8E  6E10               	movwf	(___flmul@b+1)^(0+1280),c
  4926   001D90  0E00               	movlw	0
  4927   001D92  6E11               	movwf	(___flmul@b+2)^(0+1280),c
  4928   001D94  0E00               	movlw	0
  4929   001D96  6E12               	movwf	(___flmul@b+3)^(0+1280),c
  4930   001D98                     l2736:
  4931   001D98  5016               	movf	(___flmul@a+3)^(0+1280),w,c
  4932   001D9A  0B80               	andlw	128
  4933   001D9C  1A1B               	xorwf	___flmul@sign^(0+1280),f,c
  4934   001D9E  5016               	movf	(___flmul@a+3)^(0+1280),w,c
  4935   001DA0  2416               	addwf	(___flmul@a+3)^(0+1280),w,c
  4936   001DA2  6E20               	movwf	___flmul@aexp^(0+1280),c
  4937   001DA4  AE15               	btfss	(___flmul@a+2)^(0+1280),7,c
  4938   001DA6  EFD7  F00E         	goto	u2071
  4939   001DAA  EFD9  F00E         	goto	u2070
  4940   001DAE                     u2071:
  4941   001DAE  EFDA  F00E         	goto	l2744
  4942   001DB2                     u2070:
  4943   001DB2  8020               	bsf	___flmul@aexp^(0+1280),0,c
  4944   001DB4                     l2744:
  4945   001DB4  5020               	movf	___flmul@aexp^(0+1280),w,c
  4946   001DB6  B4D8               	btfsc	status,2,c
  4947   001DB8  EFE0  F00E         	goto	u2081
  4948   001DBC  EFE2  F00E         	goto	u2080
  4949   001DC0                     u2081:
  4950   001DC0  EFF5  F00E         	goto	l2752
  4951   001DC4                     u2080:
  4952   001DC4  2820               	incf	___flmul@aexp^(0+1280),w,c
  4953   001DC6  A4D8               	btfss	status,2,c
  4954   001DC8  EFE8  F00E         	goto	u2091
  4955   001DCC  EFEA  F00E         	goto	u2090
  4956   001DD0                     u2091:
  4957   001DD0  EFF2  F00E         	goto	l2750
  4958   001DD4                     u2090:
  4959   001DD4  0E00               	movlw	0
  4960   001DD6  6E13               	movwf	___flmul@a^(0+1280),c
  4961   001DD8  0E00               	movlw	0
  4962   001DDA  6E14               	movwf	(___flmul@a+1)^(0+1280),c
  4963   001DDC  0E00               	movlw	0
  4964   001DDE  6E15               	movwf	(___flmul@a+2)^(0+1280),c
  4965   001DE0  0E00               	movlw	0
  4966   001DE2  6E16               	movwf	(___flmul@a+3)^(0+1280),c
  4967   001DE4                     l2750:
  4968   001DE4  8E15               	bsf	(___flmul@a+2)^(0+1280),7,c
  4969   001DE6  EFFD  F00E         	goto	l1218
  4970   001DEA                     l2752:
  4971   001DEA  0E00               	movlw	0
  4972   001DEC  6E13               	movwf	___flmul@a^(0+1280),c
  4973   001DEE  0E00               	movlw	0
  4974   001DF0  6E14               	movwf	(___flmul@a+1)^(0+1280),c
  4975   001DF2  0E00               	movlw	0
  4976   001DF4  6E15               	movwf	(___flmul@a+2)^(0+1280),c
  4977   001DF6  0E00               	movlw	0
  4978   001DF8  6E16               	movwf	(___flmul@a+3)^(0+1280),c
  4979   001DFA                     l1218:
  4980   001DFA  5020               	movf	___flmul@aexp^(0+1280),w,c
  4981   001DFC  B4D8               	btfsc	status,2,c
  4982   001DFE  EF03  F00F         	goto	u2101
  4983   001E02  EF05  F00F         	goto	u2100
  4984   001E06                     u2101:
  4985   001E06  EF0D  F00F         	goto	l2756
  4986   001E0A                     u2100:
  4987   001E0A  5021               	movf	___flmul@bexp^(0+1280),w,c
  4988   001E0C  A4D8               	btfss	status,2,c
  4989   001E0E  EF0B  F00F         	goto	u2111
  4990   001E12  EF0D  F00F         	goto	u2110
  4991   001E16                     u2111:
  4992   001E16  EF17  F00F         	goto	l2760
  4993   001E1A                     u2110:
  4994   001E1A                     l2756:
  4995   001E1A  0E00               	movlw	0
  4996   001E1C  6E0F               	movwf	?___flmul^(0+1280),c
  4997   001E1E  0E00               	movlw	0
  4998   001E20  6E10               	movwf	(?___flmul+1)^(0+1280),c
  4999   001E22  0E00               	movlw	0
  5000   001E24  6E11               	movwf	(?___flmul+2)^(0+1280),c
  5001   001E26  0E00               	movlw	0
  5002   001E28  6E12               	movwf	(?___flmul+3)^(0+1280),c
  5003   001E2A  EFAF  F010         	goto	l1222
  5004   001E2E                     l2760:
  5005   001E2E  5015               	movf	(___flmul@a+2)^(0+1280),w,c
  5006   001E30  020F               	mulwf	___flmul@b^(0+1280),c
  5007   001E32  C4F3 F526          	movff	prodl,___flmul@temp
  5008   001E36  C4F4 F527          	movff	prodh,___flmul@temp+1
  5009   001E3A  5026               	movf	___flmul@temp^(0+1280),w,c
  5010   001E3C  6E1C               	movwf	___flmul@grs^(0+1280),c
  5011   001E3E  6A1D               	clrf	(___flmul@grs+1)^(0+1280),c
  5012   001E40  6A1E               	clrf	(___flmul@grs+2)^(0+1280),c
  5013   001E42  6A1F               	clrf	(___flmul@grs+3)^(0+1280),c
  5014   001E44  5027               	movf	(___flmul@temp+1)^(0+1280),w,c
  5015   001E46  6E22               	movwf	___flmul@prod^(0+1280),c
  5016   001E48  6A23               	clrf	(___flmul@prod+1)^(0+1280),c
  5017   001E4A  6A24               	clrf	(___flmul@prod+2)^(0+1280),c
  5018   001E4C  6A25               	clrf	(___flmul@prod+3)^(0+1280),c
  5019   001E4E  5014               	movf	(___flmul@a+1)^(0+1280),w,c
  5020   001E50  0210               	mulwf	(___flmul@b+1)^(0+1280),c
  5021   001E52  C4F3 F526          	movff	prodl,___flmul@temp
  5022   001E56  C4F4 F527          	movff	prodh,___flmul@temp+1
  5023   001E5A  5026               	movf	___flmul@temp^(0+1280),w,c
  5024   001E5C  261C               	addwf	___flmul@grs^(0+1280),f,c
  5025   001E5E  0E00               	movlw	0
  5026   001E60  221D               	addwfc	(___flmul@grs+1)^(0+1280),f,c
  5027   001E62  221E               	addwfc	(___flmul@grs+2)^(0+1280),f,c
  5028   001E64  221F               	addwfc	(___flmul@grs+3)^(0+1280),f,c
  5029   001E66  5027               	movf	(___flmul@temp+1)^(0+1280),w,c
  5030   001E68  2622               	addwf	___flmul@prod^(0+1280),f,c
  5031   001E6A  0E00               	movlw	0
  5032   001E6C  2223               	addwfc	(___flmul@prod+1)^(0+1280),f,c
  5033   001E6E  2224               	addwfc	(___flmul@prod+2)^(0+1280),f,c
  5034   001E70  2225               	addwfc	(___flmul@prod+3)^(0+1280),f,c
  5035   001E72  5013               	movf	___flmul@a^(0+1280),w,c
  5036   001E74  0211               	mulwf	(___flmul@b+2)^(0+1280),c
  5037   001E76  C4F3 F526          	movff	prodl,___flmul@temp
  5038   001E7A  C4F4 F527          	movff	prodh,___flmul@temp+1
  5039   001E7E  5026               	movf	___flmul@temp^(0+1280),w,c
  5040   001E80  261C               	addwf	___flmul@grs^(0+1280),f,c
  5041   001E82  0E00               	movlw	0
  5042   001E84  221D               	addwfc	(___flmul@grs+1)^(0+1280),f,c
  5043   001E86  221E               	addwfc	(___flmul@grs+2)^(0+1280),f,c
  5044   001E88  221F               	addwfc	(___flmul@grs+3)^(0+1280),f,c
  5045   001E8A  5027               	movf	(___flmul@temp+1)^(0+1280),w,c
  5046   001E8C  2622               	addwf	___flmul@prod^(0+1280),f,c
  5047   001E8E  0E00               	movlw	0
  5048   001E90  2223               	addwfc	(___flmul@prod+1)^(0+1280),f,c
  5049   001E92  2224               	addwfc	(___flmul@prod+2)^(0+1280),f,c
  5050   001E94  2225               	addwfc	(___flmul@prod+3)^(0+1280),f,c
  5051   001E96  C51E  F51F         	movff	___flmul@grs+2,___flmul@grs+3
  5052   001E9A  C51D  F51E         	movff	___flmul@grs+1,___flmul@grs+2
  5053   001E9E  C51C  F51D         	movff	___flmul@grs,___flmul@grs+1
  5054   001EA2  6A1C               	clrf	___flmul@grs^(0+1280),c
  5055   001EA4  5013               	movf	___flmul@a^(0+1280),w,c
  5056   001EA6  0210               	mulwf	(___flmul@b+1)^(0+1280),c
  5057   001EA8  C4F3 F526          	movff	prodl,___flmul@temp
  5058   001EAC  C4F4 F527          	movff	prodh,___flmul@temp+1
  5059   001EB0  5026               	movf	___flmul@temp^(0+1280),w,c
  5060   001EB2  261C               	addwf	___flmul@grs^(0+1280),f,c
  5061   001EB4  5027               	movf	(___flmul@temp+1)^(0+1280),w,c
  5062   001EB6  221D               	addwfc	(___flmul@grs+1)^(0+1280),f,c
  5063   001EB8  0E00               	movlw	0
  5064   001EBA  221E               	addwfc	(___flmul@grs+2)^(0+1280),f,c
  5065   001EBC  0E00               	movlw	0
  5066   001EBE  221F               	addwfc	(___flmul@grs+3)^(0+1280),f,c
  5067   001EC0  5014               	movf	(___flmul@a+1)^(0+1280),w,c
  5068   001EC2  020F               	mulwf	___flmul@b^(0+1280),c
  5069   001EC4  C4F3 F526          	movff	prodl,___flmul@temp
  5070   001EC8  C4F4 F527          	movff	prodh,___flmul@temp+1
  5071   001ECC  5026               	movf	___flmul@temp^(0+1280),w,c
  5072   001ECE  261C               	addwf	___flmul@grs^(0+1280),f,c
  5073   001ED0  5027               	movf	(___flmul@temp+1)^(0+1280),w,c
  5074   001ED2  221D               	addwfc	(___flmul@grs+1)^(0+1280),f,c
  5075   001ED4  0E00               	movlw	0
  5076   001ED6  221E               	addwfc	(___flmul@grs+2)^(0+1280),f,c
  5077   001ED8  0E00               	movlw	0
  5078   001EDA  221F               	addwfc	(___flmul@grs+3)^(0+1280),f,c
  5079   001EDC  C51E  F51F         	movff	___flmul@grs+2,___flmul@grs+3
  5080   001EE0  C51D  F51E         	movff	___flmul@grs+1,___flmul@grs+2
  5081   001EE4  C51C  F51D         	movff	___flmul@grs,___flmul@grs+1
  5082   001EE8  6A1C               	clrf	___flmul@grs^(0+1280),c
  5083   001EEA  5013               	movf	___flmul@a^(0+1280),w,c
  5084   001EEC  020F               	mulwf	___flmul@b^(0+1280),c
  5085   001EEE  C4F3 F526          	movff	prodl,___flmul@temp
  5086   001EF2  C4F4 F527          	movff	prodh,___flmul@temp+1
  5087   001EF6  5026               	movf	___flmul@temp^(0+1280),w,c
  5088   001EF8  261C               	addwf	___flmul@grs^(0+1280),f,c
  5089   001EFA  5027               	movf	(___flmul@temp+1)^(0+1280),w,c
  5090   001EFC  221D               	addwfc	(___flmul@grs+1)^(0+1280),f,c
  5091   001EFE  0E00               	movlw	0
  5092   001F00  221E               	addwfc	(___flmul@grs+2)^(0+1280),f,c
  5093   001F02  0E00               	movlw	0
  5094   001F04  221F               	addwfc	(___flmul@grs+3)^(0+1280),f,c
  5095   001F06  5015               	movf	(___flmul@a+2)^(0+1280),w,c
  5096   001F08  0210               	mulwf	(___flmul@b+1)^(0+1280),c
  5097   001F0A  C4F3 F526          	movff	prodl,___flmul@temp
  5098   001F0E  C4F4 F527          	movff	prodh,___flmul@temp+1
  5099   001F12  5026               	movf	___flmul@temp^(0+1280),w,c
  5100   001F14  2622               	addwf	___flmul@prod^(0+1280),f,c
  5101   001F16  5027               	movf	(___flmul@temp+1)^(0+1280),w,c
  5102   001F18  2223               	addwfc	(___flmul@prod+1)^(0+1280),f,c
  5103   001F1A  0E00               	movlw	0
  5104   001F1C  2224               	addwfc	(___flmul@prod+2)^(0+1280),f,c
  5105   001F1E  0E00               	movlw	0
  5106   001F20  2225               	addwfc	(___flmul@prod+3)^(0+1280),f,c
  5107   001F22  5014               	movf	(___flmul@a+1)^(0+1280),w,c
  5108   001F24  0211               	mulwf	(___flmul@b+2)^(0+1280),c
  5109   001F26  C4F3 F526          	movff	prodl,___flmul@temp
  5110   001F2A  C4F4 F527          	movff	prodh,___flmul@temp+1
  5111   001F2E  5026               	movf	___flmul@temp^(0+1280),w,c
  5112   001F30  2622               	addwf	___flmul@prod^(0+1280),f,c
  5113   001F32  5027               	movf	(___flmul@temp+1)^(0+1280),w,c
  5114   001F34  2223               	addwfc	(___flmul@prod+1)^(0+1280),f,c
  5115   001F36  0E00               	movlw	0
  5116   001F38  2224               	addwfc	(___flmul@prod+2)^(0+1280),f,c
  5117   001F3A  0E00               	movlw	0
  5118   001F3C  2225               	addwfc	(___flmul@prod+3)^(0+1280),f,c
  5119   001F3E  5015               	movf	(___flmul@a+2)^(0+1280),w,c
  5120   001F40  0211               	mulwf	(___flmul@b+2)^(0+1280),c
  5121   001F42  C4F3 F526          	movff	prodl,___flmul@temp
  5122   001F46  C4F4 F527          	movff	prodh,___flmul@temp+1
  5123   001F4A  5026               	movf	___flmul@temp^(0+1280),w,c
  5124   001F4C  6E17               	movwf	??___flmul^(0+1280),c
  5125   001F4E  5027               	movf	(___flmul@temp+1)^(0+1280),w,c
  5126   001F50  6E18               	movwf	(??___flmul+1)^(0+1280),c
  5127   001F52  6A19               	clrf	(??___flmul+2)^(0+1280),c
  5128   001F54  6A1A               	clrf	(??___flmul+3)^(0+1280),c
  5129   001F56  C519  F51A         	movff	??___flmul+2,??___flmul+3
  5130   001F5A  C518  F519         	movff	??___flmul+1,??___flmul+2
  5131   001F5E  C517  F518         	movff	??___flmul,??___flmul+1
  5132   001F62  6A17               	clrf	??___flmul^(0+1280),c
  5133   001F64  5017               	movf	??___flmul^(0+1280),w,c
  5134   001F66  2622               	addwf	___flmul@prod^(0+1280),f,c
  5135   001F68  5018               	movf	(??___flmul+1)^(0+1280),w,c
  5136   001F6A  2223               	addwfc	(___flmul@prod+1)^(0+1280),f,c
  5137   001F6C  5019               	movf	(??___flmul+2)^(0+1280),w,c
  5138   001F6E  2224               	addwfc	(___flmul@prod+2)^(0+1280),f,c
  5139   001F70  501A               	movf	(??___flmul+3)^(0+1280),w,c
  5140   001F72  2225               	addwfc	(___flmul@prod+3)^(0+1280),f,c
  5141   001F74  C51C  F517         	movff	___flmul@grs,??___flmul
  5142   001F78  C51D  F518         	movff	___flmul@grs+1,??___flmul+1
  5143   001F7C  C51E  F519         	movff	___flmul@grs+2,??___flmul+2
  5144   001F80  C51F  F51A         	movff	___flmul@grs+3,??___flmul+3
  5145   001F84  0E19               	movlw	25
  5146   001F86  EFCA  F00F         	goto	u2120
  5147   001F8A                     u2125:
  5148   001F8A  90D8               	bcf	status,0,c
  5149   001F8C  321A               	rrcf	(??___flmul+3)^(0+1280),f,c
  5150   001F8E  3219               	rrcf	(??___flmul+2)^(0+1280),f,c
  5151   001F90  3218               	rrcf	(??___flmul+1)^(0+1280),f,c
  5152   001F92  3217               	rrcf	??___flmul^(0+1280),f,c
  5153   001F94                     u2120:
  5154   001F94  2EE8               	decfsz	wreg,f,c
  5155   001F96  EFC5  F00F         	goto	u2125
  5156   001F9A  5017               	movf	??___flmul^(0+1280),w,c
  5157   001F9C  2622               	addwf	___flmul@prod^(0+1280),f,c
  5158   001F9E  5018               	movf	(??___flmul+1)^(0+1280),w,c
  5159   001FA0  2223               	addwfc	(___flmul@prod+1)^(0+1280),f,c
  5160   001FA2  5019               	movf	(??___flmul+2)^(0+1280),w,c
  5161   001FA4  2224               	addwfc	(___flmul@prod+2)^(0+1280),f,c
  5162   001FA6  501A               	movf	(??___flmul+3)^(0+1280),w,c
  5163   001FA8  2225               	addwfc	(___flmul@prod+3)^(0+1280),f,c
  5164   001FAA  C51E  F51F         	movff	___flmul@grs+2,___flmul@grs+3
  5165   001FAE  C51D  F51E         	movff	___flmul@grs+1,___flmul@grs+2
  5166   001FB2  C51C  F51D         	movff	___flmul@grs,___flmul@grs+1
  5167   001FB6  6A1C               	clrf	___flmul@grs^(0+1280),c
  5168   001FB8  5020               	movf	___flmul@aexp^(0+1280),w,c
  5169   001FBA  C521  F517         	movff	___flmul@bexp,??___flmul
  5170   001FBE  6A18               	clrf	(??___flmul+1)^(0+1280),c
  5171   001FC0  2617               	addwf	??___flmul^(0+1280),f,c
  5172   001FC2  0E00               	movlw	0
  5173   001FC4  2218               	addwfc	(??___flmul+1)^(0+1280),f,c
  5174   001FC6  0E82               	movlw	130
  5175   001FC8  2417               	addwf	??___flmul^(0+1280),w,c
  5176   001FCA  6E26               	movwf	___flmul@temp^(0+1280),c
  5177   001FCC  0EFF               	movlw	255
  5178   001FCE  2018               	addwfc	(??___flmul+1)^(0+1280),w,c
  5179   001FD0  6E27               	movwf	(___flmul@temp+1)^(0+1280),c
  5180   001FD2  EF00  F010         	goto	l2808
  5181   001FD6                     l2802:
  5182   001FD6  90D8               	bcf	status,0,c
  5183   001FD8  3622               	rlcf	___flmul@prod^(0+1280),f,c
  5184   001FDA  3623               	rlcf	(___flmul@prod+1)^(0+1280),f,c
  5185   001FDC  3624               	rlcf	(___flmul@prod+2)^(0+1280),f,c
  5186   001FDE  3625               	rlcf	(___flmul@prod+3)^(0+1280),f,c
  5187   001FE0  AE1F               	btfss	(___flmul@grs+3)^(0+1280),7,c
  5188   001FE2  EFF5  F00F         	goto	u2131
  5189   001FE6  EFF7  F00F         	goto	u2130
  5190   001FEA                     u2131:
  5191   001FEA  EFF8  F00F         	goto	l1225
  5192   001FEE                     u2130:
  5193   001FEE  8022               	bsf	___flmul@prod^(0+1280),0,c
  5194   001FF0                     l1225:
  5195   001FF0  90D8               	bcf	status,0,c
  5196   001FF2  361C               	rlcf	___flmul@grs^(0+1280),f,c
  5197   001FF4  361D               	rlcf	(___flmul@grs+1)^(0+1280),f,c
  5198   001FF6  361E               	rlcf	(___flmul@grs+2)^(0+1280),f,c
  5199   001FF8  361F               	rlcf	(___flmul@grs+3)^(0+1280),f,c
  5200   001FFA  0626               	decf	___flmul@temp^(0+1280),f,c
  5201   001FFC  A0D8               	btfss	status,0,c
  5202   001FFE  0627               	decf	(___flmul@temp+1)^(0+1280),f,c
  5203   002000                     l2808:
  5204   002000  AE24               	btfss	(___flmul@prod+2)^(0+1280),7,c
  5205   002002  EF05  F010         	goto	u2141
  5206   002006  EF07  F010         	goto	u2140
  5207   00200A                     u2141:
  5208   00200A  EFEB  F00F         	goto	l2802
  5209   00200E                     u2140:
  5210   00200E  0E00               	movlw	0
  5211   002010  6E20               	movwf	___flmul@aexp^(0+1280),c
  5212   002012  AE1F               	btfss	(___flmul@grs+3)^(0+1280),7,c
  5213   002014  EF0E  F010         	goto	u2151
  5214   002018  EF10  F010         	goto	u2150
  5215   00201C                     u2151:
  5216   00201C  EF34  F010         	goto	l1227
  5217   002020                     u2150:
  5218   002020  0EFF               	movlw	255
  5219   002022  141C               	andwf	___flmul@grs^(0+1280),w,c
  5220   002024  6E17               	movwf	??___flmul^(0+1280),c
  5221   002026  0EFF               	movlw	255
  5222   002028  141D               	andwf	(___flmul@grs+1)^(0+1280),w,c
  5223   00202A  6E18               	movwf	(??___flmul+1)^(0+1280),c
  5224   00202C  0EFF               	movlw	255
  5225   00202E  141E               	andwf	(___flmul@grs+2)^(0+1280),w,c
  5226   002030  6E19               	movwf	(??___flmul+2)^(0+1280),c
  5227   002032  0E7F               	movlw	127
  5228   002034  141F               	andwf	(___flmul@grs+3)^(0+1280),w,c
  5229   002036  6E1A               	movwf	(??___flmul+3)^(0+1280),c
  5230   002038  5017               	movf	??___flmul^(0+1280),w,c
  5231   00203A  1018               	iorwf	(??___flmul+1)^(0+1280),w,c
  5232   00203C  1019               	iorwf	(??___flmul+2)^(0+1280),w,c
  5233   00203E  101A               	iorwf	(??___flmul+3)^(0+1280),w,c
  5234   002040  B4D8               	btfsc	status,2,c
  5235   002042  EF25  F010         	goto	u2161
  5236   002046  EF27  F010         	goto	u2160
  5237   00204A                     u2161:
  5238   00204A  EF2B  F010         	goto	l1228
  5239   00204E                     u2160:
  5240   00204E                     l2816:
  5241   00204E  0E01               	movlw	1
  5242   002050  6E20               	movwf	___flmul@aexp^(0+1280),c
  5243   002052  EF34  F010         	goto	l1227
  5244   002056                     l1228:
  5245   002056  A022               	btfss	___flmul@prod^(0+1280),0,c
  5246   002058  EF30  F010         	goto	u2171
  5247   00205C  EF32  F010         	goto	u2170
  5248   002060                     u2171:
  5249   002060  EF34  F010         	goto	l1227
  5250   002064                     u2170:
  5251   002064  EF27  F010         	goto	l2816
  5252   002068                     l1227:
  5253   002068  5020               	movf	___flmul@aexp^(0+1280),w,c
  5254   00206A  B4D8               	btfsc	status,2,c
  5255   00206C  EF3A  F010         	goto	u2181
  5256   002070  EF3C  F010         	goto	u2180
  5257   002074                     u2181:
  5258   002074  EF60  F010         	goto	l2828
  5259   002078                     u2180:
  5260   002078  0E01               	movlw	1
  5261   00207A  2622               	addwf	___flmul@prod^(0+1280),f,c
  5262   00207C  0E00               	movlw	0
  5263   00207E  2223               	addwfc	(___flmul@prod+1)^(0+1280),f,c
  5264   002080  2224               	addwfc	(___flmul@prod+2)^(0+1280),f,c
  5265   002082  2225               	addwfc	(___flmul@prod+3)^(0+1280),f,c
  5266   002084  A025               	btfss	(___flmul@prod+3)^(0+1280),0,c
  5267   002086  EF47  F010         	goto	u2191
  5268   00208A  EF49  F010         	goto	u2190
  5269   00208E                     u2191:
  5270   00208E  EF60  F010         	goto	l2828
  5271   002092                     u2190:
  5272   002092  C522  F517         	movff	___flmul@prod,??___flmul
  5273   002096  C523  F518         	movff	___flmul@prod+1,??___flmul+1
  5274   00209A  C524  F519         	movff	___flmul@prod+2,??___flmul+2
  5275   00209E  C525  F51A         	movff	___flmul@prod+3,??___flmul+3
  5276   0020A2  341A               	rlcf	(??___flmul+3)^(0+1280),w,c
  5277   0020A4  321A               	rrcf	(??___flmul+3)^(0+1280),f,c
  5278   0020A6  3219               	rrcf	(??___flmul+2)^(0+1280),f,c
  5279   0020A8  3218               	rrcf	(??___flmul+1)^(0+1280),f,c
  5280   0020AA  3217               	rrcf	??___flmul^(0+1280),f,c
  5281   0020AC  C517  F522         	movff	??___flmul,___flmul@prod
  5282   0020B0  C518  F523         	movff	??___flmul+1,___flmul@prod+1
  5283   0020B4  C519  F524         	movff	??___flmul+2,___flmul@prod+2
  5284   0020B8  C51A  F525         	movff	??___flmul+3,___flmul@prod+3
  5285   0020BC  4A26               	infsnz	___flmul@temp^(0+1280),f,c
  5286   0020BE  2A27               	incf	(___flmul@temp+1)^(0+1280),f,c
  5287   0020C0                     l2828:
  5288   0020C0  BE27               	btfsc	(___flmul@temp+1)^(0+1280),7,c
  5289   0020C2  EF6B  F010         	goto	u2201
  5290   0020C6  5027               	movf	(___flmul@temp+1)^(0+1280),w,c
  5291   0020C8  E108               	bnz	u2200
  5292   0020CA  2826               	incf	___flmul@temp^(0+1280),w,c
  5293   0020CC  A0D8               	btfss	status,0,c
  5294   0020CE  EF6B  F010         	goto	u2201
  5295   0020D2  EF6D  F010         	goto	u2200
  5296   0020D6                     u2201:
  5297   0020D6  EF77  F010         	goto	l2832
  5298   0020DA                     u2200:
  5299   0020DA  0E00               	movlw	0
  5300   0020DC  6E22               	movwf	___flmul@prod^(0+1280),c
  5301   0020DE  0E00               	movlw	0
  5302   0020E0  6E23               	movwf	(___flmul@prod+1)^(0+1280),c
  5303   0020E2  0E80               	movlw	128
  5304   0020E4  6E24               	movwf	(___flmul@prod+2)^(0+1280),c
  5305   0020E6  0E7F               	movlw	127
  5306   0020E8  6E25               	movwf	(___flmul@prod+3)^(0+1280),c
  5307   0020EA  EFA5  F010         	goto	l2844
  5308   0020EE                     l2832:
  5309   0020EE  BE27               	btfsc	(___flmul@temp+1)^(0+1280),7,c
  5310   0020F0  EF84  F010         	goto	u2210
  5311   0020F4  5027               	movf	(___flmul@temp+1)^(0+1280),w,c
  5312   0020F6  E106               	bnz	u2211
  5313   0020F8  0426               	decf	___flmul@temp^(0+1280),w,c
  5314   0020FA  B0D8               	btfsc	status,0,c
  5315   0020FC  EF82  F010         	goto	u2211
  5316   002100  EF84  F010         	goto	u2210
  5317   002104                     u2211:
  5318   002104  EF90  F010         	goto	l1235
  5319   002108                     u2210:
  5320   002108  0E00               	movlw	0
  5321   00210A  6E22               	movwf	___flmul@prod^(0+1280),c
  5322   00210C  0E00               	movlw	0
  5323   00210E  6E23               	movwf	(___flmul@prod+1)^(0+1280),c
  5324   002110  0E00               	movlw	0
  5325   002112  6E24               	movwf	(___flmul@prod+2)^(0+1280),c
  5326   002114  0E00               	movlw	0
  5327   002116  6E25               	movwf	(___flmul@prod+3)^(0+1280),c
  5328   002118  0E00               	movlw	0
  5329   00211A  6E1B               	movwf	___flmul@sign^(0+1280),c
  5330   00211C  EFA5  F010         	goto	l2844
  5331   002120                     l1235:
  5332   002120  C526  F521         	movff	___flmul@temp,___flmul@bexp
  5333   002124  0EFF               	movlw	255
  5334   002126  1622               	andwf	___flmul@prod^(0+1280),f,c
  5335   002128  0EFF               	movlw	255
  5336   00212A  1623               	andwf	(___flmul@prod+1)^(0+1280),f,c
  5337   00212C  0E7F               	movlw	127
  5338   00212E  1624               	andwf	(___flmul@prod+2)^(0+1280),f,c
  5339   002130  0E00               	movlw	0
  5340   002132  1625               	andwf	(___flmul@prod+3)^(0+1280),f,c
  5341   002134  A021               	btfss	___flmul@bexp^(0+1280),0,c
  5342   002136  EF9F  F010         	goto	u2221
  5343   00213A  EFA1  F010         	goto	u2220
  5344   00213E                     u2221:
  5345   00213E  EFA2  F010         	goto	l2842
  5346   002142                     u2220:
  5347   002142  8E24               	bsf	(___flmul@prod+2)^(0+1280),7,c
  5348   002144                     l2842:
  5349   002144  90D8               	bcf	status,0,c
  5350   002146  3021               	rrcf	___flmul@bexp^(0+1280),w,c
  5351   002148  6E25               	movwf	(___flmul@prod+3)^(0+1280),c
  5352   00214A                     l2844:
  5353   00214A  501B               	movf	___flmul@sign^(0+1280),w,c
  5354   00214C  1225               	iorwf	(___flmul@prod+3)^(0+1280),f,c
  5355   00214E  C522  F50F         	movff	___flmul@prod,?___flmul
  5356   002152  C523  F510         	movff	___flmul@prod+1,?___flmul+1
  5357   002156  C524  F511         	movff	___flmul@prod+2,?___flmul+2
  5358   00215A  C525  F512         	movff	___flmul@prod+3,?___flmul+3
  5359   00215E                     l1222:
  5360   00215E  0012               	return		;funcret
  5361   002160                     __end_of___flmul:
  5362                           	callstack 0
  5363                           
  5364 ;; *************** function ___fladd *****************
  5365 ;; Defined at:
  5366 ;;		line 10 in file "S:\XC8C\pic\sources\c99\common\sprcadd.c"
  5367 ;; Parameters:    Size  Location     Type
  5368 ;;  b               4   64[COMRAM] unsigned char 
  5369 ;;  a               4   68[COMRAM] unsigned char 
  5370 ;; Auto vars:     Size  Location     Type
  5371 ;;  grs             1   79[COMRAM] unsigned char 
  5372 ;;  bexp            1   78[COMRAM] unsigned char 
  5373 ;;  aexp            1   77[COMRAM] unsigned char 
  5374 ;;  signs           1   76[COMRAM] unsigned char 
  5375 ;; Return value:  Size  Location     Type
  5376 ;;                  4   64[COMRAM] unsigned char 
  5377 ;; Registers used:
  5378 ;;		wreg, status,2, status,0
  5379 ;; Tracked objects:
  5380 ;;		On entry : 0/0
  5381 ;;		On exit  : 0/0
  5382 ;;		Unchanged: 0/0
  5383 ;; Data sizes:     COMRAM   BANK5   BANK6   BANK7   BANK8   BANK9  BANK10  BANK11  BANK12
  5384 ;;      Params:         8       0       0       0       0       0       0       0       0
  5385 ;;      Locals:         4       0       0       0       0       0       0       0       0
  5386 ;;      Temps:          4       0       0       0       0       0       0       0       0
  5387 ;;      Totals:        16       0       0       0       0       0       0       0       0
  5388 ;;Total ram usage:       16 bytes
  5389 ;; Hardware stack levels used: 1
  5390 ;; This function calls:
  5391 ;;		Nothing
  5392 ;; This function is called by:
  5393 ;;		_generate_sine_wave
  5394 ;;		___flsub
  5395 ;;		_sinf
  5396 ;;		___cosdf
  5397 ;;		___rem_pio2f
  5398 ;;		___sindf
  5399 ;; This function uses a non-reentrant model
  5400 ;;
  5401                           
  5402                           	psect	text12
  5403   001876                     __ptext12:
  5404                           	callstack 0
  5405   001876                     ___fladd:
  5406                           	callstack 123
  5407   001876  5044               	movf	(___fladd@b+3)^(0+1280),w,c
  5408   001878  0B80               	andlw	128
  5409   00187A  6E4D               	movwf	___fladd@signs^(0+1280),c
  5410   00187C  5044               	movf	(___fladd@b+3)^(0+1280),w,c
  5411   00187E  2444               	addwf	(___fladd@b+3)^(0+1280),w,c
  5412   001880  6E4F               	movwf	___fladd@bexp^(0+1280),c
  5413   001882  AE43               	btfss	(___fladd@b+2)^(0+1280),7,c
  5414   001884  EF46  F00C         	goto	u1651
  5415   001888  EF48  F00C         	goto	u1650
  5416   00188C                     u1651:
  5417   00188C  EF49  F00C         	goto	l2524
  5418   001890                     u1650:
  5419   001890  804F               	bsf	___fladd@bexp^(0+1280),0,c
  5420   001892                     l2524:
  5421   001892  504F               	movf	___fladd@bexp^(0+1280),w,c
  5422   001894  B4D8               	btfsc	status,2,c
  5423   001896  EF4F  F00C         	goto	u1661
  5424   00189A  EF51  F00C         	goto	u1660
  5425   00189E                     u1661:
  5426   00189E  EF66  F00C         	goto	l2534
  5427   0018A2                     u1660:
  5428   0018A2  284F               	incf	___fladd@bexp^(0+1280),w,c
  5429   0018A4  A4D8               	btfss	status,2,c
  5430   0018A6  EF57  F00C         	goto	u1671
  5431   0018AA  EF59  F00C         	goto	u1670
  5432   0018AE                     u1671:
  5433   0018AE  EF61  F00C         	goto	l2530
  5434   0018B2                     u1670:
  5435   0018B2  0E00               	movlw	0
  5436   0018B4  6E41               	movwf	___fladd@b^(0+1280),c
  5437   0018B6  0E00               	movlw	0
  5438   0018B8  6E42               	movwf	(___fladd@b+1)^(0+1280),c
  5439   0018BA  0E00               	movlw	0
  5440   0018BC  6E43               	movwf	(___fladd@b+2)^(0+1280),c
  5441   0018BE  0E00               	movlw	0
  5442   0018C0  6E44               	movwf	(___fladd@b+3)^(0+1280),c
  5443   0018C2                     l2530:
  5444   0018C2  8E43               	bsf	(___fladd@b+2)^(0+1280),7,c
  5445   0018C4  0E00               	movlw	0
  5446   0018C6  6E44               	movwf	(___fladd@b+3)^(0+1280),c
  5447   0018C8  EF6E  F00C         	goto	l2536
  5448   0018CC                     l2534:
  5449   0018CC  0E00               	movlw	0
  5450   0018CE  6E41               	movwf	___fladd@b^(0+1280),c
  5451   0018D0  0E00               	movlw	0
  5452   0018D2  6E42               	movwf	(___fladd@b+1)^(0+1280),c
  5453   0018D4  0E00               	movlw	0
  5454   0018D6  6E43               	movwf	(___fladd@b+2)^(0+1280),c
  5455   0018D8  0E00               	movlw	0
  5456   0018DA  6E44               	movwf	(___fladd@b+3)^(0+1280),c
  5457   0018DC                     l2536:
  5458   0018DC  5048               	movf	(___fladd@a+3)^(0+1280),w,c
  5459   0018DE  0B80               	andlw	128
  5460   0018E0  6E4E               	movwf	___fladd@aexp^(0+1280),c
  5461   0018E2  504D               	movf	___fladd@signs^(0+1280),w,c
  5462   0018E4  184E               	xorwf	___fladd@aexp^(0+1280),w,c
  5463   0018E6  B4D8               	btfsc	status,2,c
  5464   0018E8  EF78  F00C         	goto	u1681
  5465   0018EC  EF7A  F00C         	goto	u1680
  5466   0018F0                     u1681:
  5467   0018F0  EF7B  F00C         	goto	l2542
  5468   0018F4                     u1680:
  5469   0018F4  8C4D               	bsf	___fladd@signs^(0+1280),6,c
  5470   0018F6                     l2542:
  5471   0018F6  5048               	movf	(___fladd@a+3)^(0+1280),w,c
  5472   0018F8  2448               	addwf	(___fladd@a+3)^(0+1280),w,c
  5473   0018FA  6E4E               	movwf	___fladd@aexp^(0+1280),c
  5474   0018FC  AE47               	btfss	(___fladd@a+2)^(0+1280),7,c
  5475   0018FE  EF83  F00C         	goto	u1691
  5476   001902  EF85  F00C         	goto	u1690
  5477   001906                     u1691:
  5478   001906  EF86  F00C         	goto	l2548
  5479   00190A                     u1690:
  5480   00190A  804E               	bsf	___fladd@aexp^(0+1280),0,c
  5481   00190C                     l2548:
  5482   00190C  504E               	movf	___fladd@aexp^(0+1280),w,c
  5483   00190E  B4D8               	btfsc	status,2,c
  5484   001910  EF8C  F00C         	goto	u1701
  5485   001914  EF8E  F00C         	goto	u1700
  5486   001918                     u1701:
  5487   001918  EFA3  F00C         	goto	l2558
  5488   00191C                     u1700:
  5489   00191C  284E               	incf	___fladd@aexp^(0+1280),w,c
  5490   00191E  A4D8               	btfss	status,2,c
  5491   001920  EF94  F00C         	goto	u1711
  5492   001924  EF96  F00C         	goto	u1710
  5493   001928                     u1711:
  5494   001928  EF9E  F00C         	goto	l2554
  5495   00192C                     u1710:
  5496   00192C  0E00               	movlw	0
  5497   00192E  6E45               	movwf	___fladd@a^(0+1280),c
  5498   001930  0E00               	movlw	0
  5499   001932  6E46               	movwf	(___fladd@a+1)^(0+1280),c
  5500   001934  0E00               	movlw	0
  5501   001936  6E47               	movwf	(___fladd@a+2)^(0+1280),c
  5502   001938  0E00               	movlw	0
  5503   00193A  6E48               	movwf	(___fladd@a+3)^(0+1280),c
  5504   00193C                     l2554:
  5505   00193C  8E47               	bsf	(___fladd@a+2)^(0+1280),7,c
  5506   00193E  0E00               	movlw	0
  5507   001940  6E48               	movwf	(___fladd@a+3)^(0+1280),c
  5508   001942  EFAB  F00C         	goto	l2560
  5509   001946                     l2558:
  5510   001946  0E00               	movlw	0
  5511   001948  6E45               	movwf	___fladd@a^(0+1280),c
  5512   00194A  0E00               	movlw	0
  5513   00194C  6E46               	movwf	(___fladd@a+1)^(0+1280),c
  5514   00194E  0E00               	movlw	0
  5515   001950  6E47               	movwf	(___fladd@a+2)^(0+1280),c
  5516   001952  0E00               	movlw	0
  5517   001954  6E48               	movwf	(___fladd@a+3)^(0+1280),c
  5518   001956                     l2560:
  5519   001956  504F               	movf	___fladd@bexp^(0+1280),w,c
  5520   001958  5C4E               	subwf	___fladd@aexp^(0+1280),w,c
  5521   00195A  B0D8               	btfsc	status,0,c
  5522   00195C  EFB2  F00C         	goto	u1721
  5523   001960  EFB4  F00C         	goto	u1720
  5524   001964                     u1721:
  5525   001964  EFDB  F00C         	goto	l2596
  5526   001968                     u1720:
  5527   001968  AC4D               	btfss	___fladd@signs^(0+1280),6,c
  5528   00196A  EFB9  F00C         	goto	u1731
  5529   00196E  EFBB  F00C         	goto	u1730
  5530   001972                     u1731:
  5531   001972  EFBD  F00C         	goto	l2566
  5532   001976                     u1730:
  5533   001976  0E80               	movlw	128
  5534   001978  1A4D               	xorwf	___fladd@signs^(0+1280),f,c
  5535   00197A                     l2566:
  5536   00197A  C54F  F550         	movff	___fladd@bexp,___fladd@grs
  5537   00197E  C54E  F54F         	movff	___fladd@aexp,___fladd@bexp
  5538   001982  C550  F54E         	movff	___fladd@grs,___fladd@aexp
  5539   001986  C541  F550         	movff	___fladd@b,___fladd@grs
  5540   00198A  C545  F541         	movff	___fladd@a,___fladd@b
  5541   00198E  C550  F545         	movff	___fladd@grs,___fladd@a
  5542   001992  C542  F550         	movff	___fladd@b+1,___fladd@grs
  5543   001996  C546  F542         	movff	___fladd@a+1,___fladd@b+1
  5544   00199A  C550  F546         	movff	___fladd@grs,___fladd@a+1
  5545   00199E  C543  F550         	movff	___fladd@b+2,___fladd@grs
  5546   0019A2  C547  F543         	movff	___fladd@a+2,___fladd@b+2
  5547   0019A6  C550  F547         	movff	___fladd@grs,___fladd@a+2
  5548   0019AA  C544  F550         	movff	___fladd@b+3,___fladd@grs
  5549   0019AE  C548  F544         	movff	___fladd@a+3,___fladd@b+3
  5550   0019B2  C550  F548         	movff	___fladd@grs,___fladd@a+3
  5551   0019B6                     l2596:
  5552   0019B6  0E00               	movlw	0
  5553   0019B8  6E50               	movwf	___fladd@grs^(0+1280),c
  5554   0019BA  504F               	movf	___fladd@bexp^(0+1280),w,c
  5555   0019BC  C54E  F549         	movff	___fladd@aexp,??___fladd
  5556   0019C0  6A4A               	clrf	(??___fladd+1)^(0+1280),c
  5557   0019C2  5E49               	subwf	??___fladd^(0+1280),f,c
  5558   0019C4  0E00               	movlw	0
  5559   0019C6  5A4A               	subwfb	(??___fladd+1)^(0+1280),f,c
  5560   0019C8  BE4A               	btfsc	(??___fladd+1)^(0+1280),7,c
  5561   0019CA  EFF0  F00C         	goto	u1741
  5562   0019CE  504A               	movf	(??___fladd+1)^(0+1280),w,c
  5563   0019D0  E109               	bnz	u1740
  5564   0019D2  0E1A               	movlw	26
  5565   0019D4  5C49               	subwf	??___fladd^(0+1280),w,c
  5566   0019D6  A0D8               	btfss	status,0,c
  5567   0019D8  EFF0  F00C         	goto	u1741
  5568   0019DC  EFF2  F00C         	goto	u1740
  5569   0019E0                     u1741:
  5570   0019E0  EF29  F00D         	goto	l1133
  5571   0019E4                     u1740:
  5572   0019E4  5041               	movf	___fladd@b^(0+1280),w,c
  5573   0019E6  1042               	iorwf	(___fladd@b+1)^(0+1280),w,c
  5574   0019E8  1043               	iorwf	(___fladd@b+2)^(0+1280),w,c
  5575   0019EA  1044               	iorwf	(___fladd@b+3)^(0+1280),w,c
  5576   0019EC  A4D8               	btfss	status,2,c
  5577   0019EE  EFFB  F00C         	goto	u1751
  5578   0019F2  EFFE  F00C         	goto	u1750
  5579   0019F6                     u1751:
  5580   0019F6  0E01               	movlw	1
  5581   0019F8  EFFF  F00C         	goto	u1760
  5582   0019FC                     u1750:
  5583   0019FC  0E00               	movlw	0
  5584   0019FE                     u1760:
  5585   0019FE  6E50               	movwf	___fladd@grs^(0+1280),c
  5586   001A00  0E00               	movlw	0
  5587   001A02  6E41               	movwf	___fladd@b^(0+1280),c
  5588   001A04  0E00               	movlw	0
  5589   001A06  6E42               	movwf	(___fladd@b+1)^(0+1280),c
  5590   001A08  0E00               	movlw	0
  5591   001A0A  6E43               	movwf	(___fladd@b+2)^(0+1280),c
  5592   001A0C  0E00               	movlw	0
  5593   001A0E  6E44               	movwf	(___fladd@b+3)^(0+1280),c
  5594   001A10  C54E  F54F         	movff	___fladd@aexp,___fladd@bexp
  5595   001A14  EF32  F00D         	goto	l1132
  5596   001A18                     l1134:
  5597   001A18  A050               	btfss	___fladd@grs^(0+1280),0,c
  5598   001A1A  EF11  F00D         	goto	u1771
  5599   001A1E  EF13  F00D         	goto	u1770
  5600   001A22                     u1771:
  5601   001A22  EF19  F00D         	goto	l2608
  5602   001A26                     u1770:
  5603   001A26  90D8               	bcf	status,0,c
  5604   001A28  3050               	rrcf	___fladd@grs^(0+1280),w,c
  5605   001A2A  0901               	iorlw	1
  5606   001A2C  6E50               	movwf	___fladd@grs^(0+1280),c
  5607   001A2E  EF1B  F00D         	goto	l2610
  5608   001A32                     l2608:
  5609   001A32  90D8               	bcf	status,0,c
  5610   001A34  3250               	rrcf	___fladd@grs^(0+1280),f,c
  5611   001A36                     l2610:
  5612   001A36  A041               	btfss	___fladd@b^(0+1280),0,c
  5613   001A38  EF20  F00D         	goto	u1781
  5614   001A3C  EF22  F00D         	goto	u1780
  5615   001A40                     u1781:
  5616   001A40  EF23  F00D         	goto	l2614
  5617   001A44                     u1780:
  5618   001A44  8E50               	bsf	___fladd@grs^(0+1280),7,c
  5619   001A46                     l2614:
  5620   001A46  3444               	rlcf	(___fladd@b+3)^(0+1280),w,c
  5621   001A48  3244               	rrcf	(___fladd@b+3)^(0+1280),f,c
  5622   001A4A  3243               	rrcf	(___fladd@b+2)^(0+1280),f,c
  5623   001A4C  3242               	rrcf	(___fladd@b+1)^(0+1280),f,c
  5624   001A4E  3241               	rrcf	___fladd@b^(0+1280),f,c
  5625   001A50  2A4F               	incf	___fladd@bexp^(0+1280),f,c
  5626   001A52                     l1133:
  5627   001A52  504E               	movf	___fladd@aexp^(0+1280),w,c
  5628   001A54  5C4F               	subwf	___fladd@bexp^(0+1280),w,c
  5629   001A56  A0D8               	btfss	status,0,c
  5630   001A58  EF30  F00D         	goto	u1791
  5631   001A5C  EF32  F00D         	goto	u1790
  5632   001A60                     u1791:
  5633   001A60  EF0C  F00D         	goto	l1134
  5634   001A64                     u1790:
  5635   001A64                     l1132:
  5636   001A64  BC4D               	btfsc	___fladd@signs^(0+1280),6,c
  5637   001A66  EF37  F00D         	goto	u1801
  5638   001A6A  EF39  F00D         	goto	u1800
  5639   001A6E                     u1801:
  5640   001A6E  EF79  F00D         	goto	l2642
  5641   001A72                     u1800:
  5642   001A72  504F               	movf	___fladd@bexp^(0+1280),w,c
  5643   001A74  A4D8               	btfss	status,2,c
  5644   001A76  EF3F  F00D         	goto	u1811
  5645   001A7A  EF41  F00D         	goto	u1810
  5646   001A7E                     u1811:
  5647   001A7E  EF4B  F00D         	goto	l2624
  5648   001A82                     u1810:
  5649   001A82  0E00               	movlw	0
  5650   001A84  6E41               	movwf	?___fladd^(0+1280),c
  5651   001A86  0E00               	movlw	0
  5652   001A88  6E42               	movwf	(?___fladd+1)^(0+1280),c
  5653   001A8A  0E00               	movlw	0
  5654   001A8C  6E43               	movwf	(?___fladd+2)^(0+1280),c
  5655   001A8E  0E00               	movlw	0
  5656   001A90  6E44               	movwf	(?___fladd+3)^(0+1280),c
  5657   001A92  EF9A  F00E         	goto	l1141
  5658   001A96                     l2624:
  5659   001A96  5045               	movf	___fladd@a^(0+1280),w,c
  5660   001A98  2641               	addwf	___fladd@b^(0+1280),f,c
  5661   001A9A  5046               	movf	(___fladd@a+1)^(0+1280),w,c
  5662   001A9C  2242               	addwfc	(___fladd@b+1)^(0+1280),f,c
  5663   001A9E  5047               	movf	(___fladd@a+2)^(0+1280),w,c
  5664   001AA0  2243               	addwfc	(___fladd@b+2)^(0+1280),f,c
  5665   001AA2  5048               	movf	(___fladd@a+3)^(0+1280),w,c
  5666   001AA4  2244               	addwfc	(___fladd@b+3)^(0+1280),f,c
  5667   001AA6  A044               	btfss	(___fladd@b+3)^(0+1280),0,c
  5668   001AA8  EF58  F00D         	goto	u1821
  5669   001AAC  EF5A  F00D         	goto	u1820
  5670   001AB0                     u1821:
  5671   001AB0  EF06  F00E         	goto	l2678
  5672   001AB4                     u1820:
  5673   001AB4  A050               	btfss	___fladd@grs^(0+1280),0,c
  5674   001AB6  EF5F  F00D         	goto	u1831
  5675   001ABA  EF61  F00D         	goto	u1830
  5676   001ABE                     u1831:
  5677   001ABE  EF67  F00D         	goto	l2632
  5678   001AC2                     u1830:
  5679   001AC2  90D8               	bcf	status,0,c
  5680   001AC4  3050               	rrcf	___fladd@grs^(0+1280),w,c
  5681   001AC6  0901               	iorlw	1
  5682   001AC8  6E50               	movwf	___fladd@grs^(0+1280),c
  5683   001ACA  EF69  F00D         	goto	l2634
  5684   001ACE                     l2632:
  5685   001ACE  90D8               	bcf	status,0,c
  5686   001AD0  3250               	rrcf	___fladd@grs^(0+1280),f,c
  5687   001AD2                     l2634:
  5688   001AD2  A041               	btfss	___fladd@b^(0+1280),0,c
  5689   001AD4  EF6E  F00D         	goto	u1841
  5690   001AD8  EF70  F00D         	goto	u1840
  5691   001ADC                     u1841:
  5692   001ADC  EF71  F00D         	goto	l2638
  5693   001AE0                     u1840:
  5694   001AE0  8E50               	bsf	___fladd@grs^(0+1280),7,c
  5695   001AE2                     l2638:
  5696   001AE2  3444               	rlcf	(___fladd@b+3)^(0+1280),w,c
  5697   001AE4  3244               	rrcf	(___fladd@b+3)^(0+1280),f,c
  5698   001AE6  3243               	rrcf	(___fladd@b+2)^(0+1280),f,c
  5699   001AE8  3242               	rrcf	(___fladd@b+1)^(0+1280),f,c
  5700   001AEA  3241               	rrcf	___fladd@b^(0+1280),f,c
  5701   001AEC  2A4F               	incf	___fladd@bexp^(0+1280),f,c
  5702   001AEE  EF06  F00E         	goto	l2678
  5703   001AF2                     l2642:
  5704   001AF2  5045               	movf	___fladd@a^(0+1280),w,c
  5705   001AF4  5C41               	subwf	___fladd@b^(0+1280),w,c
  5706   001AF6  5046               	movf	(___fladd@a+1)^(0+1280),w,c
  5707   001AF8  5842               	subwfb	(___fladd@b+1)^(0+1280),w,c
  5708   001AFA  5047               	movf	(___fladd@a+2)^(0+1280),w,c
  5709   001AFC  5843               	subwfb	(___fladd@b+2)^(0+1280),w,c
  5710   001AFE  5044               	movf	(___fladd@b+3)^(0+1280),w,c
  5711   001B00  0A80               	xorlw	128
  5712   001B02  6E49               	movwf	??___fladd^(0+1280),c
  5713   001B04  5048               	movf	(___fladd@a+3)^(0+1280),w,c
  5714   001B06  0A80               	xorlw	128
  5715   001B08  5849               	subwfb	??___fladd^(0+1280),w,c
  5716   001B0A  B0D8               	btfsc	status,0,c
  5717   001B0C  EF8A  F00D         	goto	u1851
  5718   001B10  EF8C  F00D         	goto	u1850
  5719   001B14                     u1851:
  5720   001B14  EFB7  F00D         	goto	l2652
  5721   001B18                     u1850:
  5722   001B18  5041               	movf	___fladd@b^(0+1280),w,c
  5723   001B1A  5C45               	subwf	___fladd@a^(0+1280),w,c
  5724   001B1C  6E49               	movwf	??___fladd^(0+1280),c
  5725   001B1E  5042               	movf	(___fladd@b+1)^(0+1280),w,c
  5726   001B20  5846               	subwfb	(___fladd@a+1)^(0+1280),w,c
  5727   001B22  6E4A               	movwf	(??___fladd+1)^(0+1280),c
  5728   001B24  5043               	movf	(___fladd@b+2)^(0+1280),w,c
  5729   001B26  5847               	subwfb	(___fladd@a+2)^(0+1280),w,c
  5730   001B28  6E4B               	movwf	(??___fladd+2)^(0+1280),c
  5731   001B2A  5044               	movf	(___fladd@b+3)^(0+1280),w,c
  5732   001B2C  5848               	subwfb	(___fladd@a+3)^(0+1280),w,c
  5733   001B2E  6E4C               	movwf	(??___fladd+3)^(0+1280),c
  5734   001B30  0EFF               	movlw	255
  5735   001B32  2449               	addwf	??___fladd^(0+1280),w,c
  5736   001B34  6E41               	movwf	___fladd@b^(0+1280),c
  5737   001B36  0EFF               	movlw	255
  5738   001B38  204A               	addwfc	(??___fladd+1)^(0+1280),w,c
  5739   001B3A  6E42               	movwf	(___fladd@b+1)^(0+1280),c
  5740   001B3C  0EFF               	movlw	255
  5741   001B3E  204B               	addwfc	(??___fladd+2)^(0+1280),w,c
  5742   001B40  6E43               	movwf	(___fladd@b+2)^(0+1280),c
  5743   001B42  0EFF               	movlw	255
  5744   001B44  204C               	addwfc	(??___fladd+3)^(0+1280),w,c
  5745   001B46  6E44               	movwf	(___fladd@b+3)^(0+1280),c
  5746   001B48  0E80               	movlw	128
  5747   001B4A  1A4D               	xorwf	___fladd@signs^(0+1280),f,c
  5748   001B4C  6C50               	negf	___fladd@grs^(0+1280),c
  5749   001B4E  5050               	movf	___fladd@grs^(0+1280),w,c
  5750   001B50  A4D8               	btfss	status,2,c
  5751   001B52  EFAD  F00D         	goto	u1861
  5752   001B56  EFAF  F00D         	goto	u1860
  5753   001B5A                     u1861:
  5754   001B5A  EFBF  F00D         	goto	l1149
  5755   001B5E                     u1860:
  5756   001B5E  0E01               	movlw	1
  5757   001B60  2641               	addwf	___fladd@b^(0+1280),f,c
  5758   001B62  0E00               	movlw	0
  5759   001B64  2242               	addwfc	(___fladd@b+1)^(0+1280),f,c
  5760   001B66  2243               	addwfc	(___fladd@b+2)^(0+1280),f,c
  5761   001B68  2244               	addwfc	(___fladd@b+3)^(0+1280),f,c
  5762   001B6A  EFBF  F00D         	goto	l1149
  5763   001B6E                     l2652:
  5764   001B6E  5045               	movf	___fladd@a^(0+1280),w,c
  5765   001B70  5E41               	subwf	___fladd@b^(0+1280),f,c
  5766   001B72  5046               	movf	(___fladd@a+1)^(0+1280),w,c
  5767   001B74  5A42               	subwfb	(___fladd@b+1)^(0+1280),f,c
  5768   001B76  5047               	movf	(___fladd@a+2)^(0+1280),w,c
  5769   001B78  5A43               	subwfb	(___fladd@b+2)^(0+1280),f,c
  5770   001B7A  5048               	movf	(___fladd@a+3)^(0+1280),w,c
  5771   001B7C  5A44               	subwfb	(___fladd@b+3)^(0+1280),f,c
  5772   001B7E                     l1149:
  5773   001B7E  5041               	movf	___fladd@b^(0+1280),w,c
  5774   001B80  1042               	iorwf	(___fladd@b+1)^(0+1280),w,c
  5775   001B82  1043               	iorwf	(___fladd@b+2)^(0+1280),w,c
  5776   001B84  1044               	iorwf	(___fladd@b+3)^(0+1280),w,c
  5777   001B86  A4D8               	btfss	status,2,c
  5778   001B88  EFC8  F00D         	goto	u1871
  5779   001B8C  EFCA  F00D         	goto	u1870
  5780   001B90                     u1871:
  5781   001B90  EFFF  F00D         	goto	l2676
  5782   001B94                     u1870:
  5783   001B94  5050               	movf	___fladd@grs^(0+1280),w,c
  5784   001B96  A4D8               	btfss	status,2,c
  5785   001B98  EFD0  F00D         	goto	u1881
  5786   001B9C  EFD2  F00D         	goto	u1880
  5787   001BA0                     u1881:
  5788   001BA0  EFFF  F00D         	goto	l2676
  5789   001BA4                     u1880:
  5790   001BA4  0E00               	movlw	0
  5791   001BA6  6E41               	movwf	?___fladd^(0+1280),c
  5792   001BA8  0E00               	movlw	0
  5793   001BAA  6E42               	movwf	(?___fladd+1)^(0+1280),c
  5794   001BAC  0E00               	movlw	0
  5795   001BAE  6E43               	movwf	(?___fladd+2)^(0+1280),c
  5796   001BB0  0E00               	movlw	0
  5797   001BB2  6E44               	movwf	(?___fladd+3)^(0+1280),c
  5798   001BB4  EF9A  F00E         	goto	l1141
  5799   001BB8                     l2660:
  5800   001BB8  90D8               	bcf	status,0,c
  5801   001BBA  3641               	rlcf	___fladd@b^(0+1280),f,c
  5802   001BBC  3642               	rlcf	(___fladd@b+1)^(0+1280),f,c
  5803   001BBE  3643               	rlcf	(___fladd@b+2)^(0+1280),f,c
  5804   001BC0  3644               	rlcf	(___fladd@b+3)^(0+1280),f,c
  5805   001BC2  AE50               	btfss	___fladd@grs^(0+1280),7,c
  5806   001BC4  EFE6  F00D         	goto	u1891
  5807   001BC8  EFE8  F00D         	goto	u1890
  5808   001BCC                     u1891:
  5809   001BCC  EFE9  F00D         	goto	l2666
  5810   001BD0                     u1890:
  5811   001BD0  8041               	bsf	___fladd@b^(0+1280),0,c
  5812   001BD2                     l2666:
  5813   001BD2  A050               	btfss	___fladd@grs^(0+1280),0,c
  5814   001BD4  EFEE  F00D         	goto	u1901
  5815   001BD8  EFF0  F00D         	goto	u1900
  5816   001BDC                     u1901:
  5817   001BDC  EFF4  F00D         	goto	l2670
  5818   001BE0                     u1900:
  5819   001BE0  80D8               	bsf	status,0,c
  5820   001BE2  3650               	rlcf	___fladd@grs^(0+1280),f,c
  5821   001BE4  EFF6  F00D         	goto	l2672
  5822   001BE8                     l2670:
  5823   001BE8  90D8               	bcf	status,0,c
  5824   001BEA  3650               	rlcf	___fladd@grs^(0+1280),f,c
  5825   001BEC                     l2672:
  5826   001BEC  504F               	movf	___fladd@bexp^(0+1280),w,c
  5827   001BEE  B4D8               	btfsc	status,2,c
  5828   001BF0  EFFC  F00D         	goto	u1911
  5829   001BF4  EFFE  F00D         	goto	u1910
  5830   001BF8                     u1911:
  5831   001BF8  EFFF  F00D         	goto	l2676
  5832   001BFC                     u1910:
  5833   001BFC  064F               	decf	___fladd@bexp^(0+1280),f,c
  5834   001BFE                     l2676:
  5835   001BFE  AE43               	btfss	(___fladd@b+2)^(0+1280),7,c
  5836   001C00  EF04  F00E         	goto	u1921
  5837   001C04  EF06  F00E         	goto	u1920
  5838   001C08                     u1921:
  5839   001C08  EFDC  F00D         	goto	l2660
  5840   001C0C                     u1920:
  5841   001C0C                     l2678:
  5842   001C0C  0E00               	movlw	0
  5843   001C0E  6E4E               	movwf	___fladd@aexp^(0+1280),c
  5844   001C10  AE50               	btfss	___fladd@grs^(0+1280),7,c
  5845   001C12  EF0D  F00E         	goto	u1931
  5846   001C16  EF0F  F00E         	goto	u1930
  5847   001C1A                     u1931:
  5848   001C1A  EF27  F00E         	goto	l1158
  5849   001C1E                     u1930:
  5850   001C1E  C550  F549         	movff	___fladd@grs,??___fladd
  5851   001C22  0E7F               	movlw	127
  5852   001C24  1649               	andwf	??___fladd^(0+1280),f,c
  5853   001C26  B4D8               	btfsc	status,2,c
  5854   001C28  EF18  F00E         	goto	u1941
  5855   001C2C  EF1A  F00E         	goto	u1940
  5856   001C30                     u1941:
  5857   001C30  EF1E  F00E         	goto	l1159
  5858   001C34                     u1940:
  5859   001C34                     l2684:
  5860   001C34  0E01               	movlw	1
  5861   001C36  6E4E               	movwf	___fladd@aexp^(0+1280),c
  5862   001C38  EF27  F00E         	goto	l1158
  5863   001C3C                     l1159:
  5864   001C3C  A041               	btfss	___fladd@b^(0+1280),0,c
  5865   001C3E  EF23  F00E         	goto	u1951
  5866   001C42  EF25  F00E         	goto	u1950
  5867   001C46                     u1951:
  5868   001C46  EF27  F00E         	goto	l1158
  5869   001C4A                     u1950:
  5870   001C4A  EF1A  F00E         	goto	l2684
  5871   001C4E                     l1158:
  5872   001C4E  504E               	movf	___fladd@aexp^(0+1280),w,c
  5873   001C50  B4D8               	btfsc	status,2,c
  5874   001C52  EF2D  F00E         	goto	u1961
  5875   001C56  EF2F  F00E         	goto	u1960
  5876   001C5A                     u1961:
  5877   001C5A  EF5A  F00E         	goto	l2696
  5878   001C5E                     u1960:
  5879   001C5E  0E01               	movlw	1
  5880   001C60  2641               	addwf	___fladd@b^(0+1280),f,c
  5881   001C62  0E00               	movlw	0
  5882   001C64  2242               	addwfc	(___fladd@b+1)^(0+1280),f,c
  5883   001C66  2243               	addwfc	(___fladd@b+2)^(0+1280),f,c
  5884   001C68  2244               	addwfc	(___fladd@b+3)^(0+1280),f,c
  5885   001C6A  A044               	btfss	(___fladd@b+3)^(0+1280),0,c
  5886   001C6C  EF3A  F00E         	goto	u1971
  5887   001C70  EF3C  F00E         	goto	u1970
  5888   001C74                     u1971:
  5889   001C74  EF5A  F00E         	goto	l2696
  5890   001C78                     u1970:
  5891   001C78  C541  F549         	movff	___fladd@b,??___fladd
  5892   001C7C  C542  F54A         	movff	___fladd@b+1,??___fladd+1
  5893   001C80  C543  F54B         	movff	___fladd@b+2,??___fladd+2
  5894   001C84  C544  F54C         	movff	___fladd@b+3,??___fladd+3
  5895   001C88  344C               	rlcf	(??___fladd+3)^(0+1280),w,c
  5896   001C8A  324C               	rrcf	(??___fladd+3)^(0+1280),f,c
  5897   001C8C  324B               	rrcf	(??___fladd+2)^(0+1280),f,c
  5898   001C8E  324A               	rrcf	(??___fladd+1)^(0+1280),f,c
  5899   001C90  3249               	rrcf	??___fladd^(0+1280),f,c
  5900   001C92  C549  F541         	movff	??___fladd,___fladd@b
  5901   001C96  C54A  F542         	movff	??___fladd+1,___fladd@b+1
  5902   001C9A  C54B  F543         	movff	??___fladd+2,___fladd@b+2
  5903   001C9E  C54C  F544         	movff	??___fladd+3,___fladd@b+3
  5904   001CA2  284F               	incf	___fladd@bexp^(0+1280),w,c
  5905   001CA4  B4D8               	btfsc	status,2,c
  5906   001CA6  EF57  F00E         	goto	u1981
  5907   001CAA  EF59  F00E         	goto	u1980
  5908   001CAE                     u1981:
  5909   001CAE  EF5A  F00E         	goto	l2696
  5910   001CB2                     u1980:
  5911   001CB2  2A4F               	incf	___fladd@bexp^(0+1280),f,c
  5912   001CB4                     l2696:
  5913   001CB4  284F               	incf	___fladd@bexp^(0+1280),w,c
  5914   001CB6  B4D8               	btfsc	status,2,c
  5915   001CB8  EF60  F00E         	goto	u1991
  5916   001CBC  EF62  F00E         	goto	u1990
  5917   001CC0                     u1991:
  5918   001CC0  EF6A  F00E         	goto	l2700
  5919   001CC4                     u1990:
  5920   001CC4  504F               	movf	___fladd@bexp^(0+1280),w,c
  5921   001CC6  A4D8               	btfss	status,2,c
  5922   001CC8  EF68  F00E         	goto	u2001
  5923   001CCC  EF6A  F00E         	goto	u2000
  5924   001CD0                     u2001:
  5925   001CD0  EF7C  F00E         	goto	l2704
  5926   001CD4                     u2000:
  5927   001CD4                     l2700:
  5928   001CD4  0E00               	movlw	0
  5929   001CD6  6E41               	movwf	___fladd@b^(0+1280),c
  5930   001CD8  0E00               	movlw	0
  5931   001CDA  6E42               	movwf	(___fladd@b+1)^(0+1280),c
  5932   001CDC  0E00               	movlw	0
  5933   001CDE  6E43               	movwf	(___fladd@b+2)^(0+1280),c
  5934   001CE0  0E00               	movlw	0
  5935   001CE2  6E44               	movwf	(___fladd@b+3)^(0+1280),c
  5936   001CE4  504F               	movf	___fladd@bexp^(0+1280),w,c
  5937   001CE6  A4D8               	btfss	status,2,c
  5938   001CE8  EF78  F00E         	goto	u2011
  5939   001CEC  EF7A  F00E         	goto	u2010
  5940   001CF0                     u2011:
  5941   001CF0  EF7C  F00E         	goto	l2704
  5942   001CF4                     u2010:
  5943   001CF4  0E00               	movlw	0
  5944   001CF6  6E4D               	movwf	___fladd@signs^(0+1280),c
  5945   001CF8                     l2704:
  5946   001CF8  A04F               	btfss	___fladd@bexp^(0+1280),0,c
  5947   001CFA  EF81  F00E         	goto	u2021
  5948   001CFE  EF83  F00E         	goto	u2020
  5949   001D02                     u2021:
  5950   001D02  EF86  F00E         	goto	l2708
  5951   001D06                     u2020:
  5952   001D06  8E43               	bsf	(___fladd@b+2)^(0+1280),7,c
  5953   001D08  EF87  F00E         	goto	l2710
  5954   001D0C                     l2708:
  5955   001D0C  9E43               	bcf	(___fladd@b+2)^(0+1280),7,c
  5956   001D0E                     l2710:
  5957   001D0E  90D8               	bcf	status,0,c
  5958   001D10  304F               	rrcf	___fladd@bexp^(0+1280),w,c
  5959   001D12  6E44               	movwf	(___fladd@b+3)^(0+1280),c
  5960   001D14  AE4D               	btfss	___fladd@signs^(0+1280),7,c
  5961   001D16  EF8F  F00E         	goto	u2031
  5962   001D1A  EF91  F00E         	goto	u2030
  5963   001D1E                     u2031:
  5964   001D1E  EF92  F00E         	goto	l2716
  5965   001D22                     u2030:
  5966   001D22  8E44               	bsf	(___fladd@b+3)^(0+1280),7,c
  5967   001D24                     l2716:
  5968   001D24  C541  F541         	movff	___fladd@b,?___fladd
  5969   001D28  C542  F542         	movff	___fladd@b+1,?___fladd+1
  5970   001D2C  C543  F543         	movff	___fladd@b+2,?___fladd+2
  5971   001D30  C544  F544         	movff	___fladd@b+3,?___fladd+3
  5972   001D34                     l1141:
  5973   001D34  0012               	return		;funcret
  5974   001D36                     __end_of___fladd:
  5975                           	callstack 0
  5976                           
  5977 ;; *************** function ___fldiv *****************
  5978 ;; Defined at:
  5979 ;;		line 11 in file "S:\XC8C\pic\sources\c99\common\sprcdiv.c"
  5980 ;; Parameters:    Size  Location     Type
  5981 ;;  b               4   39[COMRAM] unsigned char 
  5982 ;;  a               4   43[COMRAM] unsigned char 
  5983 ;; Auto vars:     Size  Location     Type
  5984 ;;  grs             4   58[COMRAM] unsigned long 
  5985 ;;  rem             4   51[COMRAM] unsigned long 
  5986 ;;  new_exp         2   56[COMRAM] short 
  5987 ;;  aexp            1   63[COMRAM] unsigned char 
  5988 ;;  bexp            1   62[COMRAM] unsigned char 
  5989 ;;  sign            1   55[COMRAM] unsigned char 
  5990 ;; Return value:  Size  Location     Type
  5991 ;;                  4   39[COMRAM] unsigned char 
  5992 ;; Registers used:
  5993 ;;		wreg, status,2, status,0
  5994 ;; Tracked objects:
  5995 ;;		On entry : 0/0
  5996 ;;		On exit  : 0/0
  5997 ;;		Unchanged: 0/0
  5998 ;; Data sizes:     COMRAM   BANK5   BANK6   BANK7   BANK8   BANK9  BANK10  BANK11  BANK12
  5999 ;;      Params:         8       0       0       0       0       0       0       0       0
  6000 ;;      Locals:        13       0       0       0       0       0       0       0       0
  6001 ;;      Temps:          4       0       0       0       0       0       0       0       0
  6002 ;;      Totals:        25       0       0       0       0       0       0       0       0
  6003 ;;Total ram usage:       25 bytes
  6004 ;; Hardware stack levels used: 1
  6005 ;; This function calls:
  6006 ;;		Nothing
  6007 ;; This function is called by:
  6008 ;;		_generate_sine_wave
  6009 ;; This function uses a non-reentrant model
  6010 ;;
  6011                           
  6012                           	psect	text13
  6013   00252A                     __ptext13:
  6014                           	callstack 0
  6015   00252A                     ___fldiv:
  6016                           	callstack 125
  6017   00252A  502B               	movf	(___fldiv@b+3)^(0+1280),w,c
  6018   00252C  0B80               	andlw	128
  6019   00252E  6E38               	movwf	___fldiv@sign^(0+1280),c
  6020   002530  502B               	movf	(___fldiv@b+3)^(0+1280),w,c
  6021   002532  242B               	addwf	(___fldiv@b+3)^(0+1280),w,c
  6022   002534  6E3F               	movwf	___fldiv@bexp^(0+1280),c
  6023   002536  AE2A               	btfss	(___fldiv@b+2)^(0+1280),7,c
  6024   002538  EFA0  F012         	goto	u2591
  6025   00253C  EFA2  F012         	goto	u2590
  6026   002540                     u2591:
  6027   002540  EFA3  F012         	goto	l3218
  6028   002544                     u2590:
  6029   002544  803F               	bsf	___fldiv@bexp^(0+1280),0,c
  6030   002546                     l3218:
  6031   002546  503F               	movf	___fldiv@bexp^(0+1280),w,c
  6032   002548  B4D8               	btfsc	status,2,c
  6033   00254A  EFA9  F012         	goto	u2601
  6034   00254E  EFAB  F012         	goto	u2600
  6035   002552                     u2601:
  6036   002552  EFC0  F012         	goto	l3228
  6037   002556                     u2600:
  6038   002556  283F               	incf	___fldiv@bexp^(0+1280),w,c
  6039   002558  A4D8               	btfss	status,2,c
  6040   00255A  EFB1  F012         	goto	u2611
  6041   00255E  EFB3  F012         	goto	u2610
  6042   002562                     u2611:
  6043   002562  EFBB  F012         	goto	l3224
  6044   002566                     u2610:
  6045   002566  0E00               	movlw	0
  6046   002568  6E28               	movwf	___fldiv@b^(0+1280),c
  6047   00256A  0E00               	movlw	0
  6048   00256C  6E29               	movwf	(___fldiv@b+1)^(0+1280),c
  6049   00256E  0E00               	movlw	0
  6050   002570  6E2A               	movwf	(___fldiv@b+2)^(0+1280),c
  6051   002572  0E00               	movlw	0
  6052   002574  6E2B               	movwf	(___fldiv@b+3)^(0+1280),c
  6053   002576                     l3224:
  6054   002576  8E2A               	bsf	(___fldiv@b+2)^(0+1280),7,c
  6055   002578  0E00               	movlw	0
  6056   00257A  6E2B               	movwf	(___fldiv@b+3)^(0+1280),c
  6057   00257C  EFC8  F012         	goto	l3230
  6058   002580                     l3228:
  6059   002580  0E00               	movlw	0
  6060   002582  6E28               	movwf	___fldiv@b^(0+1280),c
  6061   002584  0E00               	movlw	0
  6062   002586  6E29               	movwf	(___fldiv@b+1)^(0+1280),c
  6063   002588  0E00               	movlw	0
  6064   00258A  6E2A               	movwf	(___fldiv@b+2)^(0+1280),c
  6065   00258C  0E00               	movlw	0
  6066   00258E  6E2B               	movwf	(___fldiv@b+3)^(0+1280),c
  6067   002590                     l3230:
  6068   002590  502F               	movf	(___fldiv@a+3)^(0+1280),w,c
  6069   002592  0B80               	andlw	128
  6070   002594  1A38               	xorwf	___fldiv@sign^(0+1280),f,c
  6071   002596  502F               	movf	(___fldiv@a+3)^(0+1280),w,c
  6072   002598  242F               	addwf	(___fldiv@a+3)^(0+1280),w,c
  6073   00259A  6E40               	movwf	___fldiv@aexp^(0+1280),c
  6074   00259C  AE2E               	btfss	(___fldiv@a+2)^(0+1280),7,c
  6075   00259E  EFD3  F012         	goto	u2621
  6076   0025A2  EFD5  F012         	goto	u2620
  6077   0025A6                     u2621:
  6078   0025A6  EFD6  F012         	goto	l3238
  6079   0025AA                     u2620:
  6080   0025AA  8040               	bsf	___fldiv@aexp^(0+1280),0,c
  6081   0025AC                     l3238:
  6082   0025AC  5040               	movf	___fldiv@aexp^(0+1280),w,c
  6083   0025AE  B4D8               	btfsc	status,2,c
  6084   0025B0  EFDC  F012         	goto	u2631
  6085   0025B4  EFDE  F012         	goto	u2630
  6086   0025B8                     u2631:
  6087   0025B8  EFF3  F012         	goto	l3248
  6088   0025BC                     u2630:
  6089   0025BC  2840               	incf	___fldiv@aexp^(0+1280),w,c
  6090   0025BE  A4D8               	btfss	status,2,c
  6091   0025C0  EFE4  F012         	goto	u2641
  6092   0025C4  EFE6  F012         	goto	u2640
  6093   0025C8                     u2641:
  6094   0025C8  EFEE  F012         	goto	l3244
  6095   0025CC                     u2640:
  6096   0025CC  0E00               	movlw	0
  6097   0025CE  6E2C               	movwf	___fldiv@a^(0+1280),c
  6098   0025D0  0E00               	movlw	0
  6099   0025D2  6E2D               	movwf	(___fldiv@a+1)^(0+1280),c
  6100   0025D4  0E00               	movlw	0
  6101   0025D6  6E2E               	movwf	(___fldiv@a+2)^(0+1280),c
  6102   0025D8  0E00               	movlw	0
  6103   0025DA  6E2F               	movwf	(___fldiv@a+3)^(0+1280),c
  6104   0025DC                     l3244:
  6105   0025DC  8E2E               	bsf	(___fldiv@a+2)^(0+1280),7,c
  6106   0025DE  0E00               	movlw	0
  6107   0025E0  6E2F               	movwf	(___fldiv@a+3)^(0+1280),c
  6108   0025E2  EFFB  F012         	goto	l3250
  6109   0025E6                     l3248:
  6110   0025E6  0E00               	movlw	0
  6111   0025E8  6E2C               	movwf	___fldiv@a^(0+1280),c
  6112   0025EA  0E00               	movlw	0
  6113   0025EC  6E2D               	movwf	(___fldiv@a+1)^(0+1280),c
  6114   0025EE  0E00               	movlw	0
  6115   0025F0  6E2E               	movwf	(___fldiv@a+2)^(0+1280),c
  6116   0025F2  0E00               	movlw	0
  6117   0025F4  6E2F               	movwf	(___fldiv@a+3)^(0+1280),c
  6118   0025F6                     l3250:
  6119   0025F6  502C               	movf	___fldiv@a^(0+1280),w,c
  6120   0025F8  102D               	iorwf	(___fldiv@a+1)^(0+1280),w,c
  6121   0025FA  102E               	iorwf	(___fldiv@a+2)^(0+1280),w,c
  6122   0025FC  102F               	iorwf	(___fldiv@a+3)^(0+1280),w,c
  6123   0025FE  A4D8               	btfss	status,2,c
  6124   002600  EF04  F013         	goto	u2651
  6125   002604  EF06  F013         	goto	u2650
  6126   002608                     u2651:
  6127   002608  EF1E  F013         	goto	l3262
  6128   00260C                     u2650:
  6129   00260C  0E00               	movlw	0
  6130   00260E  6E28               	movwf	___fldiv@b^(0+1280),c
  6131   002610  0E00               	movlw	0
  6132   002612  6E29               	movwf	(___fldiv@b+1)^(0+1280),c
  6133   002614  0E00               	movlw	0
  6134   002616  6E2A               	movwf	(___fldiv@b+2)^(0+1280),c
  6135   002618  0E00               	movlw	0
  6136   00261A  6E2B               	movwf	(___fldiv@b+3)^(0+1280),c
  6137   00261C  0E80               	movlw	128
  6138   00261E  122A               	iorwf	(___fldiv@b+2)^(0+1280),f,c
  6139   002620  0E7F               	movlw	127
  6140   002622  122B               	iorwf	(___fldiv@b+3)^(0+1280),f,c
  6141   002624                     l3256:
  6142   002624  5038               	movf	___fldiv@sign^(0+1280),w,c
  6143   002626  122B               	iorwf	(___fldiv@b+3)^(0+1280),f,c
  6144   002628  C528  F528         	movff	___fldiv@b,?___fldiv
  6145   00262C  C529  F529         	movff	___fldiv@b+1,?___fldiv+1
  6146   002630  C52A  F52A         	movff	___fldiv@b+2,?___fldiv+2
  6147   002634  C52B  F52B         	movff	___fldiv@b+3,?___fldiv+3
  6148   002638  EF61  F014         	goto	l1186
  6149   00263C                     l3262:
  6150   00263C  503F               	movf	___fldiv@bexp^(0+1280),w,c
  6151   00263E  A4D8               	btfss	status,2,c
  6152   002640  EF24  F013         	goto	u2661
  6153   002644  EF26  F013         	goto	u2660
  6154   002648                     u2661:
  6155   002648  EF30  F013         	goto	l3270
  6156   00264C                     u2660:
  6157   00264C  0E00               	movlw	0
  6158   00264E  6E28               	movwf	?___fldiv^(0+1280),c
  6159   002650  0E00               	movlw	0
  6160   002652  6E29               	movwf	(?___fldiv+1)^(0+1280),c
  6161   002654  0E00               	movlw	0
  6162   002656  6E2A               	movwf	(?___fldiv+2)^(0+1280),c
  6163   002658  0E00               	movlw	0
  6164   00265A  6E2B               	movwf	(?___fldiv+3)^(0+1280),c
  6165   00265C  EF61  F014         	goto	l1186
  6166   002660                     l3270:
  6167   002660  5040               	movf	___fldiv@aexp^(0+1280),w,c
  6168   002662  C53F  F530         	movff	___fldiv@bexp,??___fldiv
  6169   002666  6A31               	clrf	(??___fldiv+1)^(0+1280),c
  6170   002668  5E30               	subwf	??___fldiv^(0+1280),f,c
  6171   00266A  0E00               	movlw	0
  6172   00266C  5A31               	subwfb	(??___fldiv+1)^(0+1280),f,c
  6173   00266E  0E7F               	movlw	127
  6174   002670  2430               	addwf	??___fldiv^(0+1280),w,c
  6175   002672  6E39               	movwf	___fldiv@new_exp^(0+1280),c
  6176   002674  0E00               	movlw	0
  6177   002676  2031               	addwfc	(??___fldiv+1)^(0+1280),w,c
  6178   002678  6E3A               	movwf	(___fldiv@new_exp+1)^(0+1280),c
  6179   00267A  C528  F534         	movff	___fldiv@b,___fldiv@rem
  6180   00267E  C529  F535         	movff	___fldiv@b+1,___fldiv@rem+1
  6181   002682  C52A  F536         	movff	___fldiv@b+2,___fldiv@rem+2
  6182   002686  C52B  F537         	movff	___fldiv@b+3,___fldiv@rem+3
  6183   00268A  0E00               	movlw	0
  6184   00268C  6E28               	movwf	___fldiv@b^(0+1280),c
  6185   00268E  0E00               	movlw	0
  6186   002690  6E29               	movwf	(___fldiv@b+1)^(0+1280),c
  6187   002692  0E00               	movlw	0
  6188   002694  6E2A               	movwf	(___fldiv@b+2)^(0+1280),c
  6189   002696  0E00               	movlw	0
  6190   002698  6E2B               	movwf	(___fldiv@b+3)^(0+1280),c
  6191   00269A  0E00               	movlw	0
  6192   00269C  6E3B               	movwf	___fldiv@grs^(0+1280),c
  6193   00269E  0E00               	movlw	0
  6194   0026A0  6E3C               	movwf	(___fldiv@grs+1)^(0+1280),c
  6195   0026A2  0E00               	movlw	0
  6196   0026A4  6E3D               	movwf	(___fldiv@grs+2)^(0+1280),c
  6197   0026A6  0E00               	movlw	0
  6198   0026A8  6E3E               	movwf	(___fldiv@grs+3)^(0+1280),c
  6199   0026AA  0E00               	movlw	0
  6200   0026AC  6E40               	movwf	___fldiv@aexp^(0+1280),c
  6201   0026AE  EF91  F013         	goto	l1188
  6202   0026B2                     l3280:
  6203   0026B2  5040               	movf	___fldiv@aexp^(0+1280),w,c
  6204   0026B4  B4D8               	btfsc	status,2,c
  6205   0026B6  EF5F  F013         	goto	u2671
  6206   0026BA  EF61  F013         	goto	u2670
  6207   0026BE                     u2671:
  6208   0026BE  EF78  F013         	goto	l3288
  6209   0026C2                     u2670:
  6210   0026C2  90D8               	bcf	status,0,c
  6211   0026C4  3634               	rlcf	___fldiv@rem^(0+1280),f,c
  6212   0026C6  3635               	rlcf	(___fldiv@rem+1)^(0+1280),f,c
  6213   0026C8  3636               	rlcf	(___fldiv@rem+2)^(0+1280),f,c
  6214   0026CA  3637               	rlcf	(___fldiv@rem+3)^(0+1280),f,c
  6215   0026CC  90D8               	bcf	status,0,c
  6216   0026CE  3628               	rlcf	___fldiv@b^(0+1280),f,c
  6217   0026D0  3629               	rlcf	(___fldiv@b+1)^(0+1280),f,c
  6218   0026D2  362A               	rlcf	(___fldiv@b+2)^(0+1280),f,c
  6219   0026D4  362B               	rlcf	(___fldiv@b+3)^(0+1280),f,c
  6220   0026D6  AE3E               	btfss	(___fldiv@grs+3)^(0+1280),7,c
  6221   0026D8  EF70  F013         	goto	u2681
  6222   0026DC  EF72  F013         	goto	u2680
  6223   0026E0                     u2681:
  6224   0026E0  EF73  F013         	goto	l1191
  6225   0026E4                     u2680:
  6226   0026E4  8028               	bsf	___fldiv@b^(0+1280),0,c
  6227   0026E6                     l1191:
  6228   0026E6  90D8               	bcf	status,0,c
  6229   0026E8  363B               	rlcf	___fldiv@grs^(0+1280),f,c
  6230   0026EA  363C               	rlcf	(___fldiv@grs+1)^(0+1280),f,c
  6231   0026EC  363D               	rlcf	(___fldiv@grs+2)^(0+1280),f,c
  6232   0026EE  363E               	rlcf	(___fldiv@grs+3)^(0+1280),f,c
  6233   0026F0                     l3288:
  6234   0026F0  502C               	movf	___fldiv@a^(0+1280),w,c
  6235   0026F2  5C34               	subwf	___fldiv@rem^(0+1280),w,c
  6236   0026F4  502D               	movf	(___fldiv@a+1)^(0+1280),w,c
  6237   0026F6  5835               	subwfb	(___fldiv@rem+1)^(0+1280),w,c
  6238   0026F8  502E               	movf	(___fldiv@a+2)^(0+1280),w,c
  6239   0026FA  5836               	subwfb	(___fldiv@rem+2)^(0+1280),w,c
  6240   0026FC  502F               	movf	(___fldiv@a+3)^(0+1280),w,c
  6241   0026FE  5837               	subwfb	(___fldiv@rem+3)^(0+1280),w,c
  6242   002700  A0D8               	btfss	status,0,c
  6243   002702  EF85  F013         	goto	u2691
  6244   002706  EF87  F013         	goto	u2690
  6245   00270A                     u2691:
  6246   00270A  EF90  F013         	goto	l3294
  6247   00270E                     u2690:
  6248   00270E  8C3E               	bsf	(___fldiv@grs+3)^(0+1280),6,c
  6249   002710  502C               	movf	___fldiv@a^(0+1280),w,c
  6250   002712  5E34               	subwf	___fldiv@rem^(0+1280),f,c
  6251   002714  502D               	movf	(___fldiv@a+1)^(0+1280),w,c
  6252   002716  5A35               	subwfb	(___fldiv@rem+1)^(0+1280),f,c
  6253   002718  502E               	movf	(___fldiv@a+2)^(0+1280),w,c
  6254   00271A  5A36               	subwfb	(___fldiv@rem+2)^(0+1280),f,c
  6255   00271C  502F               	movf	(___fldiv@a+3)^(0+1280),w,c
  6256   00271E  5A37               	subwfb	(___fldiv@rem+3)^(0+1280),f,c
  6257   002720                     l3294:
  6258   002720  2A40               	incf	___fldiv@aexp^(0+1280),f,c
  6259   002722                     l1188:
  6260   002722  0E19               	movlw	25
  6261   002724  6440               	cpfsgt	___fldiv@aexp^(0+1280),c
  6262   002726  EF97  F013         	goto	u2701
  6263   00272A  EF99  F013         	goto	u2700
  6264   00272E                     u2701:
  6265   00272E  EF59  F013         	goto	l3280
  6266   002732                     u2700:
  6267   002732  5034               	movf	___fldiv@rem^(0+1280),w,c
  6268   002734  1035               	iorwf	(___fldiv@rem+1)^(0+1280),w,c
  6269   002736  1036               	iorwf	(___fldiv@rem+2)^(0+1280),w,c
  6270   002738  1037               	iorwf	(___fldiv@rem+3)^(0+1280),w,c
  6271   00273A  B4D8               	btfsc	status,2,c
  6272   00273C  EFA2  F013         	goto	u2711
  6273   002740  EFA4  F013         	goto	u2710
  6274   002744                     u2711:
  6275   002744  EFBC  F013         	goto	l3306
  6276   002748                     u2710:
  6277   002748  803B               	bsf	___fldiv@grs^(0+1280),0,c
  6278   00274A  EFBC  F013         	goto	l3306
  6279   00274E                     l3300:
  6280   00274E  90D8               	bcf	status,0,c
  6281   002750  3628               	rlcf	___fldiv@b^(0+1280),f,c
  6282   002752  3629               	rlcf	(___fldiv@b+1)^(0+1280),f,c
  6283   002754  362A               	rlcf	(___fldiv@b+2)^(0+1280),f,c
  6284   002756  362B               	rlcf	(___fldiv@b+3)^(0+1280),f,c
  6285   002758  AE3E               	btfss	(___fldiv@grs+3)^(0+1280),7,c
  6286   00275A  EFB1  F013         	goto	u2721
  6287   00275E  EFB3  F013         	goto	u2720
  6288   002762                     u2721:
  6289   002762  EFB4  F013         	goto	l1197
  6290   002766                     u2720:
  6291   002766  8028               	bsf	___fldiv@b^(0+1280),0,c
  6292   002768                     l1197:
  6293   002768  90D8               	bcf	status,0,c
  6294   00276A  363B               	rlcf	___fldiv@grs^(0+1280),f,c
  6295   00276C  363C               	rlcf	(___fldiv@grs+1)^(0+1280),f,c
  6296   00276E  363D               	rlcf	(___fldiv@grs+2)^(0+1280),f,c
  6297   002770  363E               	rlcf	(___fldiv@grs+3)^(0+1280),f,c
  6298   002772  0639               	decf	___fldiv@new_exp^(0+1280),f,c
  6299   002774  A0D8               	btfss	status,0,c
  6300   002776  063A               	decf	(___fldiv@new_exp+1)^(0+1280),f,c
  6301   002778                     l3306:
  6302   002778  AE2A               	btfss	(___fldiv@b+2)^(0+1280),7,c
  6303   00277A  EFC1  F013         	goto	u2731
  6304   00277E  EFC3  F013         	goto	u2730
  6305   002782                     u2731:
  6306   002782  EFA7  F013         	goto	l3300
  6307   002786                     u2730:
  6308   002786  0E00               	movlw	0
  6309   002788  6E40               	movwf	___fldiv@aexp^(0+1280),c
  6310   00278A  AE3E               	btfss	(___fldiv@grs+3)^(0+1280),7,c
  6311   00278C  EFCA  F013         	goto	u2741
  6312   002790  EFCC  F013         	goto	u2740
  6313   002794                     u2741:
  6314   002794  EFF0  F013         	goto	l1199
  6315   002798                     u2740:
  6316   002798  0EFF               	movlw	255
  6317   00279A  143B               	andwf	___fldiv@grs^(0+1280),w,c
  6318   00279C  6E30               	movwf	??___fldiv^(0+1280),c
  6319   00279E  0EFF               	movlw	255
  6320   0027A0  143C               	andwf	(___fldiv@grs+1)^(0+1280),w,c
  6321   0027A2  6E31               	movwf	(??___fldiv+1)^(0+1280),c
  6322   0027A4  0EFF               	movlw	255
  6323   0027A6  143D               	andwf	(___fldiv@grs+2)^(0+1280),w,c
  6324   0027A8  6E32               	movwf	(??___fldiv+2)^(0+1280),c
  6325   0027AA  0E7F               	movlw	127
  6326   0027AC  143E               	andwf	(___fldiv@grs+3)^(0+1280),w,c
  6327   0027AE  6E33               	movwf	(??___fldiv+3)^(0+1280),c
  6328   0027B0  5030               	movf	??___fldiv^(0+1280),w,c
  6329   0027B2  1031               	iorwf	(??___fldiv+1)^(0+1280),w,c
  6330   0027B4  1032               	iorwf	(??___fldiv+2)^(0+1280),w,c
  6331   0027B6  1033               	iorwf	(??___fldiv+3)^(0+1280),w,c
  6332   0027B8  B4D8               	btfsc	status,2,c
  6333   0027BA  EFE1  F013         	goto	u2751
  6334   0027BE  EFE3  F013         	goto	u2750
  6335   0027C2                     u2751:
  6336   0027C2  EFE7  F013         	goto	l1200
  6337   0027C6                     u2750:
  6338   0027C6                     l3314:
  6339   0027C6  0E01               	movlw	1
  6340   0027C8  6E40               	movwf	___fldiv@aexp^(0+1280),c
  6341   0027CA  EFF0  F013         	goto	l1199
  6342   0027CE                     l1200:
  6343   0027CE  A028               	btfss	___fldiv@b^(0+1280),0,c
  6344   0027D0  EFEC  F013         	goto	u2761
  6345   0027D4  EFEE  F013         	goto	u2760
  6346   0027D8                     u2761:
  6347   0027D8  EFF0  F013         	goto	l1199
  6348   0027DC                     u2760:
  6349   0027DC  EFE3  F013         	goto	l3314
  6350   0027E0                     l1199:
  6351   0027E0  5040               	movf	___fldiv@aexp^(0+1280),w,c
  6352   0027E2  B4D8               	btfsc	status,2,c
  6353   0027E4  EFF6  F013         	goto	u2771
  6354   0027E8  EFF8  F013         	goto	u2770
  6355   0027EC                     u2771:
  6356   0027EC  EF1C  F014         	goto	l3326
  6357   0027F0                     u2770:
  6358   0027F0  0E01               	movlw	1
  6359   0027F2  2628               	addwf	___fldiv@b^(0+1280),f,c
  6360   0027F4  0E00               	movlw	0
  6361   0027F6  2229               	addwfc	(___fldiv@b+1)^(0+1280),f,c
  6362   0027F8  222A               	addwfc	(___fldiv@b+2)^(0+1280),f,c
  6363   0027FA  222B               	addwfc	(___fldiv@b+3)^(0+1280),f,c
  6364   0027FC  A02B               	btfss	(___fldiv@b+3)^(0+1280),0,c
  6365   0027FE  EF03  F014         	goto	u2781
  6366   002802  EF05  F014         	goto	u2780
  6367   002806                     u2781:
  6368   002806  EF1C  F014         	goto	l3326
  6369   00280A                     u2780:
  6370   00280A  C528  F530         	movff	___fldiv@b,??___fldiv
  6371   00280E  C529  F531         	movff	___fldiv@b+1,??___fldiv+1
  6372   002812  C52A  F532         	movff	___fldiv@b+2,??___fldiv+2
  6373   002816  C52B  F533         	movff	___fldiv@b+3,??___fldiv+3
  6374   00281A  3433               	rlcf	(??___fldiv+3)^(0+1280),w,c
  6375   00281C  3233               	rrcf	(??___fldiv+3)^(0+1280),f,c
  6376   00281E  3232               	rrcf	(??___fldiv+2)^(0+1280),f,c
  6377   002820  3231               	rrcf	(??___fldiv+1)^(0+1280),f,c
  6378   002822  3230               	rrcf	??___fldiv^(0+1280),f,c
  6379   002824  C530  F528         	movff	??___fldiv,___fldiv@b
  6380   002828  C531  F529         	movff	??___fldiv+1,___fldiv@b+1
  6381   00282C  C532  F52A         	movff	??___fldiv+2,___fldiv@b+2
  6382   002830  C533  F52B         	movff	??___fldiv+3,___fldiv@b+3
  6383   002834  4A39               	infsnz	___fldiv@new_exp^(0+1280),f,c
  6384   002836  2A3A               	incf	(___fldiv@new_exp+1)^(0+1280),f,c
  6385   002838                     l3326:
  6386   002838  BE3A               	btfsc	(___fldiv@new_exp+1)^(0+1280),7,c
  6387   00283A  EF27  F014         	goto	u2791
  6388   00283E  503A               	movf	(___fldiv@new_exp+1)^(0+1280),w,c
  6389   002840  E108               	bnz	u2790
  6390   002842  2839               	incf	___fldiv@new_exp^(0+1280),w,c
  6391   002844  A0D8               	btfss	status,0,c
  6392   002846  EF27  F014         	goto	u2791
  6393   00284A  EF29  F014         	goto	u2790
  6394   00284E                     u2791:
  6395   00284E  EF34  F014         	goto	l3330
  6396   002852                     u2790:
  6397   002852  0E00               	movlw	0
  6398   002854  6E3A               	movwf	(___fldiv@new_exp+1)^(0+1280),c
  6399   002856  6839               	setf	___fldiv@new_exp^(0+1280),c
  6400   002858  0E00               	movlw	0
  6401   00285A  6E28               	movwf	___fldiv@b^(0+1280),c
  6402   00285C  0E00               	movlw	0
  6403   00285E  6E29               	movwf	(___fldiv@b+1)^(0+1280),c
  6404   002860  0E00               	movlw	0
  6405   002862  6E2A               	movwf	(___fldiv@b+2)^(0+1280),c
  6406   002864  0E00               	movlw	0
  6407   002866  6E2B               	movwf	(___fldiv@b+3)^(0+1280),c
  6408   002868                     l3330:
  6409   002868  BE3A               	btfsc	(___fldiv@new_exp+1)^(0+1280),7,c
  6410   00286A  EF41  F014         	goto	u2800
  6411   00286E  503A               	movf	(___fldiv@new_exp+1)^(0+1280),w,c
  6412   002870  E106               	bnz	u2801
  6413   002872  0439               	decf	___fldiv@new_exp^(0+1280),w,c
  6414   002874  B0D8               	btfsc	status,0,c
  6415   002876  EF3F  F014         	goto	u2801
  6416   00287A  EF41  F014         	goto	u2800
  6417   00287E                     u2801:
  6418   00287E  EF4F  F014         	goto	l3334
  6419   002882                     u2800:
  6420   002882  0E00               	movlw	0
  6421   002884  6E3A               	movwf	(___fldiv@new_exp+1)^(0+1280),c
  6422   002886  0E00               	movlw	0
  6423   002888  6E39               	movwf	___fldiv@new_exp^(0+1280),c
  6424   00288A  0E00               	movlw	0
  6425   00288C  6E28               	movwf	___fldiv@b^(0+1280),c
  6426   00288E  0E00               	movlw	0
  6427   002890  6E29               	movwf	(___fldiv@b+1)^(0+1280),c
  6428   002892  0E00               	movlw	0
  6429   002894  6E2A               	movwf	(___fldiv@b+2)^(0+1280),c
  6430   002896  0E00               	movlw	0
  6431   002898  6E2B               	movwf	(___fldiv@b+3)^(0+1280),c
  6432   00289A  0E00               	movlw	0
  6433   00289C  6E38               	movwf	___fldiv@sign^(0+1280),c
  6434   00289E                     l3334:
  6435   00289E  C539  F53F         	movff	___fldiv@new_exp,___fldiv@bexp
  6436   0028A2  A03F               	btfss	___fldiv@bexp^(0+1280),0,c
  6437   0028A4  EF56  F014         	goto	u2811
  6438   0028A8  EF58  F014         	goto	u2810
  6439   0028AC                     u2811:
  6440   0028AC  EF5B  F014         	goto	l3340
  6441   0028B0                     u2810:
  6442   0028B0  8E2A               	bsf	(___fldiv@b+2)^(0+1280),7,c
  6443   0028B2  EF5C  F014         	goto	l3342
  6444   0028B6                     l3340:
  6445   0028B6  9E2A               	bcf	(___fldiv@b+2)^(0+1280),7,c
  6446   0028B8                     l3342:
  6447   0028B8  90D8               	bcf	status,0,c
  6448   0028BA  303F               	rrcf	___fldiv@bexp^(0+1280),w,c
  6449   0028BC  6E2B               	movwf	(___fldiv@b+3)^(0+1280),c
  6450   0028BE  EF12  F013         	goto	l3256
  6451   0028C2                     l1186:
  6452   0028C2  0012               	return		;funcret
  6453   0028C4                     __end_of___fldiv:
  6454                           	callstack 0
  6455                           
  6456 ;; *************** function _SYSTEM_Initialize *****************
  6457 ;; Defined at:
  6458 ;;		line 41 in file "mcc_generated_files/system/src/system.c"
  6459 ;; Parameters:    Size  Location     Type
  6460 ;;		None
  6461 ;; Auto vars:     Size  Location     Type
  6462 ;;		None
  6463 ;; Return value:  Size  Location     Type
  6464 ;;                  1    wreg      void 
  6465 ;; Registers used:
  6466 ;;		wreg, status,2, status,0, cstack
  6467 ;; Tracked objects:
  6468 ;;		On entry : 0/0
  6469 ;;		On exit  : 0/0
  6470 ;;		Unchanged: 0/0
  6471 ;; Data sizes:     COMRAM   BANK5   BANK6   BANK7   BANK8   BANK9  BANK10  BANK11  BANK12
  6472 ;;      Params:         0       0       0       0       0       0       0       0       0
  6473 ;;      Locals:         0       0       0       0       0       0       0       0       0
  6474 ;;      Temps:          0       0       0       0       0       0       0       0       0
  6475 ;;      Totals:         0       0       0       0       0       0       0       0       0
  6476 ;;Total ram usage:        0 bytes
  6477 ;; Hardware stack levels used: 1
  6478 ;; Hardware stack levels required when called: 2
  6479 ;; This function calls:
  6480 ;;		_CLOCK_Initialize
  6481 ;;		_DAC1_Initialize
  6482 ;;		_INTERRUPT_Initialize
  6483 ;;		_PIN_MANAGER_Initialize
  6484 ;;		_PWM1_16BIT_Initialize
  6485 ;;		_PWM2_16BIT_Initialize
  6486 ;;		_SPI1_Initialize
  6487 ;; This function is called by:
  6488 ;;		_main
  6489 ;; This function uses a non-reentrant model
  6490 ;;
  6491                           
  6492                           	psect	text14
  6493   003558                     __ptext14:
  6494                           	callstack 0
  6495   003558                     _SYSTEM_Initialize:
  6496                           	callstack 124
  6497   003558                     
  6498                           ;mcc_generated_files/system/src/system.c: 43:     CLOCK_Initialize();
  6499   003558  ECCA  F01A         	call	_CLOCK_Initialize	;wreg free
  6500                           
  6501                           ;mcc_generated_files/system/src/system.c: 44:     PIN_MANAGER_Initialize();
  6502   00355C  EC59  F019         	call	_PIN_MANAGER_Initialize	;wreg free
  6503                           
  6504                           ;mcc_generated_files/system/src/system.c: 45:     DAC1_Initialize();
  6505   003560  ECD8  F01A         	call	_DAC1_Initialize	;wreg free
  6506   003564                     
  6507                           ;mcc_generated_files/system/src/system.c: 46:     PWM1_16BIT_Initialize();
  6508   003564  ECDF  F019         	call	_PWM1_16BIT_Initialize	;wreg free
  6509   003568                     
  6510                           ;mcc_generated_files/system/src/system.c: 47:     PWM2_16BIT_Initialize();
  6511   003568  ECA9  F019         	call	_PWM2_16BIT_Initialize	;wreg free
  6512                           
  6513                           ;mcc_generated_files/system/src/system.c: 48:     SPI1_Initialize();
  6514   00356C  ECBB  F01A         	call	_SPI1_Initialize	;wreg free
  6515   003570                     
  6516                           ;mcc_generated_files/system/src/system.c: 49:     INTERRUPT_Initialize();
  6517   003570  EC92  F01A         	call	_INTERRUPT_Initialize	;wreg free
  6518   003574  0012               	return		;funcret
  6519   003576                     __end_of_SYSTEM_Initialize:
  6520                           	callstack 0
  6521                           
  6522 ;; *************** function _SPI1_Initialize *****************
  6523 ;; Defined at:
  6524 ;;		line 68 in file "mcc_generated_files/spi/src/spi1.c"
  6525 ;; Parameters:    Size  Location     Type
  6526 ;;		None
  6527 ;; Auto vars:     Size  Location     Type
  6528 ;;		None
  6529 ;; Return value:  Size  Location     Type
  6530 ;;                  1    wreg      void 
  6531 ;; Registers used:
  6532 ;;		wreg, status,2
  6533 ;; Tracked objects:
  6534 ;;		On entry : 0/0
  6535 ;;		On exit  : 0/0
  6536 ;;		Unchanged: 0/0
  6537 ;; Data sizes:     COMRAM   BANK5   BANK6   BANK7   BANK8   BANK9  BANK10  BANK11  BANK12
  6538 ;;      Params:         0       0       0       0       0       0       0       0       0
  6539 ;;      Locals:         0       0       0       0       0       0       0       0       0
  6540 ;;      Temps:          0       0       0       0       0       0       0       0       0
  6541 ;;      Totals:         0       0       0       0       0       0       0       0       0
  6542 ;;Total ram usage:        0 bytes
  6543 ;; Hardware stack levels used: 1
  6544 ;; This function calls:
  6545 ;;		Nothing
  6546 ;; This function is called by:
  6547 ;;		_SYSTEM_Initialize
  6548 ;; This function uses a non-reentrant model
  6549 ;;
  6550                           
  6551                           	psect	text15
  6552   003576                     __ptext15:
  6553                           	callstack 0
  6554   003576                     _SPI1_Initialize:
  6555                           	callstack 125
  6556   003576                     
  6557                           ;mcc_generated_files/spi/src/spi1.c: 71:     PIE3bits.SPI1IE = 0U;
  6558   003576  94AB               	bcf	171,2,c	;volatile
  6559                           
  6560                           ;mcc_generated_files/spi/src/spi1.c: 72:     PIE3bits.SPI1TXIE = 0U;
  6561   003578  92AB               	bcf	171,1,c	;volatile
  6562                           
  6563                           ;mcc_generated_files/spi/src/spi1.c: 73:     PIE3bits.SPI1RXIE = 0U;
  6564   00357A  90AB               	bcf	171,0,c	;volatile
  6565   00357C                     
  6566                           ;mcc_generated_files/spi/src/spi1.c: 76:     SPI1CON0 = 0x00U;
  6567   00357C  0E00               	movlw	0
  6568   00357E  0100               	movlb	0	; () banked
  6569   003580  6F84               	movwf	132,b	;volatile
  6570                           
  6571                           ;mcc_generated_files/spi/src/spi1.c: 77:     SPI1CON1 = 0x00U;
  6572   003582  0E00               	movlw	0
  6573   003584  6F85               	movwf	133,b	;volatile
  6574                           
  6575                           ;mcc_generated_files/spi/src/spi1.c: 78:     SPI1CON2 = 0x00U;
  6576   003586  0E00               	movlw	0
  6577   003588  6F86               	movwf	134,b	;volatile
  6578                           
  6579                           ;mcc_generated_files/spi/src/spi1.c: 79:     SPI1BAUD = 0x00U;
  6580   00358A  0E00               	movlw	0
  6581   00358C  6F89               	movwf	137,b	;volatile
  6582                           
  6583                           ;mcc_generated_files/spi/src/spi1.c: 80:     SPI1CLK = 0x00U;
  6584   00358E  0E00               	movlw	0
  6585   003590  6F8C               	movwf	140,b	;volatile
  6586   003592                     
  6587                           ; BSR set to: 0
  6588   003592  0012               	return		;funcret
  6589   003594                     __end_of_SPI1_Initialize:
  6590                           	callstack 0
  6591                           
  6592 ;; *************** function _PWM2_16BIT_Initialize *****************
  6593 ;; Defined at:
  6594 ;;		line 50 in file "mcc_generated_files/pwm/src/pwm2_16bit.c"
  6595 ;; Parameters:    Size  Location     Type
  6596 ;;		None
  6597 ;; Auto vars:     Size  Location     Type
  6598 ;;		None
  6599 ;; Return value:  Size  Location     Type
  6600 ;;                  1    wreg      void 
  6601 ;; Registers used:
  6602 ;;		wreg, status,2, status,0, cstack
  6603 ;; Tracked objects:
  6604 ;;		On entry : 0/0
  6605 ;;		On exit  : 0/0
  6606 ;;		Unchanged: 0/0
  6607 ;; Data sizes:     COMRAM   BANK5   BANK6   BANK7   BANK8   BANK9  BANK10  BANK11  BANK12
  6608 ;;      Params:         0       0       0       0       0       0       0       0       0
  6609 ;;      Locals:         0       0       0       0       0       0       0       0       0
  6610 ;;      Temps:          0       0       0       0       0       0       0       0       0
  6611 ;;      Totals:         0       0       0       0       0       0       0       0       0
  6612 ;;Total ram usage:        0 bytes
  6613 ;; Hardware stack levels used: 1
  6614 ;; Hardware stack levels required when called: 1
  6615 ;; This function calls:
  6616 ;;		_PWM2_16BIT_Period_SetInterruptHandler
  6617 ;;		_PWM2_16BIT_Slice1Output1_SetInterruptHandler
  6618 ;;		_PWM2_16BIT_Slice1Output2_SetInterruptHandler
  6619 ;; This function is called by:
  6620 ;;		_SYSTEM_Initialize
  6621 ;; This function uses a non-reentrant model
  6622 ;;
  6623                           
  6624                           	psect	text16
  6625   003352                     __ptext16:
  6626                           	callstack 0
  6627   003352                     _PWM2_16BIT_Initialize:
  6628                           	callstack 124
  6629   003352                     
  6630                           ;mcc_generated_files/pwm/src/pwm2_16bit.c: 53:     PWM2ERS = 0x0;
  6631   003352  0E00               	movlw	0
  6632   003354  6E6F               	movwf	111,c	;volatile
  6633                           
  6634                           ;mcc_generated_files/pwm/src/pwm2_16bit.c: 56:     PWM2CLK = 0x2;
  6635   003356  0E02               	movlw	2
  6636   003358  6E70               	movwf	112,c	;volatile
  6637                           
  6638                           ;mcc_generated_files/pwm/src/pwm2_16bit.c: 59:     PWM2LDS = 0x0;
  6639   00335A  0E00               	movlw	0
  6640   00335C  6E71               	movwf	113,c	;volatile
  6641   00335E                     
  6642                           ;mcc_generated_files/pwm/src/pwm2_16bit.c: 62:     PWM2PRL = 0xFF;
  6643   00335E  6872               	setf	114,c	;volatile
  6644                           
  6645                           ;mcc_generated_files/pwm/src/pwm2_16bit.c: 65:     PWM2PRH = 0xF9;
  6646   003360  0EF9               	movlw	249
  6647   003362  6E73               	movwf	115,c	;volatile
  6648                           
  6649                           ;mcc_generated_files/pwm/src/pwm2_16bit.c: 68:     PWM2CPRE = 0x0;
  6650   003364  0E00               	movlw	0
  6651   003366  6E74               	movwf	116,c	;volatile
  6652                           
  6653                           ;mcc_generated_files/pwm/src/pwm2_16bit.c: 71:     PWM2PIPOS = 0x0;
  6654   003368  0E00               	movlw	0
  6655   00336A  6E75               	movwf	117,c	;volatile
  6656                           
  6657                           ;mcc_generated_files/pwm/src/pwm2_16bit.c: 74:     PWM2GIR = 0x0;
  6658   00336C  0E00               	movlw	0
  6659   00336E  6E76               	movwf	118,c	;volatile
  6660                           
  6661                           ;mcc_generated_files/pwm/src/pwm2_16bit.c: 77:     PWM2GIE = 0x0;
  6662   003370  0E00               	movlw	0
  6663   003372  6E77               	movwf	119,c	;volatile
  6664                           
  6665                           ;mcc_generated_files/pwm/src/pwm2_16bit.c: 80:     PWM2S1CFG = 0x0;
  6666   003374  0E00               	movlw	0
  6667   003376  6E79               	movwf	121,c	;volatile
  6668                           
  6669                           ;mcc_generated_files/pwm/src/pwm2_16bit.c: 83:     PWM2S1P1L = 0x0;
  6670   003378  0E00               	movlw	0
  6671   00337A  6E7A               	movwf	122,c	;volatile
  6672                           
  6673                           ;mcc_generated_files/pwm/src/pwm2_16bit.c: 86:     PWM2S1P1H = 0x7D;
  6674   00337C  0E7D               	movlw	125
  6675   00337E  6E7B               	movwf	123,c	;volatile
  6676                           
  6677                           ;mcc_generated_files/pwm/src/pwm2_16bit.c: 89:     PWM2S1P2L = 0x0;
  6678   003380  0E00               	movlw	0
  6679   003382  6E7C               	movwf	124,c	;volatile
  6680                           
  6681                           ;mcc_generated_files/pwm/src/pwm2_16bit.c: 92:     PWM2S1P2H = 0x7D;
  6682   003384  0E7D               	movlw	125
  6683   003386  6E7D               	movwf	125,c	;volatile
  6684   003388                     
  6685                           ;mcc_generated_files/pwm/src/pwm2_16bit.c: 95:     PIR5bits.PWM2PIF = 0;
  6686   003388  9CB8               	bcf	184,6,c	;volatile
  6687   00338A                     
  6688                           ;mcc_generated_files/pwm/src/pwm2_16bit.c: 98:     PIR5bits.PWM2IF = 0;
  6689   00338A  9EB8               	bcf	184,7,c	;volatile
  6690   00338C                     
  6691                           ;mcc_generated_files/pwm/src/pwm2_16bit.c: 101:     PWM2GIRbits.S1P1IF = 0;
  6692   00338C  9076               	bcf	118,0,c	;volatile
  6693   00338E                     
  6694                           ;mcc_generated_files/pwm/src/pwm2_16bit.c: 104:     PWM2GIRbits.S1P2IF = 0;
  6695   00338E  9276               	bcf	118,1,c	;volatile
  6696   003390                     
  6697                           ;mcc_generated_files/pwm/src/pwm2_16bit.c: 107:     PIE5bits.PWM2IE = 0;
  6698   003390  9EAD               	bcf	173,7,c	;volatile
  6699   003392                     
  6700                           ;mcc_generated_files/pwm/src/pwm2_16bit.c: 110:     PIE5bits.PWM2PIE = 0;
  6701   003392  9CAD               	bcf	173,6,c	;volatile
  6702   003394                     
  6703                           ;mcc_generated_files/pwm/src/pwm2_16bit.c: 113:     PWM2_16BIT_Slice1Output1_SetInterrup
      +                          tHandler(PWM2_16BIT_Slice1Output1_DefaultInterruptHandler);
  6704   003394  0E00               	movlw	0
  6705   003396  6E01               	movwf	PWM2_16BIT_Slice1Output1_SetInterruptHandler@InterruptHandler^(0+1280),c
  6706   003398  0E00               	movlw	0
  6707   00339A  6E02               	movwf	(PWM2_16BIT_Slice1Output1_SetInterruptHandler@InterruptHandler+1)^(0+1280),c
  6708   00339C  ECE3  F01A         	call	_PWM2_16BIT_Slice1Output1_SetInterruptHandler	;wreg free
  6709   0033A0                     
  6710                           ;mcc_generated_files/pwm/src/pwm2_16bit.c: 114:     PWM2_16BIT_Slice1Output2_SetInterrup
      +                          tHandler(PWM2_16BIT_Slice1Output2_DefaultInterruptHandler);
  6711   0033A0  0E00               	movlw	0
  6712   0033A2  6E01               	movwf	PWM2_16BIT_Slice1Output2_SetInterruptHandler@InterruptHandler^(0+1280),c
  6713   0033A4  0E00               	movlw	0
  6714   0033A6  6E02               	movwf	(PWM2_16BIT_Slice1Output2_SetInterruptHandler@InterruptHandler+1)^(0+1280),c
  6715   0033A8  ECDE  F01A         	call	_PWM2_16BIT_Slice1Output2_SetInterruptHandler	;wreg free
  6716   0033AC                     
  6717                           ;mcc_generated_files/pwm/src/pwm2_16bit.c: 115:     PWM2_16BIT_Period_SetInterruptHandle
      +                          r(PWM2_16BIT_Period_DefaultInterruptHandler);
  6718   0033AC  0E00               	movlw	0
  6719   0033AE  6E01               	movwf	PWM2_16BIT_Period_SetInterruptHandler@InterruptHandler^(0+1280),c
  6720   0033B0  0E00               	movlw	0
  6721   0033B2  6E02               	movwf	(PWM2_16BIT_Period_SetInterruptHandler@InterruptHandler+1)^(0+1280),c
  6722   0033B4  ECE8  F01A         	call	_PWM2_16BIT_Period_SetInterruptHandler	;wreg free
  6723   0033B8                     
  6724                           ;mcc_generated_files/pwm/src/pwm2_16bit.c: 118:     PWM2CON = 0x80;
  6725   0033B8  0E80               	movlw	128
  6726   0033BA  6E78               	movwf	120,c	;volatile
  6727   0033BC  0012               	return		;funcret
  6728   0033BE                     __end_of_PWM2_16BIT_Initialize:
  6729                           	callstack 0
  6730                           
  6731 ;; *************** function _PWM2_16BIT_Slice1Output2_SetInterruptHandler *****************
  6732 ;; Defined at:
  6733 ;;		line 194 in file "mcc_generated_files/pwm/src/pwm2_16bit.c"
  6734 ;; Parameters:    Size  Location     Type
  6735 ;;  InterruptHan    2    0[COMRAM] PTR FTN()void 
  6736 ;;		 -> PWM2_16BIT_Slice1Output2_DefaultInterruptHandler(1), 
  6737 ;; Auto vars:     Size  Location     Type
  6738 ;;		None
  6739 ;; Return value:  Size  Location     Type
  6740 ;;                  1    wreg      void 
  6741 ;; Registers used:
  6742 ;;		wreg, status,2, status,0
  6743 ;; Tracked objects:
  6744 ;;		On entry : 0/0
  6745 ;;		On exit  : 0/0
  6746 ;;		Unchanged: 0/0
  6747 ;; Data sizes:     COMRAM   BANK5   BANK6   BANK7   BANK8   BANK9  BANK10  BANK11  BANK12
  6748 ;;      Params:         2       0       0       0       0       0       0       0       0
  6749 ;;      Locals:         0       0       0       0       0       0       0       0       0
  6750 ;;      Temps:          0       0       0       0       0       0       0       0       0
  6751 ;;      Totals:         2       0       0       0       0       0       0       0       0
  6752 ;;Total ram usage:        2 bytes
  6753 ;; Hardware stack levels used: 1
  6754 ;; This function calls:
  6755 ;;		Nothing
  6756 ;; This function is called by:
  6757 ;;		_PWM2_16BIT_Initialize
  6758 ;; This function uses a non-reentrant model
  6759 ;;
  6760                           
  6761                           	psect	text17
  6762   0035BC                     __ptext17:
  6763                           	callstack 0
  6764   0035BC                     _PWM2_16BIT_Slice1Output2_SetInterruptHandler:
  6765                           	callstack 124
  6766   0035BC                     
  6767                           ;mcc_generated_files/pwm/src/pwm2_16bit.c: 194: void PWM2_16BIT_Slice1Output2_SetInterru
      +                          ptHandler(void (* InterruptHandler)(void));mcc_generated_files/pwm/src/pwm2_16bit.c: 195
      +                          : {;mcc_generated_files/pwm/src/pwm2_16bit.c: 196:     PWM2_16BIT_Slice1Output2_Interrup
      +                          tHandler = InterruptHandler;
  6768   0035BC  C501  F5DD         	movff	PWM2_16BIT_Slice1Output2_SetInterruptHandler@InterruptHandler,_PWM2_16BIT_Slice1O
      +                          utput2_InterruptHandler
  6769   0035C0  C502  F5DE         	movff	PWM2_16BIT_Slice1Output2_SetInterruptHandler@InterruptHandler+1,_PWM2_16BIT_Slice
      +                          1Output2_InterruptHandler+1
  6770   0035C4  0012               	return		;funcret
  6771   0035C6                     __end_of_PWM2_16BIT_Slice1Output2_SetInterruptHandler:
  6772                           	callstack 0
  6773                           
  6774 ;; *************** function _PWM2_16BIT_Slice1Output1_SetInterruptHandler *****************
  6775 ;; Defined at:
  6776 ;;		line 189 in file "mcc_generated_files/pwm/src/pwm2_16bit.c"
  6777 ;; Parameters:    Size  Location     Type
  6778 ;;  InterruptHan    2    0[COMRAM] PTR FTN()void 
  6779 ;;		 -> PWM2_16BIT_Slice1Output1_DefaultInterruptHandler(1), 
  6780 ;; Auto vars:     Size  Location     Type
  6781 ;;		None
  6782 ;; Return value:  Size  Location     Type
  6783 ;;                  1    wreg      void 
  6784 ;; Registers used:
  6785 ;;		wreg, status,2, status,0
  6786 ;; Tracked objects:
  6787 ;;		On entry : 0/0
  6788 ;;		On exit  : 0/0
  6789 ;;		Unchanged: 0/0
  6790 ;; Data sizes:     COMRAM   BANK5   BANK6   BANK7   BANK8   BANK9  BANK10  BANK11  BANK12
  6791 ;;      Params:         2       0       0       0       0       0       0       0       0
  6792 ;;      Locals:         0       0       0       0       0       0       0       0       0
  6793 ;;      Temps:          0       0       0       0       0       0       0       0       0
  6794 ;;      Totals:         2       0       0       0       0       0       0       0       0
  6795 ;;Total ram usage:        2 bytes
  6796 ;; Hardware stack levels used: 1
  6797 ;; This function calls:
  6798 ;;		Nothing
  6799 ;; This function is called by:
  6800 ;;		_PWM2_16BIT_Initialize
  6801 ;; This function uses a non-reentrant model
  6802 ;;
  6803                           
  6804                           	psect	text18
  6805   0035C6                     __ptext18:
  6806                           	callstack 0
  6807   0035C6                     _PWM2_16BIT_Slice1Output1_SetInterruptHandler:
  6808                           	callstack 124
  6809   0035C6                     
  6810                           ;mcc_generated_files/pwm/src/pwm2_16bit.c: 189: void PWM2_16BIT_Slice1Output1_SetInterru
      +                          ptHandler(void (* InterruptHandler)(void));mcc_generated_files/pwm/src/pwm2_16bit.c: 190
      +                          : {;mcc_generated_files/pwm/src/pwm2_16bit.c: 191:     PWM2_16BIT_Slice1Output1_Interrup
      +                          tHandler = InterruptHandler;
  6811   0035C6  C501  F5DF         	movff	PWM2_16BIT_Slice1Output1_SetInterruptHandler@InterruptHandler,_PWM2_16BIT_Slice1O
      +                          utput1_InterruptHandler
  6812   0035CA  C502  F5E0         	movff	PWM2_16BIT_Slice1Output1_SetInterruptHandler@InterruptHandler+1,_PWM2_16BIT_Slice
      +                          1Output1_InterruptHandler+1
  6813   0035CE  0012               	return		;funcret
  6814   0035D0                     __end_of_PWM2_16BIT_Slice1Output1_SetInterruptHandler:
  6815                           	callstack 0
  6816                           
  6817 ;; *************** function _PWM2_16BIT_Period_SetInterruptHandler *****************
  6818 ;; Defined at:
  6819 ;;		line 199 in file "mcc_generated_files/pwm/src/pwm2_16bit.c"
  6820 ;; Parameters:    Size  Location     Type
  6821 ;;  InterruptHan    2    0[COMRAM] PTR FTN()void 
  6822 ;;		 -> PWM2_16BIT_Period_DefaultInterruptHandler(1), 
  6823 ;; Auto vars:     Size  Location     Type
  6824 ;;		None
  6825 ;; Return value:  Size  Location     Type
  6826 ;;                  1    wreg      void 
  6827 ;; Registers used:
  6828 ;;		wreg, status,2, status,0
  6829 ;; Tracked objects:
  6830 ;;		On entry : 0/0
  6831 ;;		On exit  : 0/0
  6832 ;;		Unchanged: 0/0
  6833 ;; Data sizes:     COMRAM   BANK5   BANK6   BANK7   BANK8   BANK9  BANK10  BANK11  BANK12
  6834 ;;      Params:         2       0       0       0       0       0       0       0       0
  6835 ;;      Locals:         0       0       0       0       0       0       0       0       0
  6836 ;;      Temps:          0       0       0       0       0       0       0       0       0
  6837 ;;      Totals:         2       0       0       0       0       0       0       0       0
  6838 ;;Total ram usage:        2 bytes
  6839 ;; Hardware stack levels used: 1
  6840 ;; This function calls:
  6841 ;;		Nothing
  6842 ;; This function is called by:
  6843 ;;		_PWM2_16BIT_Initialize
  6844 ;; This function uses a non-reentrant model
  6845 ;;
  6846                           
  6847                           	psect	text19
  6848   0035D0                     __ptext19:
  6849                           	callstack 0
  6850   0035D0                     _PWM2_16BIT_Period_SetInterruptHandler:
  6851                           	callstack 124
  6852   0035D0                     
  6853                           ;mcc_generated_files/pwm/src/pwm2_16bit.c: 199: void PWM2_16BIT_Period_SetInterruptHandl
      +                          er(void (* InterruptHandler)(void));mcc_generated_files/pwm/src/pwm2_16bit.c: 200: {;mcc
      +                          _generated_files/pwm/src/pwm2_16bit.c: 201:     PWM2_16BIT_Period_InterruptHandler = Int
      +                          erruptHandler;
  6854   0035D0  C501  F5DB         	movff	PWM2_16BIT_Period_SetInterruptHandler@InterruptHandler,_PWM2_16BIT_Period_Interru
      +                          ptHandler
  6855   0035D4  C502  F5DC         	movff	PWM2_16BIT_Period_SetInterruptHandler@InterruptHandler+1,_PWM2_16BIT_Period_Inter
      +                          ruptHandler+1
  6856   0035D8  0012               	return		;funcret
  6857   0035DA                     __end_of_PWM2_16BIT_Period_SetInterruptHandler:
  6858                           	callstack 0
  6859                           
  6860 ;; *************** function _PWM1_16BIT_Initialize *****************
  6861 ;; Defined at:
  6862 ;;		line 50 in file "mcc_generated_files/pwm/src/pwm1_16bit.c"
  6863 ;; Parameters:    Size  Location     Type
  6864 ;;		None
  6865 ;; Auto vars:     Size  Location     Type
  6866 ;;		None
  6867 ;; Return value:  Size  Location     Type
  6868 ;;                  1    wreg      void 
  6869 ;; Registers used:
  6870 ;;		wreg, status,2, status,0, cstack
  6871 ;; Tracked objects:
  6872 ;;		On entry : 0/0
  6873 ;;		On exit  : 0/0
  6874 ;;		Unchanged: 0/0
  6875 ;; Data sizes:     COMRAM   BANK5   BANK6   BANK7   BANK8   BANK9  BANK10  BANK11  BANK12
  6876 ;;      Params:         0       0       0       0       0       0       0       0       0
  6877 ;;      Locals:         0       0       0       0       0       0       0       0       0
  6878 ;;      Temps:          0       0       0       0       0       0       0       0       0
  6879 ;;      Totals:         0       0       0       0       0       0       0       0       0
  6880 ;;Total ram usage:        0 bytes
  6881 ;; Hardware stack levels used: 1
  6882 ;; Hardware stack levels required when called: 1
  6883 ;; This function calls:
  6884 ;;		_PWM1_16BIT_Period_SetInterruptHandler
  6885 ;;		_PWM1_16BIT_Slice1Output1_SetInterruptHandler
  6886 ;;		_PWM1_16BIT_Slice1Output2_SetInterruptHandler
  6887 ;; This function is called by:
  6888 ;;		_SYSTEM_Initialize
  6889 ;; This function uses a non-reentrant model
  6890 ;;
  6891                           
  6892                           	psect	text20
  6893   0033BE                     __ptext20:
  6894                           	callstack 0
  6895   0033BE                     _PWM1_16BIT_Initialize:
  6896                           	callstack 124
  6897   0033BE                     
  6898                           ;mcc_generated_files/pwm/src/pwm1_16bit.c: 53:     PWM1ERS = 0x0;
  6899   0033BE  0E00               	movlw	0
  6900   0033C0  6E60               	movwf	96,c	;volatile
  6901                           
  6902                           ;mcc_generated_files/pwm/src/pwm1_16bit.c: 56:     PWM1CLK = 0x2;
  6903   0033C2  0E02               	movlw	2
  6904   0033C4  6E61               	movwf	97,c	;volatile
  6905                           
  6906                           ;mcc_generated_files/pwm/src/pwm1_16bit.c: 59:     PWM1LDS = 0x0;
  6907   0033C6  0E00               	movlw	0
  6908   0033C8  6E62               	movwf	98,c	;volatile
  6909   0033CA                     
  6910                           ;mcc_generated_files/pwm/src/pwm1_16bit.c: 62:     PWM1PRL = 0xFF;
  6911   0033CA  6863               	setf	99,c	;volatile
  6912                           
  6913                           ;mcc_generated_files/pwm/src/pwm1_16bit.c: 65:     PWM1PRH = 0xF9;
  6914   0033CC  0EF9               	movlw	249
  6915   0033CE  6E64               	movwf	100,c	;volatile
  6916                           
  6917                           ;mcc_generated_files/pwm/src/pwm1_16bit.c: 68:     PWM1CPRE = 0x0;
  6918   0033D0  0E00               	movlw	0
  6919   0033D2  6E65               	movwf	101,c	;volatile
  6920                           
  6921                           ;mcc_generated_files/pwm/src/pwm1_16bit.c: 71:     PWM1PIPOS = 0x0;
  6922   0033D4  0E00               	movlw	0
  6923   0033D6  6E66               	movwf	102,c	;volatile
  6924                           
  6925                           ;mcc_generated_files/pwm/src/pwm1_16bit.c: 74:     PWM1GIR = 0x0;
  6926   0033D8  0E00               	movlw	0
  6927   0033DA  6E67               	movwf	103,c	;volatile
  6928                           
  6929                           ;mcc_generated_files/pwm/src/pwm1_16bit.c: 77:     PWM1GIE = 0x0;
  6930   0033DC  0E00               	movlw	0
  6931   0033DE  6E68               	movwf	104,c	;volatile
  6932                           
  6933                           ;mcc_generated_files/pwm/src/pwm1_16bit.c: 80:     PWM1S1CFG = 0x0;
  6934   0033E0  0E00               	movlw	0
  6935   0033E2  6E6A               	movwf	106,c	;volatile
  6936                           
  6937                           ;mcc_generated_files/pwm/src/pwm1_16bit.c: 83:     PWM1S1P1L = 0x0;
  6938   0033E4  0E00               	movlw	0
  6939   0033E6  6E6B               	movwf	107,c	;volatile
  6940                           
  6941                           ;mcc_generated_files/pwm/src/pwm1_16bit.c: 86:     PWM1S1P1H = 0x7D;
  6942   0033E8  0E7D               	movlw	125
  6943   0033EA  6E6C               	movwf	108,c	;volatile
  6944                           
  6945                           ;mcc_generated_files/pwm/src/pwm1_16bit.c: 89:     PWM1S1P2L = 0x0;
  6946   0033EC  0E00               	movlw	0
  6947   0033EE  6E6D               	movwf	109,c	;volatile
  6948                           
  6949                           ;mcc_generated_files/pwm/src/pwm1_16bit.c: 92:     PWM1S1P2H = 0x7D;
  6950   0033F0  0E7D               	movlw	125
  6951   0033F2  6E6E               	movwf	110,c	;volatile
  6952   0033F4                     
  6953                           ;mcc_generated_files/pwm/src/pwm1_16bit.c: 95:     PIR4bits.PWM1PIF = 0;
  6954   0033F4  9CB7               	bcf	183,6,c	;volatile
  6955   0033F6                     
  6956                           ;mcc_generated_files/pwm/src/pwm1_16bit.c: 98:     PIR4bits.PWM1IF = 0;
  6957   0033F6  9EB7               	bcf	183,7,c	;volatile
  6958   0033F8                     
  6959                           ;mcc_generated_files/pwm/src/pwm1_16bit.c: 101:     PWM1GIRbits.S1P1IF = 0;
  6960   0033F8  9067               	bcf	103,0,c	;volatile
  6961   0033FA                     
  6962                           ;mcc_generated_files/pwm/src/pwm1_16bit.c: 104:     PWM1GIRbits.S1P2IF = 0;
  6963   0033FA  9267               	bcf	103,1,c	;volatile
  6964   0033FC                     
  6965                           ;mcc_generated_files/pwm/src/pwm1_16bit.c: 107:     PIE4bits.PWM1IE = 0;
  6966   0033FC  9EAC               	bcf	172,7,c	;volatile
  6967   0033FE                     
  6968                           ;mcc_generated_files/pwm/src/pwm1_16bit.c: 110:     PIE4bits.PWM1PIE = 0;
  6969   0033FE  9CAC               	bcf	172,6,c	;volatile
  6970   003400                     
  6971                           ;mcc_generated_files/pwm/src/pwm1_16bit.c: 113:     PWM1_16BIT_Slice1Output1_SetInterrup
      +                          tHandler(PWM1_16BIT_Slice1Output1_DefaultInterruptHandler);
  6972   003400  0E00               	movlw	0
  6973   003402  6E01               	movwf	PWM1_16BIT_Slice1Output1_SetInterruptHandler@InterruptHandler^(0+1280),c
  6974   003404  0E00               	movlw	0
  6975   003406  6E02               	movwf	(PWM1_16BIT_Slice1Output1_SetInterruptHandler@InterruptHandler+1)^(0+1280),c
  6976   003408  ECF2  F01A         	call	_PWM1_16BIT_Slice1Output1_SetInterruptHandler	;wreg free
  6977   00340C                     
  6978                           ;mcc_generated_files/pwm/src/pwm1_16bit.c: 114:     PWM1_16BIT_Slice1Output2_SetInterrup
      +                          tHandler(PWM1_16BIT_Slice1Output2_DefaultInterruptHandler);
  6979   00340C  0E00               	movlw	0
  6980   00340E  6E01               	movwf	PWM1_16BIT_Slice1Output2_SetInterruptHandler@InterruptHandler^(0+1280),c
  6981   003410  0E00               	movlw	0
  6982   003412  6E02               	movwf	(PWM1_16BIT_Slice1Output2_SetInterruptHandler@InterruptHandler+1)^(0+1280),c
  6983   003414  ECED  F01A         	call	_PWM1_16BIT_Slice1Output2_SetInterruptHandler	;wreg free
  6984   003418                     
  6985                           ;mcc_generated_files/pwm/src/pwm1_16bit.c: 115:     PWM1_16BIT_Period_SetInterruptHandle
      +                          r(PWM1_16BIT_Period_DefaultInterruptHandler);
  6986   003418  0E00               	movlw	0
  6987   00341A  6E01               	movwf	PWM1_16BIT_Period_SetInterruptHandler@InterruptHandler^(0+1280),c
  6988   00341C  0E00               	movlw	0
  6989   00341E  6E02               	movwf	(PWM1_16BIT_Period_SetInterruptHandler@InterruptHandler+1)^(0+1280),c
  6990   003420  ECF7  F01A         	call	_PWM1_16BIT_Period_SetInterruptHandler	;wreg free
  6991   003424                     
  6992                           ;mcc_generated_files/pwm/src/pwm1_16bit.c: 118:     PWM1CON = 0x80;
  6993   003424  0E80               	movlw	128
  6994   003426  6E69               	movwf	105,c	;volatile
  6995   003428  0012               	return		;funcret
  6996   00342A                     __end_of_PWM1_16BIT_Initialize:
  6997                           	callstack 0
  6998                           
  6999 ;; *************** function _PWM1_16BIT_Slice1Output2_SetInterruptHandler *****************
  7000 ;; Defined at:
  7001 ;;		line 194 in file "mcc_generated_files/pwm/src/pwm1_16bit.c"
  7002 ;; Parameters:    Size  Location     Type
  7003 ;;  InterruptHan    2    0[COMRAM] PTR FTN()void 
  7004 ;;		 -> PWM1_16BIT_Slice1Output2_DefaultInterruptHandler(1), 
  7005 ;; Auto vars:     Size  Location     Type
  7006 ;;		None
  7007 ;; Return value:  Size  Location     Type
  7008 ;;                  1    wreg      void 
  7009 ;; Registers used:
  7010 ;;		wreg, status,2, status,0
  7011 ;; Tracked objects:
  7012 ;;		On entry : 0/0
  7013 ;;		On exit  : 0/0
  7014 ;;		Unchanged: 0/0
  7015 ;; Data sizes:     COMRAM   BANK5   BANK6   BANK7   BANK8   BANK9  BANK10  BANK11  BANK12
  7016 ;;      Params:         2       0       0       0       0       0       0       0       0
  7017 ;;      Locals:         0       0       0       0       0       0       0       0       0
  7018 ;;      Temps:          0       0       0       0       0       0       0       0       0
  7019 ;;      Totals:         2       0       0       0       0       0       0       0       0
  7020 ;;Total ram usage:        2 bytes
  7021 ;; Hardware stack levels used: 1
  7022 ;; This function calls:
  7023 ;;		Nothing
  7024 ;; This function is called by:
  7025 ;;		_PWM1_16BIT_Initialize
  7026 ;; This function uses a non-reentrant model
  7027 ;;
  7028                           
  7029                           	psect	text21
  7030   0035DA                     __ptext21:
  7031                           	callstack 0
  7032   0035DA                     _PWM1_16BIT_Slice1Output2_SetInterruptHandler:
  7033                           	callstack 124
  7034   0035DA                     
  7035                           ;mcc_generated_files/pwm/src/pwm1_16bit.c: 194: void PWM1_16BIT_Slice1Output2_SetInterru
      +                          ptHandler(void (* InterruptHandler)(void));mcc_generated_files/pwm/src/pwm1_16bit.c: 195
      +                          : {;mcc_generated_files/pwm/src/pwm1_16bit.c: 196:     PWM1_16BIT_Slice1Output2_Interrup
      +                          tHandler = InterruptHandler;
  7036   0035DA  C501  F5E3         	movff	PWM1_16BIT_Slice1Output2_SetInterruptHandler@InterruptHandler,_PWM1_16BIT_Slice1O
      +                          utput2_InterruptHandler
  7037   0035DE  C502  F5E4         	movff	PWM1_16BIT_Slice1Output2_SetInterruptHandler@InterruptHandler+1,_PWM1_16BIT_Slice
      +                          1Output2_InterruptHandler+1
  7038   0035E2  0012               	return		;funcret
  7039   0035E4                     __end_of_PWM1_16BIT_Slice1Output2_SetInterruptHandler:
  7040                           	callstack 0
  7041                           
  7042 ;; *************** function _PWM1_16BIT_Slice1Output1_SetInterruptHandler *****************
  7043 ;; Defined at:
  7044 ;;		line 189 in file "mcc_generated_files/pwm/src/pwm1_16bit.c"
  7045 ;; Parameters:    Size  Location     Type
  7046 ;;  InterruptHan    2    0[COMRAM] PTR FTN()void 
  7047 ;;		 -> PWM1_16BIT_Slice1Output1_DefaultInterruptHandler(1), 
  7048 ;; Auto vars:     Size  Location     Type
  7049 ;;		None
  7050 ;; Return value:  Size  Location     Type
  7051 ;;                  1    wreg      void 
  7052 ;; Registers used:
  7053 ;;		wreg, status,2, status,0
  7054 ;; Tracked objects:
  7055 ;;		On entry : 0/0
  7056 ;;		On exit  : 0/0
  7057 ;;		Unchanged: 0/0
  7058 ;; Data sizes:     COMRAM   BANK5   BANK6   BANK7   BANK8   BANK9  BANK10  BANK11  BANK12
  7059 ;;      Params:         2       0       0       0       0       0       0       0       0
  7060 ;;      Locals:         0       0       0       0       0       0       0       0       0
  7061 ;;      Temps:          0       0       0       0       0       0       0       0       0
  7062 ;;      Totals:         2       0       0       0       0       0       0       0       0
  7063 ;;Total ram usage:        2 bytes
  7064 ;; Hardware stack levels used: 1
  7065 ;; This function calls:
  7066 ;;		Nothing
  7067 ;; This function is called by:
  7068 ;;		_PWM1_16BIT_Initialize
  7069 ;; This function uses a non-reentrant model
  7070 ;;
  7071                           
  7072                           	psect	text22
  7073   0035E4                     __ptext22:
  7074                           	callstack 0
  7075   0035E4                     _PWM1_16BIT_Slice1Output1_SetInterruptHandler:
  7076                           	callstack 124
  7077   0035E4                     
  7078                           ;mcc_generated_files/pwm/src/pwm1_16bit.c: 189: void PWM1_16BIT_Slice1Output1_SetInterru
      +                          ptHandler(void (* InterruptHandler)(void));mcc_generated_files/pwm/src/pwm1_16bit.c: 190
      +                          : {;mcc_generated_files/pwm/src/pwm1_16bit.c: 191:     PWM1_16BIT_Slice1Output1_Interrup
      +                          tHandler = InterruptHandler;
  7079   0035E4  C501  F55D         	movff	PWM1_16BIT_Slice1Output1_SetInterruptHandler@InterruptHandler,_PWM1_16BIT_Slice1O
      +                          utput1_InterruptHandler
  7080   0035E8  C502  F55E         	movff	PWM1_16BIT_Slice1Output1_SetInterruptHandler@InterruptHandler+1,_PWM1_16BIT_Slice
      +                          1Output1_InterruptHandler+1
  7081   0035EC  0012               	return		;funcret
  7082   0035EE                     __end_of_PWM1_16BIT_Slice1Output1_SetInterruptHandler:
  7083                           	callstack 0
  7084                           
  7085 ;; *************** function _PWM1_16BIT_Period_SetInterruptHandler *****************
  7086 ;; Defined at:
  7087 ;;		line 199 in file "mcc_generated_files/pwm/src/pwm1_16bit.c"
  7088 ;; Parameters:    Size  Location     Type
  7089 ;;  InterruptHan    2    0[COMRAM] PTR FTN()void 
  7090 ;;		 -> PWM1_16BIT_Period_DefaultInterruptHandler(1), 
  7091 ;; Auto vars:     Size  Location     Type
  7092 ;;		None
  7093 ;; Return value:  Size  Location     Type
  7094 ;;                  1    wreg      void 
  7095 ;; Registers used:
  7096 ;;		wreg, status,2, status,0
  7097 ;; Tracked objects:
  7098 ;;		On entry : 0/0
  7099 ;;		On exit  : 0/0
  7100 ;;		Unchanged: 0/0
  7101 ;; Data sizes:     COMRAM   BANK5   BANK6   BANK7   BANK8   BANK9  BANK10  BANK11  BANK12
  7102 ;;      Params:         2       0       0       0       0       0       0       0       0
  7103 ;;      Locals:         0       0       0       0       0       0       0       0       0
  7104 ;;      Temps:          0       0       0       0       0       0       0       0       0
  7105 ;;      Totals:         2       0       0       0       0       0       0       0       0
  7106 ;;Total ram usage:        2 bytes
  7107 ;; Hardware stack levels used: 1
  7108 ;; This function calls:
  7109 ;;		Nothing
  7110 ;; This function is called by:
  7111 ;;		_PWM1_16BIT_Initialize
  7112 ;; This function uses a non-reentrant model
  7113 ;;
  7114                           
  7115                           	psect	text23
  7116   0035EE                     __ptext23:
  7117                           	callstack 0
  7118   0035EE                     _PWM1_16BIT_Period_SetInterruptHandler:
  7119                           	callstack 124
  7120   0035EE                     
  7121                           ;mcc_generated_files/pwm/src/pwm1_16bit.c: 199: void PWM1_16BIT_Period_SetInterruptHandl
      +                          er(void (* InterruptHandler)(void));mcc_generated_files/pwm/src/pwm1_16bit.c: 200: {;mcc
      +                          _generated_files/pwm/src/pwm1_16bit.c: 201:     PWM1_16BIT_Period_InterruptHandler = Int
      +                          erruptHandler;
  7122   0035EE  C501  F5E1         	movff	PWM1_16BIT_Period_SetInterruptHandler@InterruptHandler,_PWM1_16BIT_Period_Interru
      +                          ptHandler
  7123   0035F2  C502  F5E2         	movff	PWM1_16BIT_Period_SetInterruptHandler@InterruptHandler+1,_PWM1_16BIT_Period_Inter
      +                          ruptHandler+1
  7124   0035F6  0012               	return		;funcret
  7125   0035F8                     __end_of_PWM1_16BIT_Period_SetInterruptHandler:
  7126                           	callstack 0
  7127                           
  7128 ;; *************** function _PIN_MANAGER_Initialize *****************
  7129 ;; Defined at:
  7130 ;;		line 38 in file "mcc_generated_files/system/src/pins.c"
  7131 ;; Parameters:    Size  Location     Type
  7132 ;;		None
  7133 ;; Auto vars:     Size  Location     Type
  7134 ;;		None
  7135 ;; Return value:  Size  Location     Type
  7136 ;;                  1    wreg      void 
  7137 ;; Registers used:
  7138 ;;		wreg, status,2
  7139 ;; Tracked objects:
  7140 ;;		On entry : 0/0
  7141 ;;		On exit  : 0/0
  7142 ;;		Unchanged: 0/0
  7143 ;; Data sizes:     COMRAM   BANK5   BANK6   BANK7   BANK8   BANK9  BANK10  BANK11  BANK12
  7144 ;;      Params:         0       0       0       0       0       0       0       0       0
  7145 ;;      Locals:         0       0       0       0       0       0       0       0       0
  7146 ;;      Temps:          0       0       0       0       0       0       0       0       0
  7147 ;;      Totals:         0       0       0       0       0       0       0       0       0
  7148 ;;Total ram usage:        0 bytes
  7149 ;; Hardware stack levels used: 1
  7150 ;; This function calls:
  7151 ;;		Nothing
  7152 ;; This function is called by:
  7153 ;;		_SYSTEM_Initialize
  7154 ;; This function uses a non-reentrant model
  7155 ;;
  7156                           
  7157                           	psect	text24
  7158   0032B2                     __ptext24:
  7159                           	callstack 0
  7160   0032B2                     _PIN_MANAGER_Initialize:
  7161                           	callstack 125
  7162   0032B2                     
  7163                           ;mcc_generated_files/system/src/pins.c: 43:     LATA = 0x0;
  7164   0032B2  0E00               	movlw	0
  7165   0032B4  6EBE               	movwf	190,c	;volatile
  7166                           
  7167                           ;mcc_generated_files/system/src/pins.c: 44:     LATB = 0x0;
  7168   0032B6  0E00               	movlw	0
  7169   0032B8  6EBF               	movwf	191,c	;volatile
  7170                           
  7171                           ;mcc_generated_files/system/src/pins.c: 45:     LATC = 0x0;
  7172   0032BA  0E00               	movlw	0
  7173   0032BC  6EC0               	movwf	192,c	;volatile
  7174                           
  7175                           ;mcc_generated_files/system/src/pins.c: 49:     ODCONA = 0x0;
  7176   0032BE  0E00               	movlw	0
  7177   0032C0  0104               	movlb	4	; () banked
  7178   0032C2  6F02               	movwf	2,b	;volatile
  7179                           
  7180                           ;mcc_generated_files/system/src/pins.c: 50:     ODCONB = 0x0;
  7181   0032C4  0E00               	movlw	0
  7182   0032C6  6F0A               	movwf	10,b	;volatile
  7183                           
  7184                           ;mcc_generated_files/system/src/pins.c: 51:     ODCONC = 0x0;
  7185   0032C8  0E00               	movlw	0
  7186   0032CA  6F12               	movwf	18,b	;volatile
  7187                           
  7188                           ;mcc_generated_files/system/src/pins.c: 56:     TRISA = 0xB;
  7189   0032CC  0E0B               	movlw	11
  7190   0032CE  6EC6               	movwf	198,c	;volatile
  7191                           
  7192                           ;mcc_generated_files/system/src/pins.c: 57:     TRISB = 0x60;
  7193   0032D0  0E60               	movlw	96
  7194   0032D2  6EC7               	movwf	199,c	;volatile
  7195                           
  7196                           ;mcc_generated_files/system/src/pins.c: 58:     TRISC = 0xDB;
  7197   0032D4  0EDB               	movlw	219
  7198   0032D6  6EC8               	movwf	200,c	;volatile
  7199                           
  7200                           ;mcc_generated_files/system/src/pins.c: 63:     ANSELA = 0x37;
  7201   0032D8  0E37               	movlw	55
  7202   0032DA  6F00               	movwf	0,b	;volatile
  7203                           
  7204                           ;mcc_generated_files/system/src/pins.c: 64:     ANSELB = 0x0;
  7205   0032DC  0E00               	movlw	0
  7206   0032DE  6F08               	movwf	8,b	;volatile
  7207                           
  7208                           ;mcc_generated_files/system/src/pins.c: 65:     ANSELC = 0xF8;
  7209   0032E0  0EF8               	movlw	248
  7210   0032E2  6F10               	movwf	16,b	;volatile
  7211                           
  7212                           ;mcc_generated_files/system/src/pins.c: 70:     WPUA = 0x0;
  7213   0032E4  0E00               	movlw	0
  7214   0032E6  6F01               	movwf	1,b	;volatile
  7215                           
  7216                           ;mcc_generated_files/system/src/pins.c: 71:     WPUB = 0x0;
  7217   0032E8  0E00               	movlw	0
  7218   0032EA  6F09               	movwf	9,b	;volatile
  7219                           
  7220                           ;mcc_generated_files/system/src/pins.c: 72:     WPUC = 0x0;
  7221   0032EC  0E00               	movlw	0
  7222   0032EE  6F11               	movwf	17,b	;volatile
  7223                           
  7224                           ;mcc_generated_files/system/src/pins.c: 78:     SLRCONA = 0x37;
  7225   0032F0  0E37               	movlw	55
  7226   0032F2  6F03               	movwf	3,b	;volatile
  7227                           
  7228                           ;mcc_generated_files/system/src/pins.c: 79:     SLRCONB = 0xF0;
  7229   0032F4  0EF0               	movlw	240
  7230   0032F6  6F0B               	movwf	11,b	;volatile
  7231   0032F8                     
  7232                           ; BSR set to: 4
  7233                           ;mcc_generated_files/system/src/pins.c: 80:     SLRCONC = 0xFF;
  7234   0032F8  6913               	setf	19,b	;volatile
  7235                           
  7236                           ;mcc_generated_files/system/src/pins.c: 85:     INLVLA = 0x3F;
  7237   0032FA  0E3F               	movlw	63
  7238   0032FC  6F04               	movwf	4,b	;volatile
  7239                           
  7240                           ;mcc_generated_files/system/src/pins.c: 86:     INLVLB = 0xF0;
  7241   0032FE  0EF0               	movlw	240
  7242   003300  6F0C               	movwf	12,b	;volatile
  7243   003302                     
  7244                           ; BSR set to: 4
  7245                           ;mcc_generated_files/system/src/pins.c: 87:     INLVLC = 0xFF;
  7246   003302  6914               	setf	20,b	;volatile
  7247                           
  7248                           ;mcc_generated_files/system/src/pins.c: 92:     RB4I2C = 0x0;
  7249   003304  0E00               	movlw	0
  7250   003306  0102               	movlb	2	; () banked
  7251   003308  6F87               	movwf	135,b	;volatile
  7252                           
  7253                           ;mcc_generated_files/system/src/pins.c: 93:     RB6I2C = 0x0;
  7254   00330A  0E00               	movlw	0
  7255   00330C  6F86               	movwf	134,b	;volatile
  7256                           
  7257                           ;mcc_generated_files/system/src/pins.c: 97:     SPI1SDIPPS = 0xE;
  7258   00330E  0E0E               	movlw	14
  7259   003310  6F6B               	movwf	107,b	;volatile
  7260                           
  7261                           ;mcc_generated_files/system/src/pins.c: 98:     RB4PPS = 0x1C;
  7262   003312  0E1C               	movlw	28
  7263   003314  6F0D               	movwf	13,b	;volatile
  7264                           
  7265                           ;mcc_generated_files/system/src/pins.c: 99:     RA4PPS = 0x0C;
  7266   003316  0E0C               	movlw	12
  7267   003318  6F05               	movwf	5,b	;volatile
  7268                           
  7269                           ;mcc_generated_files/system/src/pins.c: 100:     RA5PPS = 0x0D;
  7270   00331A  0E0D               	movlw	13
  7271   00331C  6F06               	movwf	6,b	;volatile
  7272                           
  7273                           ;mcc_generated_files/system/src/pins.c: 101:     RC5PPS = 0x0A;
  7274   00331E  0E0A               	movlw	10
  7275   003320  6F16               	movwf	22,b	;volatile
  7276                           
  7277                           ;mcc_generated_files/system/src/pins.c: 102:     SPI1SCKPPS = 0xD;
  7278   003322  0E0D               	movlw	13
  7279   003324  6F6A               	movwf	106,b	;volatile
  7280                           
  7281                           ;mcc_generated_files/system/src/pins.c: 103:     RB5PPS = 0x1B;
  7282   003326  0E1B               	movlw	27
  7283   003328  6F0E               	movwf	14,b	;volatile
  7284                           
  7285                           ;mcc_generated_files/system/src/pins.c: 108:     IOCAP = 0x0;
  7286   00332A  0E00               	movlw	0
  7287   00332C  0104               	movlb	4	; () banked
  7288   00332E  6F05               	movwf	5,b	;volatile
  7289                           
  7290                           ;mcc_generated_files/system/src/pins.c: 109:     IOCAN = 0x0;
  7291   003330  0E00               	movlw	0
  7292   003332  6F06               	movwf	6,b	;volatile
  7293                           
  7294                           ;mcc_generated_files/system/src/pins.c: 110:     IOCAF = 0x0;
  7295   003334  0E00               	movlw	0
  7296   003336  6F07               	movwf	7,b	;volatile
  7297                           
  7298                           ;mcc_generated_files/system/src/pins.c: 111:     IOCBP = 0x0;
  7299   003338  0E00               	movlw	0
  7300   00333A  6F0D               	movwf	13,b	;volatile
  7301                           
  7302                           ;mcc_generated_files/system/src/pins.c: 112:     IOCBN = 0x0;
  7303   00333C  0E00               	movlw	0
  7304   00333E  6F0E               	movwf	14,b	;volatile
  7305                           
  7306                           ;mcc_generated_files/system/src/pins.c: 113:     IOCBF = 0x0;
  7307   003340  0E00               	movlw	0
  7308   003342  6F0F               	movwf	15,b	;volatile
  7309                           
  7310                           ;mcc_generated_files/system/src/pins.c: 114:     IOCCP = 0x0;
  7311   003344  0E00               	movlw	0
  7312   003346  6F15               	movwf	21,b	;volatile
  7313                           
  7314                           ;mcc_generated_files/system/src/pins.c: 115:     IOCCN = 0x0;
  7315   003348  0E00               	movlw	0
  7316   00334A  6F16               	movwf	22,b	;volatile
  7317                           
  7318                           ;mcc_generated_files/system/src/pins.c: 116:     IOCCF = 0x0;
  7319   00334C  0E00               	movlw	0
  7320   00334E  6F17               	movwf	23,b	;volatile
  7321   003350                     
  7322                           ; BSR set to: 4
  7323   003350  0012               	return		;funcret
  7324   003352                     __end_of_PIN_MANAGER_Initialize:
  7325                           	callstack 0
  7326                           
  7327 ;; *************** function _INTERRUPT_Initialize *****************
  7328 ;; Defined at:
  7329 ;;		line 42 in file "mcc_generated_files/system/src/interrupt.c"
  7330 ;; Parameters:    Size  Location     Type
  7331 ;;		None
  7332 ;; Auto vars:     Size  Location     Type
  7333 ;;		None
  7334 ;; Return value:  Size  Location     Type
  7335 ;;                  1    wreg      void 
  7336 ;; Registers used:
  7337 ;;		wreg, status,2, status,0, cstack
  7338 ;; Tracked objects:
  7339 ;;		On entry : 0/0
  7340 ;;		On exit  : 0/0
  7341 ;;		Unchanged: 0/0
  7342 ;; Data sizes:     COMRAM   BANK5   BANK6   BANK7   BANK8   BANK9  BANK10  BANK11  BANK12
  7343 ;;      Params:         0       0       0       0       0       0       0       0       0
  7344 ;;      Locals:         0       0       0       0       0       0       0       0       0
  7345 ;;      Temps:          0       0       0       0       0       0       0       0       0
  7346 ;;      Totals:         0       0       0       0       0       0       0       0       0
  7347 ;;Total ram usage:        0 bytes
  7348 ;; Hardware stack levels used: 1
  7349 ;; Hardware stack levels required when called: 1
  7350 ;; This function calls:
  7351 ;;		_INT0_SetInterruptHandler
  7352 ;;		_INT1_SetInterruptHandler
  7353 ;;		_INT2_SetInterruptHandler
  7354 ;; This function is called by:
  7355 ;;		_SYSTEM_Initialize
  7356 ;; This function uses a non-reentrant model
  7357 ;;
  7358                           
  7359                           	psect	text25
  7360   003524                     __ptext25:
  7361                           	callstack 0
  7362   003524                     _INTERRUPT_Initialize:
  7363                           	callstack 124
  7364   003524                     
  7365                           ;mcc_generated_files/system/src/interrupt.c: 45:     INTCON0bits.IPEN = 0;
  7366   003524  9AD6               	bcf	214,5,c	;volatile
  7367                           
  7368                           ;mcc_generated_files/system/src/interrupt.c: 49:     (PIR1bits.INT0IF = 0);
  7369   003526  90B4               	bcf	180,0,c	;volatile
  7370                           
  7371                           ;mcc_generated_files/system/src/interrupt.c: 50:     (INTCON0bits.INT0EDG = 1);
  7372   003528  80D6               	bsf	214,0,c	;volatile
  7373   00352A                     
  7374                           ;mcc_generated_files/system/src/interrupt.c: 52:     INT0_SetInterruptHandler(INT0_Defau
      +                          ltInterruptHandler);
  7375   00352A  0E00               	movlw	0
  7376   00352C  6E01               	movwf	INT0_SetInterruptHandler@InterruptHandler^(0+1280),c
  7377   00352E  0E00               	movlw	0
  7378   003530  6E02               	movwf	(INT0_SetInterruptHandler@InterruptHandler+1)^(0+1280),c
  7379   003532  EC06  F01B         	call	_INT0_SetInterruptHandler	;wreg free
  7380   003536                     
  7381                           ;mcc_generated_files/system/src/interrupt.c: 57:     (PIR6bits.INT1IF = 0);
  7382   003536  90B9               	bcf	185,0,c	;volatile
  7383   003538                     
  7384                           ;mcc_generated_files/system/src/interrupt.c: 58:     (INTCON0bits.INT1EDG = 1);
  7385   003538  82D6               	bsf	214,1,c	;volatile
  7386                           
  7387                           ;mcc_generated_files/system/src/interrupt.c: 60:     INT1_SetInterruptHandler(INT1_Defau
      +                          ltInterruptHandler);
  7388   00353A  0E00               	movlw	0
  7389   00353C  6E01               	movwf	INT1_SetInterruptHandler@InterruptHandler^(0+1280),c
  7390   00353E  0E00               	movlw	0
  7391   003540  6E02               	movwf	(INT1_SetInterruptHandler@InterruptHandler+1)^(0+1280),c
  7392   003542  EC01  F01B         	call	_INT1_SetInterruptHandler	;wreg free
  7393   003546                     
  7394                           ;mcc_generated_files/system/src/interrupt.c: 65:     (PIR10bits.INT2IF = 0);
  7395   003546  90BD               	bcf	189,0,c	;volatile
  7396   003548                     
  7397                           ;mcc_generated_files/system/src/interrupt.c: 66:     (INTCON0bits.INT2EDG = 1);
  7398   003548  84D6               	bsf	214,2,c	;volatile
  7399                           
  7400                           ;mcc_generated_files/system/src/interrupt.c: 68:     INT2_SetInterruptHandler(INT2_Defau
      +                          ltInterruptHandler);
  7401   00354A  0E00               	movlw	0
  7402   00354C  6E01               	movwf	INT2_SetInterruptHandler@InterruptHandler^(0+1280),c
  7403   00354E  0E00               	movlw	0
  7404   003550  6E02               	movwf	(INT2_SetInterruptHandler@InterruptHandler+1)^(0+1280),c
  7405   003552  ECFC  F01A         	call	_INT2_SetInterruptHandler	;wreg free
  7406   003556  0012               	return		;funcret
  7407   003558                     __end_of_INTERRUPT_Initialize:
  7408                           	callstack 0
  7409                           
  7410 ;; *************** function _INT2_SetInterruptHandler *****************
  7411 ;; Defined at:
  7412 ;;		line 144 in file "mcc_generated_files/system/src/interrupt.c"
  7413 ;; Parameters:    Size  Location     Type
  7414 ;;  InterruptHan    2    0[COMRAM] PTR FTN()void 
  7415 ;;		 -> INT2_DefaultInterruptHandler(1), 
  7416 ;; Auto vars:     Size  Location     Type
  7417 ;;		None
  7418 ;; Return value:  Size  Location     Type
  7419 ;;                  1    wreg      void 
  7420 ;; Registers used:
  7421 ;;		wreg, status,2, status,0
  7422 ;; Tracked objects:
  7423 ;;		On entry : 0/0
  7424 ;;		On exit  : 0/0
  7425 ;;		Unchanged: 0/0
  7426 ;; Data sizes:     COMRAM   BANK5   BANK6   BANK7   BANK8   BANK9  BANK10  BANK11  BANK12
  7427 ;;      Params:         2       0       0       0       0       0       0       0       0
  7428 ;;      Locals:         0       0       0       0       0       0       0       0       0
  7429 ;;      Temps:          0       0       0       0       0       0       0       0       0
  7430 ;;      Totals:         2       0       0       0       0       0       0       0       0
  7431 ;;Total ram usage:        2 bytes
  7432 ;; Hardware stack levels used: 1
  7433 ;; This function calls:
  7434 ;;		Nothing
  7435 ;; This function is called by:
  7436 ;;		_INTERRUPT_Initialize
  7437 ;; This function uses a non-reentrant model
  7438 ;;
  7439                           
  7440                           	psect	text26
  7441   0035F8                     __ptext26:
  7442                           	callstack 0
  7443   0035F8                     _INT2_SetInterruptHandler:
  7444                           	callstack 124
  7445   0035F8                     
  7446                           ;mcc_generated_files/system/src/interrupt.c: 145:     INT2_InterruptHandler = InterruptH
      +                          andler;
  7447   0035F8  C501  F5D5         	movff	INT2_SetInterruptHandler@InterruptHandler,_INT2_InterruptHandler
  7448   0035FC  C502  F5D6         	movff	INT2_SetInterruptHandler@InterruptHandler+1,_INT2_InterruptHandler+1
  7449   003600  0012               	return		;funcret
  7450   003602                     __end_of_INT2_SetInterruptHandler:
  7451                           	callstack 0
  7452                           
  7453 ;; *************** function _INT1_SetInterruptHandler *****************
  7454 ;; Defined at:
  7455 ;;		line 118 in file "mcc_generated_files/system/src/interrupt.c"
  7456 ;; Parameters:    Size  Location     Type
  7457 ;;  InterruptHan    2    0[COMRAM] PTR FTN()void 
  7458 ;;		 -> INT1_DefaultInterruptHandler(1), 
  7459 ;; Auto vars:     Size  Location     Type
  7460 ;;		None
  7461 ;; Return value:  Size  Location     Type
  7462 ;;                  1    wreg      void 
  7463 ;; Registers used:
  7464 ;;		wreg, status,2, status,0
  7465 ;; Tracked objects:
  7466 ;;		On entry : 0/0
  7467 ;;		On exit  : 0/0
  7468 ;;		Unchanged: 0/0
  7469 ;; Data sizes:     COMRAM   BANK5   BANK6   BANK7   BANK8   BANK9  BANK10  BANK11  BANK12
  7470 ;;      Params:         2       0       0       0       0       0       0       0       0
  7471 ;;      Locals:         0       0       0       0       0       0       0       0       0
  7472 ;;      Temps:          0       0       0       0       0       0       0       0       0
  7473 ;;      Totals:         2       0       0       0       0       0       0       0       0
  7474 ;;Total ram usage:        2 bytes
  7475 ;; Hardware stack levels used: 1
  7476 ;; This function calls:
  7477 ;;		Nothing
  7478 ;; This function is called by:
  7479 ;;		_INTERRUPT_Initialize
  7480 ;; This function uses a non-reentrant model
  7481 ;;
  7482                           
  7483                           	psect	text27
  7484   003602                     __ptext27:
  7485                           	callstack 0
  7486   003602                     _INT1_SetInterruptHandler:
  7487                           	callstack 124
  7488   003602                     
  7489                           ;mcc_generated_files/system/src/interrupt.c: 119:     INT1_InterruptHandler = InterruptH
      +                          andler;
  7490   003602  C501  F5D7         	movff	INT1_SetInterruptHandler@InterruptHandler,_INT1_InterruptHandler
  7491   003606  C502  F5D8         	movff	INT1_SetInterruptHandler@InterruptHandler+1,_INT1_InterruptHandler+1
  7492   00360A  0012               	return		;funcret
  7493   00360C                     __end_of_INT1_SetInterruptHandler:
  7494                           	callstack 0
  7495                           
  7496 ;; *************** function _INT0_SetInterruptHandler *****************
  7497 ;; Defined at:
  7498 ;;		line 92 in file "mcc_generated_files/system/src/interrupt.c"
  7499 ;; Parameters:    Size  Location     Type
  7500 ;;  InterruptHan    2    0[COMRAM] PTR FTN()void 
  7501 ;;		 -> INT0_DefaultInterruptHandler(1), 
  7502 ;; Auto vars:     Size  Location     Type
  7503 ;;		None
  7504 ;; Return value:  Size  Location     Type
  7505 ;;                  1    wreg      void 
  7506 ;; Registers used:
  7507 ;;		wreg, status,2, status,0
  7508 ;; Tracked objects:
  7509 ;;		On entry : 0/0
  7510 ;;		On exit  : 0/0
  7511 ;;		Unchanged: 0/0
  7512 ;; Data sizes:     COMRAM   BANK5   BANK6   BANK7   BANK8   BANK9  BANK10  BANK11  BANK12
  7513 ;;      Params:         2       0       0       0       0       0       0       0       0
  7514 ;;      Locals:         0       0       0       0       0       0       0       0       0
  7515 ;;      Temps:          0       0       0       0       0       0       0       0       0
  7516 ;;      Totals:         2       0       0       0       0       0       0       0       0
  7517 ;;Total ram usage:        2 bytes
  7518 ;; Hardware stack levels used: 1
  7519 ;; This function calls:
  7520 ;;		Nothing
  7521 ;; This function is called by:
  7522 ;;		_INTERRUPT_Initialize
  7523 ;; This function uses a non-reentrant model
  7524 ;;
  7525                           
  7526                           	psect	text28
  7527   00360C                     __ptext28:
  7528                           	callstack 0
  7529   00360C                     _INT0_SetInterruptHandler:
  7530                           	callstack 124
  7531   00360C                     
  7532                           ;mcc_generated_files/system/src/interrupt.c: 93:     INT0_InterruptHandler = InterruptHa
      +                          ndler;
  7533   00360C  C501  F5D9         	movff	INT0_SetInterruptHandler@InterruptHandler,_INT0_InterruptHandler
  7534   003610  C502  F5DA         	movff	INT0_SetInterruptHandler@InterruptHandler+1,_INT0_InterruptHandler+1
  7535   003614  0012               	return		;funcret
  7536   003616                     __end_of_INT0_SetInterruptHandler:
  7537                           	callstack 0
  7538                           
  7539 ;; *************** function _DAC1_Initialize *****************
  7540 ;; Defined at:
  7541 ;;		line 44 in file "mcc_generated_files/dac/src/dac1.c"
  7542 ;; Parameters:    Size  Location     Type
  7543 ;;		None
  7544 ;; Auto vars:     Size  Location     Type
  7545 ;;		None
  7546 ;; Return value:  Size  Location     Type
  7547 ;;                  1    wreg      void 
  7548 ;; Registers used:
  7549 ;;		wreg, status,2
  7550 ;; Tracked objects:
  7551 ;;		On entry : 0/0
  7552 ;;		On exit  : 0/0
  7553 ;;		Unchanged: 0/0
  7554 ;; Data sizes:     COMRAM   BANK5   BANK6   BANK7   BANK8   BANK9  BANK10  BANK11  BANK12
  7555 ;;      Params:         0       0       0       0       0       0       0       0       0
  7556 ;;      Locals:         0       0       0       0       0       0       0       0       0
  7557 ;;      Temps:          0       0       0       0       0       0       0       0       0
  7558 ;;      Totals:         0       0       0       0       0       0       0       0       0
  7559 ;;Total ram usage:        0 bytes
  7560 ;; Hardware stack levels used: 1
  7561 ;; This function calls:
  7562 ;;		Nothing
  7563 ;; This function is called by:
  7564 ;;		_SYSTEM_Initialize
  7565 ;;		_main
  7566 ;; This function uses a non-reentrant model
  7567 ;;
  7568                           
  7569                           	psect	text29
  7570   0035B0                     __ptext29:
  7571                           	callstack 0
  7572   0035B0                     _DAC1_Initialize:
  7573                           	callstack 125
  7574   0035B0                     
  7575                           ;mcc_generated_files/dac/src/dac1.c: 47:     DAC1CON = 160;
  7576   0035B0  0EA0               	movlw	160
  7577   0035B2  0100               	movlb	0	; () banked
  7578   0035B4  6F7F               	movwf	127,b	;volatile
  7579                           
  7580                           ;mcc_generated_files/dac/src/dac1.c: 50:     DAC1DATL = 51;
  7581   0035B6  0E33               	movlw	51
  7582   0035B8  6F7D               	movwf	125,b	;volatile
  7583   0035BA                     
  7584                           ; BSR set to: 0
  7585   0035BA  0012               	return		;funcret
  7586   0035BC                     __end_of_DAC1_Initialize:
  7587                           	callstack 0
  7588                           
  7589 ;; *************** function _CLOCK_Initialize *****************
  7590 ;; Defined at:
  7591 ;;		line 39 in file "mcc_generated_files/system/src/clock.c"
  7592 ;; Parameters:    Size  Location     Type
  7593 ;;		None
  7594 ;; Auto vars:     Size  Location     Type
  7595 ;;		None
  7596 ;; Return value:  Size  Location     Type
  7597 ;;                  1    wreg      void 
  7598 ;; Registers used:
  7599 ;;		wreg, status,2
  7600 ;; Tracked objects:
  7601 ;;		On entry : 0/0
  7602 ;;		On exit  : 0/0
  7603 ;;		Unchanged: 0/0
  7604 ;; Data sizes:     COMRAM   BANK5   BANK6   BANK7   BANK8   BANK9  BANK10  BANK11  BANK12
  7605 ;;      Params:         0       0       0       0       0       0       0       0       0
  7606 ;;      Locals:         0       0       0       0       0       0       0       0       0
  7607 ;;      Temps:          0       0       0       0       0       0       0       0       0
  7608 ;;      Totals:         0       0       0       0       0       0       0       0       0
  7609 ;;Total ram usage:        0 bytes
  7610 ;; Hardware stack levels used: 1
  7611 ;; This function calls:
  7612 ;;		Nothing
  7613 ;; This function is called by:
  7614 ;;		_SYSTEM_Initialize
  7615 ;; This function uses a non-reentrant model
  7616 ;;
  7617                           
  7618                           	psect	text30
  7619   003594                     __ptext30:
  7620                           	callstack 0
  7621   003594                     _CLOCK_Initialize:
  7622                           	callstack 125
  7623   003594                     
  7624                           ;mcc_generated_files/system/src/clock.c: 42:     OSCCON1 = (0 << 0x0)
  7625   003594  0E60               	movlw	96
  7626   003596  0100               	movlb	0	; () banked
  7627   003598  6FAD               	movwf	173,b	;volatile
  7628                           
  7629                           ;mcc_generated_files/system/src/clock.c: 44:     OSCCON3 = (0 << 0x6)
  7630   00359A  0E00               	movlw	0
  7631   00359C  6FAF               	movwf	175,b	;volatile
  7632                           
  7633                           ;mcc_generated_files/system/src/clock.c: 46:     OSCEN = (0 << 0x7)
  7634   00359E  0E00               	movlw	0
  7635   0035A0  6FB3               	movwf	179,b	;volatile
  7636                           
  7637                           ;mcc_generated_files/system/src/clock.c: 53:     OSCFRQ = (8 << 0x0);
  7638   0035A2  0E08               	movlw	8
  7639   0035A4  6FB1               	movwf	177,b	;volatile
  7640                           
  7641                           ;mcc_generated_files/system/src/clock.c: 54:     OSCTUNE = (0 << 0x0);
  7642   0035A6  0E00               	movlw	0
  7643   0035A8  6FB0               	movwf	176,b	;volatile
  7644                           
  7645                           ;mcc_generated_files/system/src/clock.c: 55:     ACTCON = (0 << 0x7)
  7646   0035AA  0E00               	movlw	0
  7647   0035AC  6FAC               	movwf	172,b	;volatile
  7648   0035AE                     
  7649                           ; BSR set to: 0
  7650   0035AE  0012               	return		;funcret
  7651   0035B0                     __end_of_CLOCK_Initialize:
  7652                           	callstack 0
  7653                           
  7654 ;; *************** function _DAC1_SetOutput *****************
  7655 ;; Defined at:
  7656 ;;		line 53 in file "mcc_generated_files/dac/src/dac1.c"
  7657 ;; Parameters:    Size  Location     Type
  7658 ;;  inputData       1    wreg     unsigned char 
  7659 ;; Auto vars:     Size  Location     Type
  7660 ;;  inputData       1    0[COMRAM] unsigned char 
  7661 ;; Return value:  Size  Location     Type
  7662 ;;                  1    wreg      void 
  7663 ;; Registers used:
  7664 ;;		wreg
  7665 ;; Tracked objects:
  7666 ;;		On entry : 0/0
  7667 ;;		On exit  : 0/0
  7668 ;;		Unchanged: 0/0
  7669 ;; Data sizes:     COMRAM   BANK5   BANK6   BANK7   BANK8   BANK9  BANK10  BANK11  BANK12
  7670 ;;      Params:         0       0       0       0       0       0       0       0       0
  7671 ;;      Locals:         1       0       0       0       0       0       0       0       0
  7672 ;;      Temps:          0       0       0       0       0       0       0       0       0
  7673 ;;      Totals:         1       0       0       0       0       0       0       0       0
  7674 ;;Total ram usage:        1 bytes
  7675 ;; Hardware stack levels used: 1
  7676 ;; This function calls:
  7677 ;;		Nothing
  7678 ;; This function is called by:
  7679 ;;		_main
  7680 ;; This function uses a non-reentrant model
  7681 ;;
  7682                           
  7683                           	psect	text31
  7684   003616                     __ptext31:
  7685                           	callstack 0
  7686   003616                     _DAC1_SetOutput:
  7687                           	callstack 126
  7688                           
  7689                           ; BSR set to: 0
  7690                           ;incstack = 0
  7691                           ;DAC1_SetOutput@inputData stored from wreg
  7692   003616  6E01               	movwf	DAC1_SetOutput@inputData^(0+1280),c
  7693   003618                     
  7694                           ;mcc_generated_files/dac/src/dac1.c: 53: void DAC1_SetOutput(uint8_t inputData);mcc_gene
      +                          rated_files/dac/src/dac1.c: 54: {;mcc_generated_files/dac/src/dac1.c: 55:     DAC1DATL =
      +                           inputData;
  7695   003618  C501  F07D         	movff	DAC1_SetOutput@inputData,125	;volatile
  7696   00361C  0012               	return		;funcret
  7697   00361E                     __end_of_DAC1_SetOutput:
  7698                           	callstack 0
  7699                           
  7700                           	psect	rparam
  7701   000000                     
  7702                           	psect	config
  7703                           
  7704                           ;Config register CONFIG1 @ 0x300000
  7705                           ;	External Oscillator Selection
  7706                           ;	FEXTOSC = ECH, EC (external clock) above 8 MHz
  7707                           ;	Reset Oscillator Selection
  7708                           ;	RSTOSC = HFINTOSC_64MHZ, HFINTOSC with HFFRQ = 64 MHz and CDIV = 1:1
  7709   300000                     	org	3145728
  7710   300000  8F                 	db	143
  7711                           
  7712                           ;Config register CONFIG2 @ 0x300001
  7713                           ;	Clock out Enable bit
  7714                           ;	CLKOUTEN = OFF, CLKOUT function is disabled
  7715                           ;	PRLOCKED One-Way Set Enable bit
  7716                           ;	PR1WAY = ON, PRLOCKED bit can be cleared and set only once
  7717                           ;	Clock Switch Enable bit
  7718                           ;	CSWEN = ON, Writing to NOSC and NDIV is allowed
  7719                           ;	Fail-Safe Clock Monitor Enable bit
  7720                           ;	FCMEN = ON, Fail-Safe Clock Monitor enabled
  7721                           ;	Fail-Safe Clock Monitor - Primary XTAL Enable bit
  7722                           ;	FCMENP = ON, Fail-Safe Clock Monitor enabled; timer will flag FSCMP bit and OSFIF inte
      +                          rrupt on EXTOSC failure.
  7723                           ;	Fail-Safe Clock Monitor - Secondary XTAL Enable bit
  7724                           ;	FCMENS = ON, Fail-Safe Clock Monitor enabled; timer will flag FSCMP bit and OSFIF inte
      +                          rrupt on SOSC failure.
  7725   300001                     	org	3145729
  7726   300001  FF                 	db	255
  7727                           
  7728                           ;Config register CONFIG3 @ 0x300002
  7729                           ;	MCLR Enable bit
  7730                           ;	MCLRE = EXTMCLR, If LVP = 0, MCLR pin is MCLR; If LVP = 1, RE3 pin function is MCLR
  7731                           ;	Power-up timer selection bits
  7732                           ;	PWRTS = PWRT_OFF, PWRT is disabled
  7733                           ;	Multi-vector enable bit
  7734                           ;	MVECEN = OFF, Interrupt contoller does not use vector table to prioritze interrupts
  7735                           ;	IVTLOCK bit One-way set enable bit
  7736                           ;	IVT1WAY = ON, IVTLOCKED bit can be cleared and set only once
  7737                           ;	Low Power BOR Enable bit
  7738                           ;	LPBOREN = OFF, Low-Power BOR disabled
  7739                           ;	Brown-out Reset Enable bits
  7740                           ;	BOREN = SBORDIS, Brown-out Reset enabled , SBOREN bit is ignored
  7741   300002                     	org	3145730
  7742   300002  F7                 	db	247
  7743                           
  7744                           ;Config register CONFIG4 @ 0x300003
  7745                           ;	Brown-out Reset Voltage Selection bits
  7746                           ;	BORV = VBOR_1P9, Brown-out Reset Voltage (VBOR) set to 1.9V
  7747                           ;	ZCD Disable bit
  7748                           ;	ZCD = OFF, ZCD module is disabled. ZCD can be enabled by setting the ZCDSEN bit of ZCD
      +                          CON
  7749                           ;	PPSLOCK bit One-Way Set Enable bit
  7750                           ;	PPS1WAY = ON, PPSLOCKED bit can be cleared and set only once; PPS registers remain loc
      +                          ked after one clear/set cycle
  7751                           ;	Stack Full/Underflow Reset Enable bit
  7752                           ;	STVREN = ON, Stack full/underflow will cause Reset
  7753                           ;	Low Voltage Programming Enable bit
  7754                           ;	LVP = ON, Low voltage programming enabled. MCLR/VPP pin function is MCLR. MCLRE config
      +                          uration bit is ignored
  7755                           ;	Extended Instruction Set Enable bit
  7756                           ;	XINST = OFF, Extended Instruction Set and Indexed Addressing Mode disabled
  7757   300003                     	org	3145731
  7758   300003  FF                 	db	255
  7759                           
  7760                           ;Config register CONFIG5 @ 0x300004
  7761                           ;	WDT Period selection bits
  7762                           ;	WDTCPS = WDTCPS_31, Divider ratio 1:65536; software control of WDTPS
  7763                           ;	WDT operating mode
  7764                           ;	WDTE = OFF, WDT Disabled; SWDTEN is ignored
  7765   300004                     	org	3145732
  7766   300004  9F                 	db	159
  7767                           
  7768                           ;Config register CONFIG6 @ 0x300005
  7769                           ;	WDT Window Select bits
  7770                           ;	WDTCWS = WDTCWS_7, window always open (100%); software control; keyed access not requi
      +                          red
  7771                           ;	WDT input clock selector
  7772                           ;	WDTCCS = SC, Software Control
  7773   300005                     	org	3145733
  7774   300005  FF                 	db	255
  7775                           
  7776                           ;Config register CONFIG7 @ 0x300006
  7777                           ;	Boot Block Size selection bits
  7778                           ;	BBSIZE = BBSIZE_512, Boot Block size is 512 words
  7779                           ;	Boot Block enable bit
  7780                           ;	BBEN = OFF, Boot block disabled
  7781                           ;	Storage Area Flash enable bit
  7782                           ;	SAFEN = OFF, SAF disabled
  7783                           ;	Background Debugger
  7784                           ;	DEBUG = 0x1, unprogrammed default
  7785   300006                     	org	3145734
  7786   300006  FF                 	db	255
  7787                           
  7788                           ;Config register CONFIG8 @ 0x300007
  7789                           ;	Boot Block Write Protection bit
  7790                           ;	WRTB = OFF, Boot Block not Write protected
  7791                           ;	Configuration Register Write Protection bit
  7792                           ;	WRTC = OFF, Configuration registers not Write protected
  7793                           ;	Data EEPROM Write Protection bit
  7794                           ;	WRTD = OFF, Data EEPROM not Write protected
  7795                           ;	SAF Write protection bit
  7796                           ;	WRTSAF = OFF, SAF not Write Protected
  7797                           ;	Application Block write protection bit
  7798                           ;	WRTAPP = OFF, Application Block not write protected
  7799   300007                     	org	3145735
  7800   300007  FF                 	db	255
  7801                           
  7802                           ;Config register CONFIG9 @ 0x300008
  7803                           ;	PFM and Data EEPROM Code Protection bit
  7804                           ;	CP = OFF, PFM and Data EEPROM code protection disabled
  7805   300008                     	org	3145736
  7806   300008  FF                 	db	255
  7807                           tosu	equ	0x4FF
  7808                           tosh	equ	0x4FE
  7809                           tosl	equ	0x4FD
  7810                           stkptr	equ	0x4FC
  7811                           pclatu	equ	0x4FB
  7812                           pclath	equ	0x4FA
  7813                           pcl	equ	0x4F9
  7814                           tblptru	equ	0x4F8
  7815                           tblptrh	equ	0x4F7
  7816                           tblptrl	equ	0x4F6
  7817                           tablat	equ	0x4F5
  7818                           prodh	equ	0x4F4
  7819                           prodl	equ	0x4F3
  7820                           indf0	equ	0x4EF
  7821                           postinc0	equ	0x4EE
  7822                           postdec0	equ	0x4ED
  7823                           preinc0	equ	0x4EC
  7824                           plusw0	equ	0x4EB
  7825                           fsr0h	equ	0x4EA
  7826                           fsr0l	equ	0x4E9
  7827                           wreg	equ	0x4E8
  7828                           indf1	equ	0x4E7
  7829                           postinc1	equ	0x4E6
  7830                           postdec1	equ	0x4E5
  7831                           preinc1	equ	0x4E4
  7832                           plusw1	equ	0x4E3
  7833                           fsr1h	equ	0x4E2
  7834                           fsr1l	equ	0x4E1
  7835                           bsr	equ	0x4E0
  7836                           indf2	equ	0x4DF
  7837                           postinc2	equ	0x4DE
  7838                           postdec2	equ	0x4DD
  7839                           preinc2	equ	0x4DC
  7840                           plusw2	equ	0x4DB
  7841                           fsr2h	equ	0x4DA
  7842                           fsr2l	equ	0x4D9
  7843                           status	equ	0x4D8

Data Sizes:
    Strings     0
    Constant    102
    Data        1536
    BSS         108
    Persistent  18
    Stack       0

Auto Spaces:
    Space          Size  Autos    Used
    COMRAM           95     92      94
    BANK5           160    117     141
    BANK6           256      0     100
    BANK7           256      0       0
    BANK8           256      0       0
    BANK9           256      0       0
    BANK10          256      0       0
    BANK11          256      0       0
    BANK12          256      0       0

Pointer List with Targets:

    INT0_InterruptHandler	PTR FTN()void  size(2) Largest target is 1
		 -> INT0_DefaultInterruptHandler(), NULL(), 

    INT0_SetInterruptHandler@InterruptHandler	PTR FTN()void  size(2) Largest target is 1
		 -> INT0_DefaultInterruptHandler(), 

    INT1_InterruptHandler	PTR FTN()void  size(2) Largest target is 1
		 -> INT1_DefaultInterruptHandler(), NULL(), 

    INT1_SetInterruptHandler@InterruptHandler	PTR FTN()void  size(2) Largest target is 1
		 -> INT1_DefaultInterruptHandler(), 

    INT2_InterruptHandler	PTR FTN()void  size(2) Largest target is 1
		 -> INT2_DefaultInterruptHandler(), NULL(), 

    INT2_SetInterruptHandler@InterruptHandler	PTR FTN()void  size(2) Largest target is 1
		 -> INT2_DefaultInterruptHandler(), 

    NULL$0	PTR FTN()void  size(2) Largest target is 0

    PWM1_16BIT_Period_InterruptHandler	PTR FTN()void  size(2) Largest target is 1
		 -> PWM1_16BIT_Period_DefaultInterruptHandler(), NULL(), 

    PWM1_16BIT_Period_SetInterruptHandler@InterruptHandler	PTR FTN()void  size(2) Largest target is 1
		 -> PWM1_16BIT_Period_DefaultInterruptHandler(), 

    PWM1_16BIT_Slice1Output1_InterruptHandler	PTR FTN()void  size(2) Largest target is 1
		 -> PWM1_16BIT_Slice1Output1_DefaultInterruptHandler(), NULL(), 

    PWM1_16BIT_Slice1Output1_SetInterruptHandler@InterruptHandler	PTR FTN()void  size(2) Largest target is 1
		 -> PWM1_16BIT_Slice1Output1_DefaultInterruptHandler(), 

    PWM1_16BIT_Slice1Output2_InterruptHandler	PTR FTN()void  size(2) Largest target is 1
		 -> PWM1_16BIT_Slice1Output2_DefaultInterruptHandler(), NULL(), 

    PWM1_16BIT_Slice1Output2_SetInterruptHandler@InterruptHandler	PTR FTN()void  size(2) Largest target is 1
		 -> PWM1_16BIT_Slice1Output2_DefaultInterruptHandler(), 

    PWM2_16BIT_Period_InterruptHandler	PTR FTN()void  size(2) Largest target is 1
		 -> PWM2_16BIT_Period_DefaultInterruptHandler(), NULL(), 

    PWM2_16BIT_Period_SetInterruptHandler@InterruptHandler	PTR FTN()void  size(2) Largest target is 1
		 -> PWM2_16BIT_Period_DefaultInterruptHandler(), 

    PWM2_16BIT_Slice1Output1_InterruptHandler	PTR FTN()void  size(2) Largest target is 1
		 -> PWM2_16BIT_Slice1Output1_DefaultInterruptHandler(), NULL(), 

    PWM2_16BIT_Slice1Output1_SetInterruptHandler@InterruptHandler	PTR FTN()void  size(2) Largest target is 1
		 -> PWM2_16BIT_Slice1Output1_DefaultInterruptHandler(), 

    PWM2_16BIT_Slice1Output2_InterruptHandler	PTR FTN()void  size(2) Largest target is 1
		 -> PWM2_16BIT_Slice1Output2_DefaultInterruptHandler(), NULL(), 

    PWM2_16BIT_Slice1Output2_SetInterruptHandler@InterruptHandler	PTR FTN()void  size(2) Largest target is 1
		 -> PWM2_16BIT_Slice1Output2_DefaultInterruptHandler(), 

    __rem_pio2f@y	PTR  size(2) Largest target is 4
		 -> sinf@y(BANK5[4]), 

    S429$4$0	PTR void  size(2) Largest target is 0

    S429$5$0	PTR void  size(2) Largest target is 0

    S429$6$0	PTR void  size(2) Largest target is 0

    S429SPI_INTERFACE$BufferExchange	PTR FTN(PTR void ,unsigned int ,)void  size(2) Largest target is 1
		 -> SPI1_BufferExchange(), 

    S429SPI_INTERFACE$BufferRead	PTR FTN(PTR void ,unsigned int ,)void  size(2) Largest target is 1
		 -> SPI1_BufferRead(), 

    S429SPI_INTERFACE$BufferWrite	PTR FTN(PTR void ,unsigned int ,)void  size(2) Largest target is 1
		 -> SPI1_BufferWrite(), 

    S429SPI_INTERFACE$ByteExchange	PTR FTN(unsigned char ,)unsigned char  size(2) Largest target is 1
		 -> SPI1_ByteExchange(), 

    S429SPI_INTERFACE$ByteRead	PTR FTN()unsigned char  size(2) Largest target is 1
		 -> SPI1_ByteRead(), 

    S429SPI_INTERFACE$ByteWrite	PTR FTN(unsigned char ,)void  size(2) Largest target is 1
		 -> SPI1_ByteWrite(), 

    S429SPI_INTERFACE$Close	PTR FTN()void  size(2) Largest target is 1
		 -> SPI1_Close(), 

    S429SPI_INTERFACE$Deinitialize	PTR FTN()void  size(2) Largest target is 1
		 -> SPI1_Deinitialize(), 

    S429SPI_INTERFACE$Initialize	PTR FTN()void  size(2) Largest target is 1
		 -> SPI1_Initialize(), 

    S429SPI_INTERFACE$IsRxReady	PTR FTN()_Bool  size(2) Largest target is 1
		 -> SPI1_IsRxReady(), 

    S429SPI_INTERFACE$IsTxReady	PTR FTN()_Bool  size(2) Largest target is 1
		 -> SPI1_IsTxReady(), 

    S429SPI_INTERFACE$Open	PTR FTN(unsigned char ,)_Bool  size(2) Largest target is 1
		 -> SPI1_Open(), 

    S429SPI_INTERFACE$RxCompleteCallbackRegister	PTR FTN(PTR FTN()void ,)void  size(2) Largest target is 1
		 -> NULL(), 

    S429SPI_INTERFACE$TxCompleteCallbackRegister	PTR FTN(PTR FTN()void ,)void  size(2) Largest target is 1
		 -> NULL(), 

    SPI1_Host$BufferExchange	PTR FTN(PTR void ,unsigned int ,)void  size(2) Largest target is 1
		 -> SPI1_BufferExchange(), 

    SPI1_Host$BufferRead	PTR FTN(PTR void ,unsigned int ,)void  size(2) Largest target is 1
		 -> SPI1_BufferRead(), 

    SPI1_Host$BufferWrite	PTR FTN(PTR void ,unsigned int ,)void  size(2) Largest target is 1
		 -> SPI1_BufferWrite(), 

    SPI1_Host$ByteExchange	PTR FTN(unsigned char ,)unsigned char  size(2) Largest target is 1
		 -> SPI1_ByteExchange(), 

    SPI1_Host$ByteRead	PTR FTN()unsigned char  size(2) Largest target is 1
		 -> SPI1_ByteRead(), 

    SPI1_Host$ByteWrite	PTR FTN(unsigned char ,)void  size(2) Largest target is 1
		 -> SPI1_ByteWrite(), 

    SPI1_Host$Close	PTR FTN()void  size(2) Largest target is 1
		 -> SPI1_Close(), 

    SPI1_Host$Deinitialize	PTR FTN()void  size(2) Largest target is 1
		 -> SPI1_Deinitialize(), 

    SPI1_Host$Initialize	PTR FTN()void  size(2) Largest target is 1
		 -> SPI1_Initialize(), 

    SPI1_Host$IsRxReady	PTR FTN()_Bool  size(2) Largest target is 1
		 -> SPI1_IsRxReady(), 

    SPI1_Host$IsTxReady	PTR FTN()_Bool  size(2) Largest target is 1
		 -> SPI1_IsTxReady(), 

    SPI1_Host$Open	PTR FTN(unsigned char ,)_Bool  size(2) Largest target is 1
		 -> SPI1_Open(), 

    SPI1_Host$RxCompleteCallbackRegister	PTR FTN(PTR FTN()void ,)void  size(2) Largest target is 1
		 -> NULL(), 

    SPI1_Host$TxCompleteCallbackRegister	PTR FTN(PTR FTN()void ,)void  size(2) Largest target is 1
		 -> NULL(), 


Critical Paths under _main in COMRAM

    _sinf->___rem_pio2f
    ___sindf->___fladd
    ___rem_pio2f->___fltol
    ___fltol->___fladd
    ___flsub->___fladd
    ___flneg->___cosdf
    ___cosdf->___fladd
    ___flmul->___xxtofl
    ___fladd->___fldiv
    ___fldiv->___flmul
    _PWM2_16BIT_Initialize->_PWM2_16BIT_Period_SetInterruptHandler
    _PWM2_16BIT_Initialize->_PWM2_16BIT_Slice1Output1_SetInterruptHandler
    _PWM2_16BIT_Initialize->_PWM2_16BIT_Slice1Output2_SetInterruptHandler
    _PWM1_16BIT_Initialize->_PWM1_16BIT_Period_SetInterruptHandler
    _PWM1_16BIT_Initialize->_PWM1_16BIT_Slice1Output1_SetInterruptHandler
    _PWM1_16BIT_Initialize->_PWM1_16BIT_Slice1Output2_SetInterruptHandler
    _INTERRUPT_Initialize->_INT0_SetInterruptHandler
    _INTERRUPT_Initialize->_INT1_SetInterruptHandler
    _INTERRUPT_Initialize->_INT2_SetInterruptHandler

Critical Paths under _main in BANK5

    _main->_generate_sine_wave
    _generate_sine_wave->_sinf
    _sinf->___rem_pio2f
    ___rem_pio2f->___flneg
    ___flneg->___cosdf

Critical Paths under _main in BANK6

    None.

Critical Paths under _main in BANK7

    None.

Critical Paths under _main in BANK8

    None.

Critical Paths under _main in BANK9

    None.

Critical Paths under _main in BANK10

    None.

Critical Paths under _main in BANK11

    None.

Critical Paths under _main in BANK12

    None.

Call Graph Tables:

 ---------------------------------------------------------------------------------
 (Depth) Function   	        Calls       Base Space   Used Autos Params    Refs
 ---------------------------------------------------------------------------------
 (0) _main                                                18    18      0   62282
                                             99 BANK5     18    18      0
                    _DAC1_Initialize
                     _DAC1_SetOutput
                  _SYSTEM_Initialize
                 _generate_sine_wave
 ---------------------------------------------------------------------------------
 (1) _generate_sine_wave                                  14    14      0   61170
                                             85 BANK5     14    14      0
                            ___fladd
                            ___fldiv
                            ___flmul
                            ___fltol
                           ___xxtofl
                               _sinf
 ---------------------------------------------------------------------------------
 (2) _sinf                                                26    22      4   48215
                                             59 BANK5     26    22      4
                            ___cosdf
                            ___fladd
                            ___fldiv (ARG)
                            ___flneg
                        ___rem_pio2f
                            ___sindf
 ---------------------------------------------------------------------------------
 (3) ___sindf                                             32    28      4   11053
                                             80 COMRAM     4     0      4
                                              0 BANK5     28    28      0
                            ___fladd
                            ___flmul
 ---------------------------------------------------------------------------------
 (3) ___rem_pio2f                                         33    27      6   19155
                                             90 COMRAM     2     2      0
                                             28 BANK5     31    25      6
                            ___fladd
                            ___flmul
                            ___flneg
                            ___flsub
                            ___fltol
                           ___xxtofl
                              _fabsf
 ---------------------------------------------------------------------------------
 (4) _fabsf                                                8     4      4     199
                                              0 COMRAM     8     4      4
 ---------------------------------------------------------------------------------
 (4) ___xxtofl                                            14    10      4     550
                                              0 COMRAM    14    10      4
 ---------------------------------------------------------------------------------
 (4) ___fltol                                             10     6      4     457
                                             80 COMRAM    10     6      4
                            ___fladd (ARG)
                            ___fldiv (ARG)
                            ___flmul (ARG)
                           ___xxtofl (ARG)
 ---------------------------------------------------------------------------------
 (4) ___flsub                                              8     0      8    6081
                                             80 COMRAM     8     0      8
                            ___fladd
                            ___flmul (ARG)
 ---------------------------------------------------------------------------------
 (4) ___flneg                                              4     0      4     653
                                             24 BANK5      4     0      4
                            ___cosdf (ARG)
                            ___fladd (ARG)
 ---------------------------------------------------------------------------------
 (3) ___cosdf                                             28    24      4   11138
                                             80 COMRAM     4     0      4
                                              0 BANK5     24    24      0
                            ___fladd
                            ___flmul
 ---------------------------------------------------------------------------------
 (4) ___flmul                                             25    17      8    5088
                                             14 COMRAM    25    17      8
                           ___xxtofl (ARG)
 ---------------------------------------------------------------------------------
 (4) ___fladd                                             16     8      8    5302
                                             64 COMRAM    16     8      8
                            ___fldiv (ARG)
                            ___flmul (ARG)
                           ___xxtofl (ARG)
 ---------------------------------------------------------------------------------
 (2) ___fldiv                                             25    17      8    1399
                                             39 COMRAM    25    17      8
                            ___flmul (ARG)
                           ___xxtofl (ARG)
 ---------------------------------------------------------------------------------
 (1) _SYSTEM_Initialize                                    0     0      0     882
                   _CLOCK_Initialize
                    _DAC1_Initialize
               _INTERRUPT_Initialize
             _PIN_MANAGER_Initialize
              _PWM1_16BIT_Initialize
              _PWM2_16BIT_Initialize
                    _SPI1_Initialize
 ---------------------------------------------------------------------------------
 (2) _SPI1_Initialize                                      0     0      0       0
 ---------------------------------------------------------------------------------
 (2) _PWM2_16BIT_Initialize                                0     0      0     294
_PWM2_16BIT_Period_SetInterruptHandl
_PWM2_16BIT_Slice1Output1_SetInterru
_PWM2_16BIT_Slice1Output2_SetInterru
 ---------------------------------------------------------------------------------
 (3) _PWM2_16BIT_Slice1Output2_SetInterruptHandler         2     0      2      98
                                              0 COMRAM     2     0      2
 ---------------------------------------------------------------------------------
 (3) _PWM2_16BIT_Slice1Output1_SetInterruptHandler         2     0      2      98
                                              0 COMRAM     2     0      2
 ---------------------------------------------------------------------------------
 (3) _PWM2_16BIT_Period_SetInterruptHandler                2     0      2      98
                                              0 COMRAM     2     0      2
 ---------------------------------------------------------------------------------
 (2) _PWM1_16BIT_Initialize                                0     0      0     294
_PWM1_16BIT_Period_SetInterruptHandl
_PWM1_16BIT_Slice1Output1_SetInterru
_PWM1_16BIT_Slice1Output2_SetInterru
 ---------------------------------------------------------------------------------
 (3) _PWM1_16BIT_Slice1Output2_SetInterruptHandler         2     0      2      98
                                              0 COMRAM     2     0      2
 ---------------------------------------------------------------------------------
 (3) _PWM1_16BIT_Slice1Output1_SetInterruptHandler         2     0      2      98
                                              0 COMRAM     2     0      2
 ---------------------------------------------------------------------------------
 (3) _PWM1_16BIT_Period_SetInterruptHandler                2     0      2      98
                                              0 COMRAM     2     0      2
 ---------------------------------------------------------------------------------
 (2) _PIN_MANAGER_Initialize                               0     0      0       0
 ---------------------------------------------------------------------------------
 (2) _INTERRUPT_Initialize                                 0     0      0     294
           _INT0_SetInterruptHandler
           _INT1_SetInterruptHandler
           _INT2_SetInterruptHandler
 ---------------------------------------------------------------------------------
 (3) _INT2_SetInterruptHandler                             2     0      2      98
                                              0 COMRAM     2     0      2
 ---------------------------------------------------------------------------------
 (3) _INT1_SetInterruptHandler                             2     0      2      98
                                              0 COMRAM     2     0      2
 ---------------------------------------------------------------------------------
 (3) _INT0_SetInterruptHandler                             2     0      2      98
                                              0 COMRAM     2     0      2
 ---------------------------------------------------------------------------------
 (2) _DAC1_Initialize                                      0     0      0       0
 ---------------------------------------------------------------------------------
 (2) _CLOCK_Initialize                                     0     0      0       0
 ---------------------------------------------------------------------------------
 (1) _DAC1_SetOutput                                       1     1      0      22
                                              0 COMRAM     1     1      0
 ---------------------------------------------------------------------------------
 Estimated maximum stack depth 4
 ---------------------------------------------------------------------------------

 Call Graph Graphs:

 _main (ROOT)
   _DAC1_Initialize
   _DAC1_SetOutput
   _SYSTEM_Initialize
     _CLOCK_Initialize
     _DAC1_Initialize
     _INTERRUPT_Initialize
       _INT0_SetInterruptHandler
       _INT1_SetInterruptHandler
       _INT2_SetInterruptHandler
     _PIN_MANAGER_Initialize
     _PWM1_16BIT_Initialize
       _PWM1_16BIT_Period_SetInterruptHandler
       _PWM1_16BIT_Slice1Output1_SetInterruptHandler
       _PWM1_16BIT_Slice1Output2_SetInterruptHandler
     _PWM2_16BIT_Initialize
       _PWM2_16BIT_Period_SetInterruptHandler
       _PWM2_16BIT_Slice1Output1_SetInterruptHandler
       _PWM2_16BIT_Slice1Output2_SetInterruptHandler
     _SPI1_Initialize
   _generate_sine_wave
     ___fladd
       ___fldiv (ARG)
         ___flmul (ARG)
           ___xxtofl (ARG)
         ___xxtofl (ARG)
       ___flmul (ARG)
       ___xxtofl (ARG)
     ___fldiv
     ___flmul
     ___fltol
       ___fladd (ARG)
       ___fldiv (ARG)
       ___flmul (ARG)
       ___xxtofl (ARG)
     ___xxtofl
     _sinf
       ___cosdf
         ___fladd
         ___flmul
       ___fladd
       ___fldiv (ARG)
       ___flneg (ARG)
         ___cosdf (ARG)
         ___fladd (ARG)
       ___rem_pio2f (ARG)
         ___fladd
         ___flmul
         ___flneg
         ___flsub
           ___fladd
           ___flmul (ARG)
         ___fltol
         ___xxtofl
         _fabsf
       ___sindf (ARG)
         ___fladd
         ___flmul

 Address spaces:
Name               Size   Autos  Total    Cost      Usage
BIGRAM             7FF      0     600      21       75.0%
EEDATA             200      0       0       0        0.0%
BITBIGSFRhlhhhl    178      0       0      31        0.0%
BITBIGSFRhlhhhl    151      0       0      36        0.0%
BITBIGSFR_1        100      0       0      20        0.0%
BITBANK12          100      0       0      18        0.0%
BANK12             100      0       0      19        0.0%
BITBANK11          100      0       0      16        0.0%
BANK11             100      0       0      17        0.0%
BITBANK10          100      0       0      14        0.0%
BANK10             100      0       0      15        0.0%
BITBANK9           100      0       0      12        0.0%
BANK9              100      0       0      13        0.0%
BITBANK8           100      0       0      10        0.0%
BANK8              100      0       0      11        0.0%
BITBANK7           100      0       0       8        0.0%
BANK7              100      0       0       9        0.0%
BITBANK6           100      0       0       6        0.0%
BANK6              100      0      64       7       39.1%
BITBANK5            A0      0       0       4        0.0%
BANK5               A0     75      8D       5       88.1%
BITBIGSFRll         7D      0       0      43        0.0%
BITCOMRAM           5F      0       0       0        0.0%
COMRAM              5F     5C      5E       1       98.9%
BITBIGSFRhlhhhl     53      0       0      33        0.0%
BITBIGSFRhlhhhh     48      0       0      30        0.0%
BITBIGSFRhhhllh     2D      0       0      29        0.0%
BITBIGSFRhhhhhh     29      0       0      22        0.0%
BITBIGSFRhlhhhl     1F      0       0      39        0.0%
BITBIGSFRhlhhhl     1A      0       0      32        0.0%
BITBIGSFRhlhhhl      7      0       0      34        0.0%
BITBIGSFRhhhhhl      6      0       0      23        0.0%
BITBIGSFRhlhhhl      6      0       0      35        0.0%
BITBIGSFRhhhhhl      6      0       0      24        0.0%
BITBIGSFRhhhlhl      6      0       0      28        0.0%
BITBIGSFRhhhhlh      5      0       0      25        0.0%
BITBIGSFRhhhhll      3      0       0      26        0.0%
BITBIGSFRhlhl        2      0       0      41        0.0%
BITBIGSFRhlhhhl      1      0       0      37        0.0%
BITBIGSFRhlhhhl      1      0       0      38        0.0%
BITBIGSFRhhhlhh      1      0       0      27        0.0%
BITBIGSFRhlhhl       1      0       0      40        0.0%
BITBIGSFRlh          1      0       0      42        0.0%
BIGSFR_1             0      0       0     200        0.0%
BIGSFR               0      0       0     200        0.0%
BITSFR_6             0      0       0     200        0.0%
SFR_6                0      0       0     200        0.0%
BITSFR_5             0      0       0     200        0.0%
SFR_5                0      0       0     200        0.0%
BITSFR_4             0      0       0     200        0.0%
SFR_4                0      0       0     200        0.0%
BITSFR_3             0      0       0     200        0.0%
SFR_3                0      0       0     200        0.0%
BITSFR_2             0      0       0     200        0.0%
SFR_2                0      0       0     200        0.0%
BITSFR_1             0      0       0     200        0.0%
SFR_1                0      0       0     200        0.0%
BITSFR               0      0       0     200        0.0%
SFR                  0      0       0     200        0.0%
STACK                0      0       0       2        0.0%
NULL                 0      0       0       0        0.0%
ABS                  0      0     14F      44        0.0%
DATA                 0      0     74F       3        0.0%
CODE                 0      0       0       0        0.0%


Microchip Technology PIC18 Macro Assembler V2.46 build 20240104201356 
Symbol Table                                                                                   Sat Jul 20 09:59:45 2024

                                           _SPI1_ByteExchange 0000  
                                                           l7 35BA  
                                                ___fldiv@aexp 0540  
                                                ___fldiv@bexp 053F  
                                                ___fldiv@sign 0538  
                                                          _C0 0D53  
                                                          _C1 0D4F  
                                                          _C2 0D4B  
                                                          _C3 0D47  
                                                          l10 361C  
                                                          l74 3428  
                                                          _S1 0D33  
                                                          _S2 0D2F  
                                                          _S3 0D2B  
                                                          _S4 0D27  
                                             _DAC1_Initialize 35B0  
                                                         l111 35E2  
                                                         l114 35F6  
                                                         l108 35EC  
                                                         l221 35C4  
                                                         l224 35D8  
                                                         l410 360A  
                                                         l218 35CE  
                                                         l423 3600  
                                                         l184 33BC  
                                                         l507 3350  
                                                         l292 3592  
                                                         l525 35AE  
                                                         l542 3574  
                                                         l387 3556  
                                                         l397 3614  
                                                         l901 32B0  
                                                         l591 2F3E  
                                                         l584 31AA  
                                                         l593 2FF6  
                                                         l878 34EE  
                                  ??_INT0_SetInterruptHandler 0503  
                                                         wreg 04E8  
                                              _DAC1_SetOutput 3616  
                                                ___flmul@aexp 0520  
                                                ___flmul@bexp 0521  
                                                ___flmul@sign 051B  
                                                ___flmul@temp 0526  
                                                ___flmul@prod 0522  
                                                ___fltol@exp1 055A  
                                                        l1200 27CE  
                                                        l1132 1A64  
                                                        l1141 1D34  
                                                        l1133 1A52  
                                                        l1134 1A18  
                                                        l1222 215E  
                                                        l3000 2246  
                                                        l1225 1FF0  
                                                        l1218 1DFA  
                                                        l3010 236C  
                                                        l3002 226C  
                                                        l1235 2120  
                                                        l1227 2068  
                                                        l3100 32B2  
                                                        l1228 2056  
                                                        l3020 244A  
                                                        l3004 22C4  
                                                        l1149 1B7E  
                                                        l3102 32F8  
                                                        l1158 1C4E  
                                                        l1174 34B4  
                                                        l1262 2EA6  
                                                        l3022 24A2  
                                                        l3006 2324  
                                                        l3014 2394  
                                                        l3110 1378  
                                                        l1191 26E6  
                                                        l1159 1C3C  
                                                        l3104 3302  
                                                        l3040 33F4  
                                                        l1328 2CF2  
                                                        l3024 24FA  
                                                        l3016 23B8  
                                                        l3008 2336  
                                                        l1344 2388  
                                                        l3200 17F2  
                                                        l3120 13D8  
                                                        l3112 138E  
                                                        l1273 2E3E  
                                                        l1345 2528  
                                                        l3106 3594  
                                                        l3034 35B0  
                                                        l3050 33FE  
                                                        l3042 33F6  
                                                        l1186 28C2  
                                                        l1266 2DE2  
                                                        l1362 3522  
                                                        l3026 2512  
                                                        l3018 2424  
                                                        l3210 1856  
                                                        l3130 144C  
                                                        l3114 1390  
                                                        l1259 2D4A  
                                                        l3052 3400  
                                                        l3044 33F8  
                                                        l3036 33BE  
                                                        l3060 3352  
                                                        l3300 274E  
                                                        l1188 2722  
                                                        l3220 2556  
                                                        l3212 252A  
                                                        l3204 181A  
                                                        l3140 14F0  
                                                        l3132 1480  
                                                        l3116 13AE  
                                                        l3124 1400  
                                                        l3108 1368  
                                                        l1197 2768  
                                                        l1357 2AF4  
                                                        l3054 340C  
                                                        l3046 33FA  
                                                        l3038 33CA  
                                                        l3070 338E  
                                                        l3062 335E  
                                                        l3310 278A  
                                                        l3302 2758  
                                                        l3230 2590  
                                                        l3222 2566  
                                                        l3214 2536  
                                                        l3150 15BC  
                                                        l3126 141E  
                                                        l1294 1874  
                                                        l3118 13C4  
                                                        l1199 27E0  
                                                        l3056 3418  
                                                        l3048 33FC  
                                                        l3080 33AC  
                                                        l3072 3390  
                                                        l3064 3388  
                                                        l3320 27FC  
                                                        l3312 2798  
                                                        l3304 2766  
                                                        l3240 25BC  
                                                        l3232 2596  
                                                        l3224 2576  
                                                        l3216 2544  
                                                        l2600 19E4  
                                                        l2520 1882  
                                                        l3160 1630  
                                                        l3128 143C  
                                                        l3144 1518  
                                                        l3090 352A  
                                                        l3058 3424  
                                                        l3082 33B8  
                                                        l3074 3392  
                                                        l3066 338A  
                                                        l3330 2868  
                                                        l3322 280A  
                                                        l3314 27C6  
                                                        l3306 2778  
                                                        l3250 25F6  
                                                        l3242 25CC  
                                                        l3234 259C  
                                                        l3226 2578  
                                                        l3218 2546  
                                                        l2610 1A36  
                                                        l2602 1A00  
                                                        l2530 18C2  
                                                        l2522 1890  
                                                        l3146 1528  
                                                        l3138 14BC  
                                                        l3154 15E4  
                                                        l3092 3536  
                                                        l3076 3394  
                                                        l3068 338C  
                                                        l3084 3576  
                                                        l3340 28B6  
                                                        l3332 2882  
                                                        l3324 2834  
                                                        l3308 2786  
                                                        l3252 260C  
                                                        l3244 25DC  
                                                        l3236 25AA  
                                                        l3228 2580  
                                                        l2700 1CD4  
                                                        l2620 1A82  
                                                        l2612 1A44  
                                                        l2604 1A10  
                                                        l2540 18F4  
                                                        l2532 18C4  
                                                        l2524 1892  
                                                        l3180 171C  
                                                        l3156 1602  
                                                        l3148 1574  
                                                        l3500 2FF6  
                                                        l3350 3618  
                                                        l3094 3538  
                                                        l3078 33A0  
                                                        l3086 357C  
                                                        l3342 28B8  
                                                        l3334 289E  
                                                        l3318 27F0  
                                                        l3326 2838  
                                                        l3270 2660  
                                                        l3254 261C  
                                                        l3262 263C  
                                                        l3246 25DE  
                                                        l3238 25AC  
                                                        l2710 1D0E  
                                                        l2702 1CF4  
                                                        l2630 1AC2  
                                                        l2614 1A46  
                                                        l2606 1A26  
                                                        l2550 191C  
                                                        l2542 18F6  
                                                        l2526 18A2  
                                                        l2534 18CC  
                                                        l2518 1876  
                                                        l3158 1620  
                                                        l3174 16A0  
                                                        l3502 3008  
                                                        l3096 3546  
                                                        l3088 3524  
                                                        l3352 3558  
                                                        l3336 28A2  
                                                        l3328 2852  
                                                        l3280 26B2  
                                                        l3272 267A  
                                                        l3264 264C  
                                                        l3256 2624  
                                                        l3248 25E6  
                                                        l2712 1D14  
                                                        l2704 1CF8  
                                                        l2640 1AEC  
                                                        l2632 1ACE  
                                                        l2624 1A96  
                                                        l2616 1A50  
                                                        l2608 1A32  
                                                        l2560 1956  
                                                        l2552 192C  
                                                        l2544 18FC  
                                                        l2536 18DC  
                                                        l2528 18B2  
                                                        l2800 1FB8  
                                                        l2720 1D36  
                                                        l3192 177E  
                                                        l3176 16B0  
                                                        l3168 1668  
                                                        l3184 1744  
                                                        l3360 3048  
                                                        l3504 3030  
                                                        l3098 3548  
                                                        l3354 3564  
                                                        l3338 28B0  
                                                        l3290 270E  
                                                        l3282 26C2  
                                                        l3274 268A  
                                                        l3266 264C  
                                                        l3258 2628  
                                                        l2714 1D22  
                                                        l2706 1D06  
                                                        l2650 1B5E  
                                                        l2634 1AD2  
                                                        l2626 1AA6  
                                                        l2618 1A72  
                                                        l2642 1AF2  
                                                        l2570 1982  
                                                        l2562 1968  
                                                        l2554 193C  
                                                        l2546 190A  
                                                        l2538 18E2  
                                                        l2810 200E  
                                                        l2802 1FD6  
                                                        l2730 1D72  
                                                        l2722 1D42  
                                                        l3194 17A6  
                                                        l3186 175A  
                                                        l3178 16E8  
                                                        l3370 30E6  
                                                        l3450 2EA8  
                                                        l3356 3568  
                                                        l3292 2710  
                                                        l3284 26D6  
                                                        l3276 269A  
                                                        l2716 1D24  
                                                        l2708 1D0C  
                                                        l2660 1BB8  
                                                        l2644 1B18  
                                                        l2652 1B6E  
                                                        l2636 1AE0  
                                                        l2628 1AB4  
                                                        l2580 1996  
                                                        l2572 1986  
                                                        l2564 1976  
                                                        l2556 193E  
                                                        l2548 190C  
                                                        l2820 2078  
                                                        l2812 2012  
                                                        l2804 1FE0  
                                                        l2740 1DA4  
                                                        l2732 1D82  
                                                        l2724 1D50  
                                                        l2900 3280  
                                                        l3196 17CA  
                                                        l3188 176A  
                                                        l3372 313E  
                                                        l3460 2EB8  
                                                        l3452 2EAC  
                                                        l3358 3570  
                                                        l3294 2720  
                                                        l3286 26E4  
                                                        l3278 26AA  
                                                        l2670 1BE8  
                                                        l2662 1BC2  
                                                        l2654 1B94  
                                                        l2646 1B4C  
                                                        l2638 1AE2  
                                                        l2590 19AA  
                                                        l2582 199A  
                                                        l2574 198A  
                                                        l2566 197A  
                                                        l2558 1946  
                                                        l2830 20DA  
                                                        l2822 2084  
                                                        l2814 2020  
                                                        l2806 1FEE  
                                                        l2750 1DE4  
                                                        l2742 1DB2  
                                                        l2734 1D88  
                                                        l2726 1D52  
                                                        l2902 3290  
                                                        l2910 2D06  
                                                        l3374 3188  
                                                        l3366 3052  
                                                        l3470 2EDA  
                                                        l3462 2EBA  
                                                        l3454 2EB0  
                                                        l3296 2732  
                                                        l3288 26F0  
                                                        l2680 1C10  
                                                        l2672 1BEC  
                                                        l2664 1BD0  
                                                        l2656 1BA4  
                                                        l2648 1B4E  
                                                        l2592 19AE  
                                                        l2584 199E  
                                                        l2576 198E  
                                                        l2568 197E  
                                                        l2840 2142  
                                                        l2832 20EE  
                                                        l2824 2092  
                                                        l2816 204E  
                                                        l2808 2000  
                                                        l2760 1E2E  
                                                        l2752 1DEA  
                                                        l2744 1DB4  
                                                        l2736 1D98  
                                                        l2728 1D62  
                                                        l2904 32A0  
                                                        l2920 2D84  
                                                        l2912 2D14  
                                                        l3376 318E  
                                                        l3368 30C2  
                                                        l3480 2F36  
                                                        l3472 2EEA  
                                                        l3464 2EC0  
                                                        l3456 2EB4  
                                                        l3298 2748  
                                                        l2690 1C6A  
                                                        l2682 1C1E  
                                                        l2674 1BFC  
                                                        l2666 1BD2  
                                                        l2594 19B2  
                                                        l2586 19A2  
                                                        l2578 1992  
                                                        l2842 2144  
                                                        l2834 2108  
                                                        l2826 20BC  
                                                        l2770 1E7E  
                                                        l2762 1E3A  
                                                        l2754 1E0A  
                                                        l2746 1DC4  
                                                        l2738 1D9E  
                                                        l2850 3470  
                                                        l2930 2DD8  
                                                        l2922 2D8C  
                                                        l2914 2D5A  
                                                        l3490 2F9A  
                                                        l3482 2F38  
                                                        l3474 2EEE  
                                                        l3466 2EC4  
                                                        l3458 2EB6  
                                                        l2692 1C78  
                                                        l2684 1C34  
                                                        l2668 1BE0  
                                                        l2676 1BFE  
                                                        l2588 19A6  
                                                        l2596 19B6  
                                                        l2836 2124  
                                                        l2844 214A  
                                                        l2828 20C0  
                                                        l2780 1EC0  
                                                        l2772 1E8A  
                                                        l2764 1E44  
                                                        l2756 1E1A  
                                                        l2748 1DD4  
                                                        l2860 34DE  
                                                        l2852 3480  
                                                        l2940 2E4E  
                                                        l2932 2E14  
                                                        l2924 2D98  
                                                        l2916 2D70  
                                                        l2908 2CF6  
                                                        l3492 2FBA  
                                                        l3484 2F3C  
                                                        l3476 2EFE  
                                                        l3468 2ECA  
                                                        l2694 1CB2  
                                                        l2678 1C0C  
                                                        l2598 19BA  
                                                        l2846 214E  
                                                        l2838 2134  
                                                        l2790 1F22  
                                                        l2782 1ECC  
                                                        l2774 1E96  
                                                        l2766 1E5A  
                                                        l2870 31D6  
                                                        l2950 2E96  
                                                        l2942 2E52  
                                                        l2934 2E20  
                                                        l2926 2DCA  
                                                        l3494 2FD0  
                                                        l3486 2F64  
                                                        l3478 2F2C  
                                                        l2688 1C5E  
                                                        l2696 1CB4  
                                                        l2792 1F2E  
                                                        l2784 1EDC  
                                                        l2776 1EA4  
                                                        l2768 1E66  
                                                        l2856 34B6  
                                                        l2880 3224  
                                                        l2872 3200  
                                                        l2864 31AC  
                                                        l2944 2E76  
                                                        l2936 2E2E  
                                                        l2928 2DCC  
                                                        l3496 2FD8  
                                                        l3488 2F74  
                                                        l2962 35E4  
                                                        l2970 35BC  
                                                        l2698 1CC4  
                                                        l2794 1F4A  
                                                        l2786 1EF6  
                                                        l2778 1EB0  
                                                        l2858 34CE  
                                                        l2890 3250  
                                                        l2874 3202  
                                                        l2866 31C2  
                                                        l2946 2E86  
                                                        l2938 2E4C  
                                                        l2954 34F0  
                                                        l3498 2FEE  
                                                        l2964 35DA  
                                                        l2972 35D0  
                                                        l2796 1F74  
                                                        l2788 1F06  
                                                        l2876 3212  
                                                        l2948 2E94  
                                                        l2956 3510  
                                                        l2980 28C4  
                                                        l2974 360C  
                                                        l2966 35EE  
                                                        l2798 1FAA  
                                                        l2886 323C  
                                                        l2878 3216  
                                                        l2958 3512  
                                                        l2990 2180  
                                                        l2976 3602  
                                                        l2968 35C6  
                                                        l2984 2AF6  
                                                        l2896 3264  
                                                        l2888 3246  
                                                        l2992 2196  
                                                        l2978 35F8  
                                                        l2898 3270  
                                                        l2994 2198  
                                                        l2996 21B6  
                                                        l2988 2160  
                                                        l2998 21DA  
                                                        u2000 1CD4  
                                                        u2001 1CD0  
                                                        u2010 1CF4  
                                                        u2011 1CF0  
                                                        u2020 1D06  
                                                        u2100 1E0A  
                                                        u2021 1D02  
                                                        u2101 1E06  
                                                        u2030 1D22  
                                                        u2110 1E1A  
                                                        u2031 1D1E  
                                                        u2111 1E16  
                                                        u2200 20DA  
                                                        u2120 1F94  
                                                        u2040 1D50  
                                                        u2201 20D6  
                                                        u2041 1D4C  
                                                        u2210 2108  
                                                        u2130 1FEE  
                                                        u2050 1D62  
                                                        u2211 2104  
                                                        u2131 1FEA  
                                                        u2051 1D5E  
                                                        u2220 2142  
                                                        u2140 200E  
                                                        u2060 1D72  
                                                        u2300 3290  
                                                        u3100 2F64  
                                                        u2221 213E  
                                                        u2141 200A  
                                                        u2125 1F8A  
                                                        u2061 1D6E  
                                                        u2301 328C  
                                                        u3101 2F60  
                                                        _LATA 04BE  
                                                        u2150 2020  
                                                        u2070 1DB2  
                                                        u2230 34CE  
                                                        u2310 2D06  
                                                        u3110 2F9A  
                                                        _LATB 04BF  
                                                        u2151 201C  
                                                        u2071 1DAE  
                                                        u2231 34CA  
                                                        u2311 2D02  
                                                        u3111 2F96  
                                                        _LATC 04C0  
                                                        u2160 204E  
                                                        u2080 1DC4  
                                                        u2240 31C2  
                                                        u2400 2E94  
                                                        u2320 2D14  
                                                        u3120 2FBA  
                                                        u2161 204A  
                                                        u2081 1DC0  
                                                        u2241 31BE  
                                                        u2401 2E90  
                                                        u2321 2D10  
                                                        u3121 2FB6  
                                                        u2170 2064  
                                                        u2090 1DD4  
                                                        u2250 31F6  
                                                        u2330 2D70  
                                                        u2410 2192  
                                                        u3130 2FD0  
                                                        u2171 2060  
                                                        u2091 1DD0  
                                                        u2331 2D6C  
                                                        u2411 218C  
                                                        u3131 2FCC  
                                                        u1700 191C  
                                                        u2180 2078  
                                                        u2260 3224  
                                                        u2340 2DC6  
                                                        u2420 2194  
                                                        u2500 141E  
                                                        u3140 2FEE  
                                                        u1701 1918  
                                                        u2181 2074  
                                                        u2261 3220  
                                                        u2341 2DC2  
                                                        u2501 141A  
                                                        u3141 2FEA  
                                                        u1710 192C  
                                                        u2190 2092  
                                                        u2270 3238  
                                                        u2350 2E10  
                                                        u2430 21B6  
                                                        u2510 143C  
                                                        u3150 3030  
                                                        u1711 1928  
                                                        u2191 208E  
                                                        u2271 3234  
                                                        u2255 31EC  
                                                        u2351 2E0C  
                                                        u2431 21B2  
                                                        u2511 1438  
                                                        u3151 302C  
                                                        u2600 2556  
                                                        u1800 1A72  
                                                        u1720 1968  
                                                        u2280 3260  
                                                        u2360 2E2E  
                                                        u2440 2336  
                                                        u2520 144C  
                                                        u2601 2552  
                                                        u1801 1A6E  
                                                        u1721 1964  
                                                        u2281 325C  
                                                        u2361 2E2A  
                                                        u2441 2332  
                                                        u2521 1448  
                                                        u2610 2566  
                                                        u1810 1A82  
                                                        u1730 1976  
                                                        u1650 1890  
                                                        u2290 3280  
                                                        u2370 2E3E  
                                                        u2450 2524  
                                                        u2530 1528  
                                                        u3090 2F2C  
                                                        u2611 2562  
                                                        u1811 1A7E  
                                                        u1731 1972  
                                                        u1651 188C  
                                                        u2291 327C  
                                                        u2371 2E3A  
                                                        u2451 2520  
                                                        u2531 1524  
                                                        u3091 2F28  
                                                        u2700 2732  
                                                        u2620 25AA  
                                                        u1900 1BE0  
                                                        u1820 1AB4  
                                                        u1740 19E4  
                                                        u1660 18A2  
                                                        u2380 2E4C  
                                                        u2540 1602  
                                                        u2460 138A  
                                                        u2701 272E  
                                                        u2621 25A6  
                                                        u1901 1BDC  
                                                        u1821 1AB0  
                                                        u1741 19E0  
                                                        u1661 189E  
                                                        u2381 2E48  
                                                        u2541 15FE  
                                                        u2461 1384  
                                                        u2710 2748  
                                                        u2630 25BC  
                                                        u1910 1BFC  
                                                        u1830 1AC2  
                                                        u1750 19FC  
                                                        u1670 18B2  
                                                        u2390 2E86  
                                                        u2550 1620  
                                                        u2470 138C  
                                                        u2711 2744  
                                                        u2631 25B8  
                                                        u1911 1BF8  
                                                        u1831 1ABE  
                                                        u1751 19F6  
                                                        u1671 18AE  
                                                        u2391 2E82  
                                                        u2551 161C  
                                                        u2800 2882  
                                                        u2720 2766  
                                                        u2640 25CC  
                                                        u1920 1C0C  
                                                        u1840 1AE0  
                                                        u1760 19FE  
                                                        u1680 18F4  
                                                        u2560 1630  
                                                        u2480 13AE  
                                                        u2801 287E  
                                                        u2721 2762  
                                                        u2641 25C8  
                                                        u1921 1C08  
                                                        u1841 1ADC  
                                                        u1681 18F0  
                                                        u2561 162C  
                                                        u2481 13AA  
                                                 main@counter 05D0  
                                                        u2810 28B0  
                                                        u2730 2786  
                                                        u2650 260C  
                                                        u1930 1C1E  
                                                        u1850 1B18  
                                                        u1770 1A26  
                                                        u1690 190A  
                                                        u2570 16B0  
                                                        u2490 13C4  
                                                        u2811 28AC  
                                                        u2731 2782  
                                                        u2651 2608  
                                                        u1931 1C1A  
                                                        u1851 1B14  
                                                        u1771 1A22  
                                                        u1691 1906  
                                                        u2571 16AC  
                                                        u2491 13C0  
                                                        u2740 2798  
                                                        u2660 264C  
                                                        u1940 1C34  
                                                        u1860 1B5E  
                                                        u1780 1A44  
                                                        u2580 175A  
                                                        u2820 31AA  
                                                        u2741 2794  
                                                        u2661 2648  
                                                        u1941 1C30  
                                                        u1861 1B5A  
                                                        u1781 1A40  
                                                        u2581 1756  
                                                        u2821 31A6  
                                                        u2750 27C6  
                                                        u2670 26C2  
                                                        u2590 2544  
                                                        u1950 1C4A  
                                                        u1870 1B94  
                                                        u1790 1A64  
                                                        u2751 27C2  
                                                        u2671 26BE  
                                                        u2591 2540  
                                                        u1951 1C46  
                                                        u1871 1B90  
                                                        u1791 1A60  
                                                        u2760 27DC  
                                                        u2680 26E4  
                                                        u1960 1C5E  
                                                        u1880 1BA4  
                                                        u2761 27D8  
                                                        u2681 26E0  
                                                        u1961 1C5A  
                                                        u1881 1BA0  
                                                        u2770 27F0  
                                                        u2690 270E  
                                                        u1970 1C78  
                                                        u1890 1BD0  
                                                        u2771 27EC  
                                                        u2691 270A  
                                                        u1971 1C74  
                                                        u1891 1BCC  
                                                        u2780 280A  
                                                        u1980 1CB2  
                                                        u2781 2806  
                                                        u1981 1CAE  
                                                        u2790 2852  
                                                        u1990 1CC4  
                                                        u2791 284E  
                                                        u1991 1CC0  
                                                        _WPUA 0401  
                                                        _WPUB 0409  
                                                        _WPUC 0411  
                                                        _half 0D43  
                                                        _main 2EA8  
                                                        _sinf 1368  
                                                        fsr1h 04E2  
                                                        fsr2h 04DA  
                                                        indf2 04DF  
                                                        fsr1l 04E1  
                                                        fsr2l 04D9  
                                   ?_INT2_SetInterruptHandler 0501  
                                                        prodh 04F4  
                                                        prodl 04F3  
                                                        start 7FFC  
                                             ___fldiv@new_exp 0539  
                                                ___param_bank 0000  
                                               ___fltol@sign1 0559  
                                             __end_of___fladd 1D36  
                                                       ?_main 0501  
                                             __end_of___fldiv 28C4  
                                             __end_of___cosdf 2CF4  
                                             __end_of___flneg 34F0  
                                                       ?_sinf 059B  
                                             __end_of___flmul 2160  
                                             __end_of___flsub 34B6  
                                             __end_of___fltol 32B2  
                                                       _IOCAF 0407  
                                                       _IOCBF 040F  
                                                       _IOCCF 0417  
                                                       _IOCAN 0406  
                                                       _IOCAP 0405  
                                                       _IOCBN 040E  
                                                       _IOCCN 0416  
                                                       _IOCBP 040D  
                                                       _IOCCP 0415  
                                             __end_of___sindf 2AF6  
                                      __end_of_DAC1_SetOutput 361E  
                                                ___sindf$1860 0568  
                                                ___sindf$1861 056C  
                                                ___sindf$1862 0570  
                                      ?_PWM1_16BIT_Initialize 0501  
                                                       _OSCEN 00B3  
                                                       _PORTB 04CF  
                                                       _TRISA 04C6  
                                                       _TRISB 04C7  
                                                       _TRISC 04C8  
                                             __end_of_pio2_1t 0D3B  
            _PWM2_16BIT_Slice1Output1_DefaultInterruptHandler 0000  
            _PWM1_16BIT_Slice1Output1_DefaultInterruptHandler 0000  
                                                       _fabsf 34F0  
                                             __end_of_invpio2 0D43  
                                    _INT1_SetInterruptHandler 3602  
                                                       tablat 04F5  
                                                       sinf@n 05A7  
                                                       sinf@x 059B  
                                                       sinf@y 05AD  
                                                       status 04D8  
                                       _PWM2_16BIT_Initialize 3352  
                                             __initialization 342A  
                                                __end_of_half 0D47  
                                                __end_of_main 3048  
                                     __end_of_DAC1_Initialize 35BC  
                                                __end_of_sinf 1876  
                                                      ??_main 05C3  
                                                      ??_sinf 055D  
                                               __activetblptr 0002  
                                             ?_DAC1_SetOutput 0501  
               __end_of_PWM1_16BIT_Period_SetInterruptHandler 35F8  
               __end_of_PWM2_16BIT_Period_SetInterruptHandler 35DA  
                     ??_PWM2_16BIT_Period_SetInterruptHandler 0503  
                     ??_PWM1_16BIT_Period_SetInterruptHandler 0503  
                      ?_PWM2_16BIT_Period_SetInterruptHandler 0501  
                      ?_PWM1_16BIT_Period_SetInterruptHandler 0501  
                       _PWM1_16BIT_Period_SetInterruptHandler 35EE  
                       _PWM2_16BIT_Period_SetInterruptHandler 35D0  
                                                      ?_fabsf 0501  
                                                      _ACTCON 00AC  
                                                      _ANSELA 0400  
                                                      _ANSELB 0408  
                                                      _ANSELC 0410  
                                                      _RB4I2C 0287  
                                                      _RB6I2C 0286  
                                                      _RA4PPS 0205  
                                                      _RA5PPS 0206  
                                                      _RB4PPS 020D  
                                                      _RB5PPS 020E  
                                                      _RC5PPS 0216  
                                                      _ODCONA 0402  
                                                      _ODCONB 040A  
                                                      _ODCONC 0412  
                                                      _INLVLA 0404  
                                                      _INLVLB 040C  
                                                      _INLVLC 0414  
                                               ___rem_pio2f@n 0597  
                                               ___rem_pio2f@t 0593  
                                               ___rem_pio2f@x 057C  
                                               ___rem_pio2f@y 0580  
                                                      _OSCFRQ 00B1  
                                            __end_of___xxtofl 2EA8  
                                     DAC1_SetOutput@inputData 0501  
                                           __end_of_SPI1_Host 0D1D  
                                                      _s1pio2 0D63  
                                                      _s2pio2 0D5F  
                                                      _s3pio2 0D5B  
                                                      _s4pio2 0D57  
                                                   ??___fladd 0549  
                                                   ??___fldiv 0530  
                                                   ??___cosdf 0555  
                                                   ??___flneg 0555  
                                                   ??___flmul 0517  
                                                   ??___flsub 0559  
                                                   ??___fltol 0555  
                                                   ??___sindf 0555  
                                                      _pio2_1 0D3B  
                                                      fabsf@u 0505  
                                                      fabsf@x 0501  
                                                      clear_0 3454  
                                                      clear_1 3460  
                                                      isa$std 0001  
                                           ?_CLOCK_Initialize 0501  
                                                __pdataBIGRAM 0664  
                                _INT2_DefaultInterruptHandler 0000  
                                          ??_CLOCK_Initialize 0501  
                                                __mediumconst 0000  
                                                      sinf@ux 05B1  
                                                      tblptrh 04F7  
                                                      tblptrl 04F6  
                                                      tblptru 04F8  
                    INT2_SetInterruptHandler@InterruptHandler 0501  
                    INT1_SetInterruptHandler@InterruptHandler 0501  
                    INT0_SetInterruptHandler@InterruptHandler 0501  
       PWM2_16BIT_Period_SetInterruptHandler@InterruptHandler 0501  
PWM2_16BIT_Slice1Output2_SetInterruptHandler@InterruptHandler 0501  
PWM2_16BIT_Slice1Output1_SetInterruptHandler@InterruptHandler 0501  
       PWM1_16BIT_Period_SetInterruptHandler@InterruptHandler 0501  
PWM1_16BIT_Slice1Output2_SetInterruptHandler@InterruptHandler 0501  
PWM1_16BIT_Slice1Output1_SetInterruptHandler@InterruptHandler 0501  
                                              _SPI1_IsRxReady 0000  
                                              _SPI1_IsTxReady 0000  
                                                ___xxtofl@arg 050B  
                                                ___xxtofl@exp 050A  
                                           _SYSTEM_Initialize 3558  
                                                ___xxtofl@val 0501  
                                                  __accesstop 0560  
                                     __end_of__initialization 3466  
                                                  ___flneg@f1 0578  
                                              _SPI1_ByteWrite 0000  
                                          ?_SYSTEM_Initialize 0501  
                                      ?_PWM2_16BIT_Initialize 0501  
                                               ___rparam_used 0001  
                                                  ___fltol@f1 0551  
                                              __pcstackCOMRAM 0501  
                                         ??_SYSTEM_Initialize 0503  
                                            ?_DAC1_Initialize 0501  
                                               __end_of_fabsf 3524  
                                           ??_SPI1_Initialize 0501  
                                                  __end_of_C0 0D57  
                                                  __end_of_C1 0D53  
                                                  __end_of_C2 0D4F  
                                                  __end_of_C3 0D4B  
                                                  __end_of_S1 0D37  
                                                  __end_of_S2 0D33  
                                                  __end_of_S3 0D2F  
                                                  __end_of_S4 0D2B  
                                          _spi1_configuration 0D1D  
                            __end_of_INT2_SetInterruptHandler 3602  
                                  __end_of_generate_sine_wave 31AC  
                                                     ??_fabsf 0505  
                                   __end_of_SYSTEM_Initialize 3576  
                                                  __pbssBANK5 05E5  
                                                  __pbssBANK6 0600  
                                       _INT0_InterruptHandler 05D9  
                                                  __pnvCOMRAM 055D  
                                                     _DAC1CON 007F  
                                               ??___rem_pio2f 055B  
                                     ??_PWM1_16BIT_Initialize 0503  
                                  ??_INT1_SetInterruptHandler 0503  
                                                   ?___xxtofl 0501  
                                                     _OSCCON1 00AD  
                                                     _OSCCON3 00AF  
                                              ___rem_pio2f@fn 058F  
                                              ___rem_pio2f@ty 0582  
                                              ___rem_pio2f@ux 058B  
                                                     _SPI1CLK 008C  
                                                     _SPI1RXB 0080  
                                                     _SPI1TXB 0081  
                                                     _OSCTUNE 00B0  
                                                     _PWM1CLK 0461  
                                                     _PWM1GIE 0468  
                                                     _PWM2CLK 0470  
                                                     _PWM1CON 0469  
                                                     _PWM2GIE 0477  
                                                     _PWM1GIR 0467  
                                                     _PWM2CON 0478  
                                                     _PWM2GIR 0476  
                                                     _PWM1ERS 0460  
                                                     _PWM1LDS 0462  
                                                     _PWM2ERS 046F  
                                                     _PWM2LDS 0471  
                                                     _PWM1PRH 0464  
                                                     _PWM1PRL 0463  
                                                     _PWM2PRH 0473  
                                                     _PWM2PRL 0472  
                                                     _SLRCONA 0403  
                                                     _SLRCONB 040B  
                                                     _SLRCONC 0413  
                                   ?_INT0_SetInterruptHandler 0501  
                                                     __Hparam 0000  
                                                     __Lparam 0000  
                                                     ___fladd 1876  
                                                     ___fldiv 252A  
                                                     ___cosdf 2AF6  
                                                     ___flneg 34B6  
                                                     ___flmul 1D36  
                                                     ___flsub 3470  
                                                     ___fltol 31AC  
                                                     ___sindf 28C4  
                                            ??_DAC1_SetOutput 0501  
                                                __psmallconst 0D00  
                                                     __pcinit 342A  
                                                     __ramtop 0D00  
                                                     __ptext0 2EA8  
                                                     __ptext1 3048  
                                                     __ptext2 1368  
                                                     __ptext3 28C4  
                                                     __ptext4 2160  
                                                     __ptext5 34F0  
                                                     __ptext6 2CF4  
                                                     __ptext7 31AC  
                                                     __ptext8 3470  
                                                     __ptext9 34B6  
                                                     _pio2_1t 0D37  
        __end_of_PWM1_16BIT_Slice1Output1_SetInterruptHandler 35EE  
        __end_of_PWM2_16BIT_Slice1Output1_SetInterruptHandler 35D0  
              ??_PWM2_16BIT_Slice1Output1_SetInterruptHandler 0503  
              ??_PWM1_16BIT_Slice1Output1_SetInterruptHandler 0503  
               ?_PWM2_16BIT_Slice1Output1_SetInterruptHandler 0501  
               ?_PWM1_16BIT_Slice1Output1_SetInterruptHandler 0501  
                _PWM1_16BIT_Slice1Output1_SetInterruptHandler 35E4  
                _PWM2_16BIT_Slice1Output1_SetInterruptHandler 35C6  
                                                     _rawData 0664  
                                                  ??___xxtofl 0505  
                                         __end_of___rem_pio2f 252A  
                                                     _invpio2 0D3F  
                                    ??_PIN_MANAGER_Initialize 0501  
                                                     main@xxx 05CC  
                                                     main@yyy 05C7  
                                            ___rem_pio2f$1859 0586  
                                        end_of_initialization 3466  
            _PWM2_16BIT_Slice1Output2_DefaultInterruptHandler 0000  
            _PWM1_16BIT_Slice1Output2_DefaultInterruptHandler 0000  
                                    _INT2_SetInterruptHandler 35F8  
                                                   _PIR10bits 04BD  
                                            ___rem_pio2f@F526 05E9  
                                               __Lmediumconst 0000  
                                            ___rem_pio2f@sign 058A  
                                             _SPI1_BufferRead 0000  
                                                   _SPI1TCNTH 0083  
                                                   _SPI1TCNTL 0082  
                                                     postdec1 04E5  
                                                   _PWM1S1CFG 046A  
                                                   _PWM1S1P1H 046C  
                                                   _PWM1S1P2H 046E  
                                                   _PWM1S1P1L 046B  
                                                   _PWM1S1P2L 046D  
                                                   _PWM2S1CFG 0479  
                                                   _PWM2S1P1H 047B  
                                                     postinc0 04EE  
                                                   _PWM2S1P2H 047D  
                                                     postinc2 04DE  
                                                   _PWM2S1P1L 047A  
                                                   _PWM2S1P2L 047C  
                                                   _PWM1PIPOS 0466  
                                                   _PWM2PIPOS 0475  
                                                   _SPI1_Host 0D01  
                                                   _SPI1_Open 0000  
                                       _INT1_InterruptHandler 05D7  
                                         _SPI1_BufferExchange 0000  
                                                 ___fladd@grs 0550  
                                               ___xxtofl@sign 0509  
                                                   _TRISBbits 04C7  
                                                 ___fldiv@grs 053B  
                                                 ___fldiv@rem 0534  
                                     ??_PWM2_16BIT_Initialize 0503  
                                                 ___flmul@grs 051C  
                                             _SPI1_Initialize 3576  
                                __end_of_INTERRUPT_Initialize 3558  
                                              __end_of_s1pio2 0D67  
                                              __end_of_s2pio2 0D63  
                                              __end_of_s3pio2 0D5F  
                                              __end_of_s4pio2 0D5B  
                                _INT0_DefaultInterruptHandler 0000  
                                               __pidataBIGRAM 0D68  
                                                 ___rem_pio2f 2160  
                                              __end_of_pio2_1 0D3F  
                                         start_initialization 342A  
                                          _generate_sine_wave 3048  
                                         ?_generate_sine_wave 0501  
                               __end_of_PWM1_16BIT_Initialize 342A  
                                                   ___fladd@a 0545  
                                                   ___fladd@b 0541  
                                               _SPI1_ByteRead 0000  
                                                   ___fldiv@a 052C  
                                                   ___fldiv@b 0528  
                                                   ___cosdf@r 0560  
                                                   ___cosdf@w 0570  
                                                   ___cosdf@x 0551  
                                                   ___cosdf@z 0574  
                                                   ___flmul@a 0513  
                                                   ___flmul@b 050F  
                                                   ___flsub@a 0555  
                                                   ___flsub@b 0551  
                            __end_of_INT0_SetInterruptHandler 3616  
                                               __pcstackBANK5 0560  
                                     __end_of_SPI1_Initialize 3594  
                                                   ___sindf@r 0560  
                                                   ___sindf@s 0574  
                                                   ___sindf@w 0564  
                                                   ___sindf@x 0551  
                                                   ___sindf@z 0578  
                                        ??_generate_sine_wave 055D  
                                         generate_sine_wave@i 05C1  
                                       _INT2_InterruptHandler 05D5  
                                                   __pnvBANK5 05D5  
                                      _PIN_MANAGER_Initialize 32B2  
                                                    ?___fladd 0541  
                                                    ?___fldiv 0528  
                                                    ?___cosdf 0551  
                                                    ?___flneg 0578  
                                                    ?___flmul 050F  
                                                    ?___flsub 0551  
                                                    ?___fltol 0551  
                                                    ?___sindf 0551  
                                                    _DAC1DATL 007D  
                                                   fabsf@F465 05E5  
                                                 __smallconst 0D00  
                                  ??_INT2_SetInterruptHandler 0503  
                                                   _sinf$1538 059F  
                                                   _sinf$1539 05A3  
                                                   _sinf$1855 05A9  
                                        _INTERRUPT_Initialize 3524  
                   _PWM2_16BIT_Period_DefaultInterruptHandler 0000  
                   _PWM1_16BIT_Period_DefaultInterruptHandler 0000  
                                            _CLOCK_Initialize 3594  
                                   ?_INT1_SetInterruptHandler 0501  
                          _PWM2_16BIT_Period_InterruptHandler 05DB  
                                                    _PIE3bits 04AB  
                                                    _PIE4bits 04AC  
                                                    _PIE5bits 04AD  
                                                _SPI1CON0bits 0084  
                                                    _PIR1bits 04B4  
                                                    _SPI1BAUD 0089  
                                                    _PIR3bits 04B6  
                                                    _PIR4bits 04B7  
                                                    _SPI1CON0 0084  
                                                    _SPI1CON1 0085  
                                                    _SPI1CON2 0086  
                                                    _PIR5bits 04B8  
                                                    _PIR6bits 04B9  
                                                    _PWM1CPRE 0465  
                                                    _PWM2CPRE 0474  
                                                   _sine_wave 0600  
                                                _SPI1INTFbits 008A  
                                           _SPI1_Deinitialize 0000  
                                                   main@bShow 05CB  
        __end_of_PWM1_16BIT_Slice1Output2_SetInterruptHandler 35E4  
        __end_of_PWM2_16BIT_Slice1Output2_SetInterruptHandler 35C6  
              ??_PWM2_16BIT_Slice1Output2_SetInterruptHandler 0503  
              ??_PWM1_16BIT_Slice1Output2_SetInterruptHandler 0503  
               ?_PWM2_16BIT_Slice1Output2_SetInterruptHandler 0501  
               ?_PWM1_16BIT_Slice1Output2_SetInterruptHandler 0501  
                _PWM1_16BIT_Slice1Output2_SetInterruptHandler 35DA  
                _PWM2_16BIT_Slice1Output2_SetInterruptHandler 35BC  
                                                   main@light 05D4  
                                            ?_SPI1_Initialize 0501  
                                                 _INTCON0bits 04D6  
                   _PWM2_16BIT_Slice1Output1_InterruptHandler 05DF  
                   _PWM1_16BIT_Slice1Output1_InterruptHandler 055D  
                                                   copy_data0 343E  
                                       ?_INTERRUPT_Initialize 0501  
                                           ??_DAC1_Initialize 0501  
                                    _INT0_SetInterruptHandler 360C  
                               __end_of_PWM2_16BIT_Initialize 33BE  
                                                    __Hrparam 0000  
                                                    __Lrparam 0000  
                                                ?___rem_pio2f 057C  
                                                    ___xxtofl 2CF4  
                                                    __ptext10 2AF6  
                                                    __ptext11 1D36  
                                                    __ptext20 33BE  
                                                    __ptext12 1876  
                                                    __ptext21 35DA  
                                                    __ptext13 252A  
                                                    __ptext30 3594  
                                                    __ptext22 35E4  
                                                    __ptext14 3558  
                                                    __ptext31 3616  
                                                    __ptext23 35EE  
                                                    __ptext15 3576  
                                                    __ptext24 32B2  
                                                    __ptext16 3352  
                                                    __ptext25 3524  
                                                    __ptext17 35BC  
                                                    __ptext26 35F8  
                                                    __ptext18 35C6  
                                                    __ptext27 3602  
                                                    __ptext19 35D0  
                                                    __ptext28 360C  
                                                    __ptext29 35B0  
                                                    isa$xinst 0000  
                          _PWM1_16BIT_Period_InterruptHandler 05E1  
                                _INT1_DefaultInterruptHandler 0000  
                                                 _PWM1GIEbits 0468  
                                                 _PWM1CONbits 0469  
                                                 _PWM2GIEbits 0477  
                                                 _PWM1GIRbits 0467  
                                                 _PWM2CONbits 0478  
                                                 _PWM2GIRbits 0476  
                                      ??_INTERRUPT_Initialize 0503  
                                     _generate_sine_wave$1852 05B5  
                                     _generate_sine_wave$1853 05B9  
                                     _generate_sine_wave$1854 05BD  
                                     ?_PIN_MANAGER_Initialize 0501  
                                                    sinf@sign 05A8  
                                                  _SPI1SCKPPS 026A  
                                                  _SPI1SDIPPS 026B  
                                            _SPI1_BufferWrite 0000  
                   _PWM1_16BIT_Slice1Output2_InterruptHandler 05E3  
                   _PWM2_16BIT_Slice1Output2_InterruptHandler 05DD  
                                    __end_of_CLOCK_Initialize 35B0  
                                                  _SPI1_Close 0000  
                                       _PWM1_16BIT_Initialize 33BE  
                            __end_of_INT1_SetInterruptHandler 360C  
                                               ___fladd@signs 054D  
                              __end_of_PIN_MANAGER_Initialize 3352  
                                                ___fladd@aexp 054E  
                                                ___fladd@bexp 054F  
                                                ___cosdf$1856 0564  
                                                ___cosdf$1857 0568  
                                                ___cosdf$1858 056C  
                                  __end_of_spi1_configuration 0D27  
